
sdtest.elf:     file format elf32-littlenios2
sdtest.elf
architecture: nios2:r1, flags 0x00000112:
EXEC_P, HAS_SYMS, D_PAGED
start address 0x08000244

Program Header:
    LOAD off    0x00001000 vaddr 0x08000000 paddr 0x08000000 align 2**12
         filesz 0x00000020 memsz 0x00000020 flags r-x
    LOAD off    0x00001020 vaddr 0x08000020 paddr 0x08000020 align 2**12
         filesz 0x00016008 memsz 0x00016008 flags r-x
    LOAD off    0x00017028 vaddr 0x08016028 paddr 0x08017b6c align 2**12
         filesz 0x00001b44 memsz 0x00001b44 flags rw-
    LOAD off    0x000196b0 vaddr 0x080196b0 paddr 0x080196b0 align 2**12
         filesz 0x00000000 memsz 0x00000700 flags rw-

Sections:
Idx Name          Size      VMA       LMA       File off  Algn
  0 .entry        00000020  08000000  08000000  00001000  2**5
                  CONTENTS, ALLOC, LOAD, READONLY, CODE
  1 .exceptions   00000224  08000020  08000020  00001020  2**2
                  CONTENTS, ALLOC, LOAD, READONLY, CODE
  2 .text         0001522c  08000244  08000244  00001244  2**2
                  CONTENTS, ALLOC, LOAD, READONLY, CODE
  3 .rodata       00000bb8  08015470  08015470  00016470  2**2
                  CONTENTS, ALLOC, LOAD, READONLY, DATA
  4 .rwdata       00001b44  08016028  08017b6c  00017028  2**2
                  CONTENTS, ALLOC, LOAD, DATA, SMALL_DATA
  5 .bss          00000700  080196b0  080196b0  000196b0  2**2
                  ALLOC, SMALL_DATA
  6 .onchip_memory2_0 00000000  00200000  00200000  00018b6c  2**0
                  CONTENTS
  7 .sdram        00000000  08019db0  08019db0  00018b6c  2**0
                  CONTENTS
  8 .comment      00000023  00000000  00000000  00018b6c  2**0
                  CONTENTS, READONLY
  9 .debug_aranges 00001110  00000000  00000000  00018b90  2**3
                  CONTENTS, READONLY, DEBUGGING
 10 .debug_info   0002e0f1  00000000  00000000  00019ca0  2**0
                  CONTENTS, READONLY, DEBUGGING
 11 .debug_abbrev 0000b27f  00000000  00000000  00047d91  2**0
                  CONTENTS, READONLY, DEBUGGING
 12 .debug_line   0000e067  00000000  00000000  00053010  2**0
                  CONTENTS, READONLY, DEBUGGING
 13 .debug_frame  00002c60  00000000  00000000  00061078  2**2
                  CONTENTS, READONLY, DEBUGGING
 14 .debug_str    00004931  00000000  00000000  00063cd8  2**0
                  CONTENTS, READONLY, DEBUGGING
 15 .debug_loc    00019250  00000000  00000000  00068609  2**0
                  CONTENTS, READONLY, DEBUGGING
 16 .debug_alt_sim_info 00000030  00000000  00000000  0008185c  2**2
                  CONTENTS, READONLY, DEBUGGING
 17 .debug_ranges 00001b00  00000000  00000000  00081890  2**3
                  CONTENTS, READONLY, DEBUGGING
 18 .thread_model 00000003  00000000  00000000  0008737e  2**0
                  CONTENTS, READONLY
 19 .cpu          0000000c  00000000  00000000  00087381  2**0
                  CONTENTS, READONLY
 20 .qsys         00000001  00000000  00000000  0008738d  2**0
                  CONTENTS, READONLY
 21 .simulation_enabled 00000001  00000000  00000000  0008738e  2**0
                  CONTENTS, READONLY
 22 .sysid_hash   00000004  00000000  00000000  0008738f  2**0
                  CONTENTS, READONLY
 23 .sysid_base   00000004  00000000  00000000  00087393  2**0
                  CONTENTS, READONLY
 24 .sysid_time   00000004  00000000  00000000  00087397  2**0
                  CONTENTS, READONLY
 25 .stderr_dev   0000000b  00000000  00000000  0008739b  2**0
                  CONTENTS, READONLY
 26 .stdin_dev    0000000b  00000000  00000000  000873a6  2**0
                  CONTENTS, READONLY
 27 .stdout_dev   0000000b  00000000  00000000  000873b1  2**0
                  CONTENTS, READONLY
 28 .sopc_system_name 0000000a  00000000  00000000  000873bc  2**0
                  CONTENTS, READONLY
 29 .quartus_project_dir 0000001b  00000000  00000000  000873c6  2**0
                  CONTENTS, READONLY
 30 .jdi          000048e1  00000000  00000000  000873e1  2**0
                  CONTENTS, READONLY
 31 .sopcinfo     0009a3b8  00000000  00000000  0008bcc2  2**0
                  CONTENTS, READONLY
SYMBOL TABLE:
08000000 l    d  .entry	00000000 .entry
08000020 l    d  .exceptions	00000000 .exceptions
08000244 l    d  .text	00000000 .text
08015470 l    d  .rodata	00000000 .rodata
08016028 l    d  .rwdata	00000000 .rwdata
080196b0 l    d  .bss	00000000 .bss
00200000 l    d  .onchip_memory2_0	00000000 .onchip_memory2_0
08019db0 l    d  .sdram	00000000 .sdram
00000000 l    d  .comment	00000000 .comment
00000000 l    d  .debug_aranges	00000000 .debug_aranges
00000000 l    d  .debug_info	00000000 .debug_info
00000000 l    d  .debug_abbrev	00000000 .debug_abbrev
00000000 l    d  .debug_line	00000000 .debug_line
00000000 l    d  .debug_frame	00000000 .debug_frame
00000000 l    d  .debug_str	00000000 .debug_str
00000000 l    d  .debug_loc	00000000 .debug_loc
00000000 l    d  .debug_alt_sim_info	00000000 .debug_alt_sim_info
00000000 l    d  .debug_ranges	00000000 .debug_ranges
00000000 l    df *ABS*	00000000 ../sdtest_bsp//obj/HAL/src/crt0.o
0800028c l       .text	00000000 alt_after_alt_main
00000000 l    df *ABS*	00000000 alt_irq_handler.c
00000000 l    df *ABS*	00000000 alt_instruction_exception_entry.c
00000000 l    df *ABS*	00000000 hello_world.c
00000000 l    df *ABS*	00000000 fclose.c
00000000 l    df *ABS*	00000000 fflush.c
00000000 l    df *ABS*	00000000 findfp.c
08000a30 l     F .text	00000008 __fp_unlock
08000a44 l     F .text	0000019c __sinit.part.1
08000be0 l     F .text	00000008 __fp_lock
00000000 l    df *ABS*	00000000 fopen.c
00000000 l    df *ABS*	00000000 fread.c
00000000 l    df *ABS*	00000000 mallocr.c
00000000 l    df *ABS*	00000000 fseek.c
00000000 l    df *ABS*	00000000 fseeko.c
00000000 l    df *ABS*	00000000 fstatr.c
00000000 l    df *ABS*	00000000 fwalk.c
00000000 l    df *ABS*	00000000 impure.c
08016028 l     O .rwdata	00000424 impure_data
00000000 l    df *ABS*	00000000 int_errno.c
00000000 l    df *ABS*	00000000 makebuf.c
00000000 l    df *ABS*	00000000 mallocr.c
00000000 l    df *ABS*	00000000 memcpy.c
00000000 l    df *ABS*	00000000 memset.c
00000000 l    df *ABS*	00000000 openr.c
00000000 l    df *ABS*	00000000 perror.c
00000000 l    df *ABS*	00000000 printf.c
00000000 l    df *ABS*	00000000 putchar.c
00000000 l    df *ABS*	00000000 puts.c
00000000 l    df *ABS*	00000000 refill.c
08002a60 l     F .text	0000001c lflush
00000000 l    df *ABS*	00000000 sbrkr.c
00000000 l    df *ABS*	00000000 stdio.c
00000000 l    df *ABS*	00000000 strerror.c
00000000 l    df *ABS*	00000000 strlen.c
00000000 l    df *ABS*	00000000 u_strerr.c
00000000 l    df *ABS*	00000000 vfprintf.c
08015d56 l     O .rodata	00000010 zeroes.4404
0800570c l     F .text	000000bc __sbprintf
08015d66 l     O .rodata	00000010 blanks.4403
00000000 l    df *ABS*	00000000 writer.c
00000000 l    df *ABS*	00000000 wsetup.c
00000000 l    df *ABS*	00000000 closer.c
00000000 l    df *ABS*	00000000 dtoa.c
080059d0 l     F .text	00000200 quorem
00000000 l    df *ABS*	00000000 flags.c
00000000 l    df *ABS*	00000000 fputc.c
00000000 l    df *ABS*	00000000 fputs.c
00000000 l    df *ABS*	00000000 fvwrite.c
00000000 l    df *ABS*	00000000 isattyr.c
00000000 l    df *ABS*	00000000 locale.c
08016874 l     O .rwdata	00000020 lc_ctype_charset
08016854 l     O .rwdata	00000020 lc_message_charset
08016894 l     O .rwdata	00000038 lconv
00000000 l    df *ABS*	00000000 lseekr.c
00000000 l    df *ABS*	00000000 memchr.c
00000000 l    df *ABS*	00000000 memmove.c
00000000 l    df *ABS*	00000000 mprec.c
08015d94 l     O .rodata	0000000c p05.2768
00000000 l    df *ABS*	00000000 putc.c
00000000 l    df *ABS*	00000000 readr.c
00000000 l    df *ABS*	00000000 mallocr.c
00000000 l    df *ABS*	00000000 s_fpclassify.c
00000000 l    df *ABS*	00000000 strcmp.c
00000000 l    df *ABS*	00000000 vfprintf.c
0800955c l     F .text	000000fc __sprint_r.part.0
08015ec8 l     O .rodata	00000010 blanks.4348
08015eb8 l     O .rodata	00000010 zeroes.4349
0800aae8 l     F .text	000000bc __sbprintf
00000000 l    df *ABS*	00000000 wbuf.c
00000000 l    df *ABS*	00000000 mallocr.c
00000000 l    df *ABS*	00000000 fputwc.c
00000000 l    df *ABS*	00000000 wcrtomb.c
00000000 l    df *ABS*	00000000 wctomb_r.c
00000000 l    df *ABS*	00000000 libgcc2.c
00000000 l    df *ABS*	00000000 libgcc2.c
00000000 l    df *ABS*	00000000 lib2-divmod.c
00000000 l    df *ABS*	00000000 adddf3.c
00000000 l    df *ABS*	00000000 divdf3.c
00000000 l    df *ABS*	00000000 eqdf2.c
00000000 l    df *ABS*	00000000 gedf2.c
00000000 l    df *ABS*	00000000 ledf2.c
00000000 l    df *ABS*	00000000 muldf3.c
00000000 l    df *ABS*	00000000 subdf3.c
00000000 l    df *ABS*	00000000 fixdfsi.c
00000000 l    df *ABS*	00000000 floatsidf.c
00000000 l    df *ABS*	00000000 floatunsidf.c
00000000 l    df *ABS*	00000000 libgcc2.c
00000000 l    df *ABS*	00000000 libgcc2.c
00000000 l    df *ABS*	00000000 alt_close.c
0800e47c l     F .text	0000003c alt_get_errno
00000000 l    df *ABS*	00000000 alt_dev.c
0800e588 l     F .text	0000002c alt_dev_null_write
00000000 l    df *ABS*	00000000 alt_errno.c
00000000 l    df *ABS*	00000000 alt_fstat.c
0800e5b4 l     F .text	0000003c alt_get_errno
00000000 l    df *ABS*	00000000 alt_isatty.c
0800e6a0 l     F .text	0000003c alt_get_errno
00000000 l    df *ABS*	00000000 alt_load.c
0800e780 l     F .text	00000068 alt_load_section
00000000 l    df *ABS*	00000000 alt_lseek.c
0800e86c l     F .text	0000003c alt_get_errno
00000000 l    df *ABS*	00000000 alt_main.c
00000000 l    df *ABS*	00000000 alt_malloc_lock.c
00000000 l    df *ABS*	00000000 alt_open.c
0800ea40 l     F .text	0000003c alt_get_errno
0800ea7c l     F .text	000000c4 alt_file_locked
00000000 l    df *ABS*	00000000 alt_read.c
0800ec94 l     F .text	0000003c alt_get_errno
00000000 l    df *ABS*	00000000 alt_release_fd.c
00000000 l    df *ABS*	00000000 alt_sbrk.c
08017b5c l     O .rwdata	00000004 heap_end
00000000 l    df *ABS*	00000000 alt_write.c
0800eee0 l     F .text	0000003c alt_get_errno
00000000 l    df *ABS*	00000000 alt_sys_init.c
0800f014 l     F .text	00000034 alt_dev_reg
08016a74 l     O .rwdata	00001060 jtag_uart_0
08017ad4 l     O .rwdata	0000002c lcd
08017b00 l     O .rwdata	0000002c SD_Card
00000000 l    df *ABS*	00000000 Altera_UP_SD_Card_Avalon_Interface.c
00000000 l    df *ABS*	00000000 altera_avalon_jtag_uart_fd.c
00000000 l    df *ABS*	00000000 altera_avalon_jtag_uart_init.c
08013658 l     F .text	0000020c altera_avalon_jtag_uart_irq
08013864 l     F .text	000000a0 altera_avalon_jtag_uart_timeout
00000000 l    df *ABS*	00000000 altera_avalon_jtag_uart_ioctl.c
00000000 l    df *ABS*	00000000 altera_avalon_jtag_uart_read.c
00000000 l    df *ABS*	00000000 altera_avalon_jtag_uart_write.c
00000000 l    df *ABS*	00000000 altera_avalon_timer_sc.c
08013e9c l     F .text	00000078 alt_avalon_timer_sc_irq
00000000 l    df *ABS*	00000000 altera_up_avalon_character_lcd.c
00000000 l    df *ABS*	00000000 alt_alarm_start.c
00000000 l    df *ABS*	00000000 alt_dcache_flush_all.c
00000000 l    df *ABS*	00000000 alt_dev_llist_insert.c
080145f8 l     F .text	0000003c alt_get_errno
00000000 l    df *ABS*	00000000 alt_do_ctors.c
00000000 l    df *ABS*	00000000 alt_do_dtors.c
00000000 l    df *ABS*	00000000 alt_find_dev.c
00000000 l    df *ABS*	00000000 alt_find_file.c
00000000 l    df *ABS*	00000000 alt_get_fd.c
00000000 l    df *ABS*	00000000 alt_icache_flush_all.c
00000000 l    df *ABS*	00000000 alt_iic.c
00000000 l    df *ABS*	00000000 alt_iic_isr_register.c
00000000 l    df *ABS*	00000000 alt_io_redirect.c
08014ca8 l     F .text	000000c4 alt_open_fd
00000000 l    df *ABS*	00000000 alt_irq_vars.c
00000000 l    df *ABS*	00000000 alt_tick.c
00000000 l    df *ABS*	00000000 altera_nios2_gen2_irq.c
00000000 l    df *ABS*	00000000 alt_icache_flush.c
00000000 l    df *ABS*	00000000 atexit.c
00000000 l    df *ABS*	00000000 exit.c
00000000 l    df *ABS*	00000000 memcmp.c
00000000 l    df *ABS*	00000000 __atexit.c
00000000 l    df *ABS*	00000000 __call_atexit.c
00000000 l    df *ABS*	00000000 alt_exit.c
0801971c g     O .bss	00000004 alt_instruction_exception_handler
080196e4 g     O .bss	00000004 aux_status_register
08002974 g     F .text	00000018 putchar
08008b68 g     F .text	00000074 _mprec_log10
08008c54 g     F .text	0000008c __any_on
08007914 g     F .text	00000054 _isatty_r
08015da0 g     O .rodata	00000028 __mprec_tinytens
0800e97c g     F .text	0000007c alt_main
0800298c g     F .text	000000c0 _puts_r
08019cb0 g     O .bss	00000100 alt_irq
08007a44 g     F .text	00000060 _lseek_r
08017b6c g       *ABS*	00000000 __flash_rwdata_start
08014004 g     F .text	00000040 alt_up_character_lcd_send_cmd
08007258 g     F .text	000000ac __sflags
0800cfa8 g     F .text	00000088 .hidden __eqdf2
0800f474 g     F .text	000001a4 Check_for_Master_Boot_Record
08019db0 g       *ABS*	00000000 __alt_heap_start
08000450 g     F .text	00000060 init_SD_card
08013278 g     F .text	000001bc alt_up_sd_card_fclose
08002930 g     F .text	0000003c printf
0800afc8 g     F .text	0000009c _wcrtomb_r
08002d7c g     F .text	0000005c __sseek
08000d80 g     F .text	00000010 __sinit
0800aba4 g     F .text	00000140 __swbuf_r
08007968 g     F .text	0000007c _setlocale_r
08000be8 g     F .text	00000068 __sfmoreglue
0800ea1c g     F .text	00000024 __malloc_unlock
08019708 g     O .bss	00000004 current_sector_modified
0800343c g     F .text	0000001c strerror
08007b88 g     F .text	0000015c memmove
08000d68 g     F .text	00000018 _cleanup
08007ce4 g     F .text	000000a8 _Balloc
08011e80 g     F .text	000000c4 alt_up_sd_card_is_Present
0800f1bc g     F .text	0000004c Save_Modified_Sector
0800d030 g     F .text	000000dc .hidden __gtdf2
08014f8c g     F .text	00000024 altera_nios2_gen2_irq_init
08013f90 g     F .text	00000074 get_DDRAM_addr
08000000 g     F .entry	0000001c __reset
08019700 g     O .bss	00000004 fat_partition_size_in_512_byte_sectors
08000020 g       *ABS*	00000000 __flash_exceptions_start
080019f0 g     F .text	0000005c _fstat_r
080196b4 g     O .bss	00000004 errno
08002cf8 g     F .text	00000008 __seofread
080196d4 g     O .bss	00000004 alt_argv
0801fb2c g       *ABS*	00000000 _gp
08012440 g     F .text	0000037c alt_up_sd_card_fopen
08011fb0 g     F .text	000000d0 alt_up_sd_card_find_first
080196f4 g     O .bss	00000004 command_argument_register
080168f4 g     O .rwdata	00000180 alt_fd_list
0800296c g     F .text	00000008 _putchar_r
080116f4 g     F .text	00000134 find_first_empty_record_in_root_directory
08014798 g     F .text	00000090 alt_find_dev
0800259c g     F .text	00000148 memcpy
080141ac g     F .text	00000050 alt_up_character_lcd_write_fd
08000a38 g     F .text	0000000c _cleanup_r
0800e294 g     F .text	000000dc .hidden __floatsidf
080028ec g     F .text	00000014 perror
08014d6c g     F .text	0000007c alt_io_redirect
0800d10c g     F .text	000000f4 .hidden __ltdf2
08015470 g       *ABS*	00000000 __DTOR_END__
08002a4c g     F .text	00000014 puts
08015040 g     F .text	0000009c alt_exception_cause_generated_bad_addr
080112ec g     F .text	000001bc find_first_empty_cluster
08002de0 g     F .text	0000065c _strerror_r
0800940c g     F .text	00000074 __fpclassifyd
08008ac4 g     F .text	000000a4 __ratio
08011dc4 g     F .text	000000bc alt_up_sd_card_open_dev
0800aacc g     F .text	0000001c __vfiprintf_internal
08013a5c g     F .text	0000021c altera_avalon_jtag_uart_read
08002900 g     F .text	00000030 _printf_r
00200000 g       *ABS*	00000000 __alt_mem_onchip_memory2_0
0800bd58 g     F .text	00000064 .hidden __udivsi3
0800e6dc g     F .text	000000a4 isatty
08015df0 g     O .rodata	000000c8 __mprec_tens
080079e4 g     F .text	0000000c __locale_charset
08014fb0 g     F .text	00000090 alt_icache_flush
080196c0 g     O .bss	00000004 __malloc_top_pad
08017b3c g     O .rwdata	00000004 __mb_cur_max
08007a14 g     F .text	0000000c _localeconv_r
080080f0 g     F .text	0000003c __i2b
08007458 g     F .text	000004bc __sfvwrite_r
080105dc g     F .text	000000b8 get_dir_divider_location
08002c50 g     F .text	00000054 _sbrk_r
080102ac g     F .text	000000c4 filename_to_upper_case
080127bc g     F .text	00000088 alt_up_sd_card_set_attributes
0800f618 g     F .text	0000027c Read_File_Record_At_Offset
08008e48 g     F .text	00000060 _read_r
08017b54 g     O .rwdata	00000004 alt_max_fd
08010e70 g     F .text	0000047c find_file_in_directory
08000684 g     F .text	000000f0 _fclose_r
08000a00 g     F .text	00000030 fflush
080196bc g     O .bss	00000004 __malloc_max_sbrked_mem
08011f44 g     F .text	0000006c alt_up_sd_card_is_FAT16
0800be14 g     F .text	000008ac .hidden __adddf3
0800886c g     F .text	0000010c __b2d
0800b728 g     F .text	00000538 .hidden __umoddi3
0800e8a8 g     F .text	000000d4 lseek
08017b2c g     O .rwdata	00000004 _global_impure_ptr
08010930 g     F .text	00000540 get_home_directory_cluster_for_file
08008ea8 g     F .text	00000564 _realloc_r
08019db0 g       *ABS*	00000000 __bss_end
08014bb8 g     F .text	000000f0 alt_iic_isr_register
08014e84 g     F .text	00000108 alt_tick
0800b1b0 g     F .text	00000578 .hidden __udivdi3
0800af24 g     F .text	00000024 _fputwc_r
08015dc8 g     O .rodata	00000028 __mprec_bigtens
08007ed4 g     F .text	00000104 __s2b
0800050c g     F .text	00000068 SD_write
0800e370 g     F .text	000000a8 .hidden __floatunsidf
080085ac g     F .text	00000060 __mcmp
0801970c g     O .bss	00000004 current_sector_index
08000da0 g     F .text	00000018 __fp_lock_all
08014b6c g     F .text	0000004c alt_ic_irq_enabled
08014de8 g     F .text	0000009c alt_alarm_stop
0800f394 g     F .text	000000e0 mark_cluster
08019710 g     O .bss	00000004 alt_irq_active
08001590 g     F .text	00000444 _fseeko_r
080000fc g     F .exceptions	000000d4 alt_irq_handler
080168cc g     O .rwdata	00000028 alt_dev_null
08011828 g     F .text	0000018c convert_filename_to_name_extension
0801444c g     F .text	00000038 alt_up_character_lcd_cursor_blink_on
080145b0 g     F .text	00000048 alt_dcache_flush_all
08007fd8 g     F .text	00000068 __hi0bits
080196e0 g     O .bss	00000004 is_sd_card_formated_as_FAT16
0800e214 g     F .text	00000080 .hidden __fixdfsi
080114a8 g     F .text	0000024c find_first_empty_record_in_a_subdirectory
08017b6c g       *ABS*	00000000 __ram_rwdata_end
08017b4c g     O .rwdata	00000008 alt_dev_list
08007304 g     F .text	00000044 _fputc_r
0800ef1c g     F .text	000000f8 write
08008ce0 g     F .text	000000a0 _putc_r
08019704 g     O .bss	00000004 device_pointer
08016028 g       *ABS*	00000000 __ram_rodata_end
0800e5f0 g     F .text	000000b0 fstat
0800d10c g     F .text	000000f4 .hidden __ledf2
08008324 g     F .text	00000140 __pow5mult
08009670 g     F .text	0000145c ___vfiprintf_internal_r
080196cc g     O .bss	00000004 __nlocale_changed
0800bdbc g     F .text	00000058 .hidden __umodsi3
08019db0 g       *ABS*	00000000 end
080019d4 g     F .text	0000001c fseeko
08001574 g     F .text	0000001c fseek
08013598 g     F .text	000000c0 altera_avalon_jtag_uart_init
080001d0 g     F .exceptions	00000074 alt_instruction_exception_entry
08015470 g       *ABS*	00000000 __CTOR_LIST__
10000000 g       *ABS*	00000000 __alt_stack_pointer
08013f14 g     F .text	0000007c alt_avalon_timer_sc_init
0800e418 g     F .text	00000064 .hidden __clzsi2
08013c78 g     F .text	00000224 altera_avalon_jtag_uart_write
08000d90 g     F .text	00000004 __sfp_lock_acquire
08007aa4 g     F .text	000000e4 memchr
080140b8 g     F .text	0000007c alt_up_character_lcd_write
080034f8 g     F .text	000021f8 ___vfprintf_internal_r
08001260 g     F .text	00000310 _free_r
080079f0 g     F .text	00000010 __locale_mb_cur_max
080152bc g     F .text	00000180 __call_exitprocs
080196c8 g     O .bss	00000004 __mlocale_changed
08017b34 g     O .rwdata	00000004 __malloc_sbrk_base
08000244 g     F .text	0000004c _start
08019714 g     O .bss	00000004 _alt_tick_rate
080034f0 g     F .text	00000008 _user_strerror
080002d8 g     F .text	00000178 read_file
08008464 g     F .text	00000148 __lshift
08019718 g     O .bss	00000004 _alt_nticks
0800ecd0 g     F .text	000000fc read
0800f080 g     F .text	00000088 alt_sys_init
080142fc g     F .text	0000008c alt_up_character_lcd_shift_display
0800280c g     F .text	00000060 _open_r
080151a4 g     F .text	00000118 __register_exitproc
0800812c g     F .text	000001f8 __multiply
08014388 g     F .text	0000008c alt_up_character_lcd_erase_pos
08013904 g     F .text	00000068 altera_avalon_jtag_uart_close
08016028 g       *ABS*	00000000 __ram_rwdata_start
08015470 g       *ABS*	00000000 __ram_rodata_start
08019720 g     O .bss	00000028 __malloc_current_mallinfo
08008978 g     F .text	0000014c __d2b
080196dc g     O .bss	00000004 initialized
08013434 g     F .text	00000060 altera_avalon_jtag_uart_read_fd
08014930 g     F .text	000000a4 alt_get_fd
08019748 g     O .bss	00000014 search_data
0800597c g     F .text	00000054 _close_r
08015128 g     F .text	0000007c memcmp
080134f4 g     F .text	00000050 altera_avalon_jtag_uart_close_fd
08019db0 g       *ABS*	00000000 __alt_stack_base
08013544 g     F .text	00000054 altera_avalon_jtag_uart_ioctl_fd
08005828 g     F .text	00000154 __swsetup_r
0800c6c0 g     F .text	000008e8 .hidden __divdf3
08000c50 g     F .text	00000118 __sfp
0801975c g     O .bss	00000054 boot_sector_data
08008bdc g     F .text	00000078 __copybits
0801644c g     O .rwdata	00000408 __malloc_av_
08000d9c g     F .text	00000004 __sinit_lock_release
0800d200 g     F .text	00000718 .hidden __muldf3
08002ca4 g     F .text	00000054 __sread
08001108 g     F .text	00000034 fread
08014828 g     F .text	00000108 alt_find_file
08014634 g     F .text	000000a4 alt_dev_llist_insert
0800e9f8 g     F .text	00000024 __malloc_lock
0800ee30 g     F .text	000000b0 sbrk
080009a4 g     F .text	0000005c _fflush_r
0800acfc g     F .text	000000c4 _calloc_r
08000ec4 g     F .text	00000018 fopen
080196b0 g       *ABS*	00000000 __bss_start
080026e4 g     F .text	00000128 memset
08000630 g     F .text	00000054 main
080196d8 g     O .bss	00000004 alt_envp
080196b8 g     O .bss	00000004 __malloc_max_total_mem
08013494 g     F .text	00000060 altera_avalon_jtag_uart_write_fd
0800ace4 g     F .text	00000018 __swbuf
08012844 g     F .text	00000088 alt_up_sd_card_get_attributes
08000edc g     F .text	0000022c _fread_r
0800f108 g     F .text	000000b4 Write_Sector_Data
08012c44 g     F .text	00000634 alt_up_sd_card_write
08014270 g     F .text	0000008c alt_up_character_lcd_shift_cursor
08002dd8 g     F .text	00000008 __sclose
10000000 g       *ABS*	00000000 __alt_heap_limit
08000774 g     F .text	00000014 fclose
08005bd0 g     F .text	00001688 _dtoa_r
08001d90 g     F .text	0000080c _malloc_r
0800b124 g     F .text	00000030 __ascii_wctomb
08017b58 g     O .rwdata	00000004 alt_errno
08001a4c g     F .text	000000c4 _fwalk
08008d80 g     F .text	000000c8 putc
0800bc60 g     F .text	00000084 .hidden __divsi3
0801407c g     F .text	0000003c alt_up_character_lcd_open_dev
0800113c g     F .text	00000124 _malloc_trim_r
08015470 g       *ABS*	00000000 __CTOR_END__
080196e8 g     O .bss	00000004 status_register
08014044 g     F .text	00000038 alt_up_character_lcd_init
08009480 g     F .text	000000dc strcmp
080196f0 g     O .bss	00000004 command_register
08015470 g       *ABS*	00000000 __flash_rodata_start
08015470 g       *ABS*	00000000 __DTOR_LIST__
0800cfa8 g     F .text	00000088 .hidden __nedf2
0800f048 g     F .text	00000038 alt_irq_init
0800edcc g     F .text	00000064 alt_release_fd
0800f2e0 g     F .text	000000b4 get_cluster_flag
08014414 g     F .text	00000038 alt_up_character_lcd_cursor_off
08015ed8 g     O .rodata	00000100 .hidden __clz_tab
0800f894 g     F .text	0000028c Write_File_Record_At_Offset
080196c4 g     O .bss	00000004 _PathLocale
080004b0 g     F .text	0000005c SD_read
080150dc g     F .text	00000014 atexit
080057c8 g     F .text	00000060 _write_r
08007a20 g     F .text	00000018 setlocale
0800fb20 g     F .text	000006a0 Check_for_DOS_FAT
080119b4 g     F .text	000002c8 create_file
08017b30 g     O .rwdata	00000004 _impure_ptr
080196ec g     O .bss	00000004 CSD_register_w0
080196d0 g     O .bss	00000004 alt_argc
08000788 g     F .text	0000021c __sflush_r
08014738 g     F .text	00000060 _do_dtors
08007a0c g     F .text	00000008 __locale_cjk_lang
08000290 g     F .text	00000048 SD_init
08001570 g     F .text	00000004 _fseek_r
08002a7c g     F .text	000001d4 __srefill_r
08000020 g       .exceptions	00000000 alt_irq_entry
08008808 g     F .text	00000064 __ulp
08000db8 g     F .text	00000018 __fp_unlock_all
08007348 g     F .text	0000005c fputc
08017b44 g     O .rwdata	00000008 alt_fs_list
08010370 g     F .text	0000026c check_file_name_for_FAT16_compliance
080196f8 g     O .bss	00000004 buffer_memory
08000020 g       *ABS*	00000000 __ram_exceptions_start
08007a38 g     F .text	0000000c localeconv
08014a08 g     F .text	00000050 alt_ic_isr_register
080196fc g     O .bss	00000004 fat_partition_offset_in_512_byte_sectors
08017b6c g       *ABS*	00000000 _edata
08019db0 g       *ABS*	00000000 _end
080197b0 g     O .bss	00000500 active_files
0800adc0 g     F .text	00000164 __fputwc
08000244 g       *ABS*	00000000 __ram_exceptions_end
08011c7c g     F .text	00000148 copy_file_record_name_to_string
0801396c g     F .text	000000f0 altera_avalon_jtag_uart_ioctl
080073a4 g     F .text	0000009c _fputs_r
080101c0 g     F .text	000000ec Look_for_FAT16
08014ae0 g     F .text	0000008c alt_ic_irq_disable
080196b0 g     O .bss	00000002 tfile
08002d00 g     F .text	0000007c __swrite
08017b38 g     O .rwdata	00000004 __malloc_trim_threshold
0800286c g     F .text	00000080 _perror_r
08007a00 g     F .text	0000000c __locale_msgcharset
080150f0 g     F .text	00000038 exit
08012080 g     F .text	000003c0 alt_up_sd_card_find_next
08001b10 g     F .text	000000c4 _fwalk_reent
0800860c g     F .text	000001fc __mdiff
0800bce4 g     F .text	00000074 .hidden __modsi3
0800f208 g     F .text	000000d8 Read_Sector_Data
10000000 g       *ABS*	00000000 __alt_data_end
08000020 g     F .exceptions	00000000 alt_exception
08000d94 g     F .text	00000004 __sfp_lock_release
08000000 g       *ABS*	00000000 __alt_mem_sdram
08014134 g     F .text	00000078 alt_up_character_lcd_string
08000dd0 g     F .text	000000f4 _fopen_r
0801543c g     F .text	00000034 _exit
08014484 g     F .text	0000012c alt_alarm_start
080128cc g     F .text	00000378 alt_up_sd_card_read
08001bd4 g     F .text	000001bc __smakebuf_r
08003458 g     F .text	00000098 strlen
0800eb40 g     F .text	00000154 open
0800d030 g     F .text	000000dc .hidden __gedf2
08017b40 g     O .rwdata	00000004 __wctomb
08009658 g     F .text	00000018 __sprint_r
080149d4 g     F .text	00000034 alt_icache_flush_all
08007440 g     F .text	00000018 fputs
080141fc g     F .text	00000074 alt_up_character_lcd_set_cursor_pos
08017b60 g     O .rwdata	00000004 alt_priority_mask
08014a58 g     F .text	00000088 alt_ic_irq_enable
080056f0 g     F .text	0000001c __vfprintf_internal
0800b154 g     F .text	0000005c _wctomb_r
0800d918 g     F .text	000008fc .hidden __subdf3
08008040 g     F .text	000000b0 __lo0bits
08017b64 g     O .rwdata	00000008 alt_alarm_list
080146d8 g     F .text	00000060 _do_ctors
0800b064 g     F .text	000000c0 wcrtomb
0800e4b8 g     F .text	000000d0 close
0800e7e8 g     F .text	00000084 alt_load
08010694 g     F .text	0000029c match_file_record_to_name_ext
0800af48 g     F .text	00000080 fputwc
08000574 g     F .text	000000bc read_sector
08000d98 g     F .text	00000004 __sinit_lock_acquire
08007db4 g     F .text	00000120 __multadd
08007d8c g     F .text	00000028 _Bfree



Disassembly of section .entry:

08000000 <__reset>:
#if NIOS2_ICACHE_SIZE > 0 && defined(ALT_ALLOW_CODE_AT_RESET) && (!defined(ALT_SIM_OPTIMIZE) || defined(NIOS2_ECC_PRESENT))
    /* Assume the instruction cache size is always a power of two. */
#if NIOS2_ICACHE_SIZE > 0x8000
    movhi r2, %hi(NIOS2_ICACHE_SIZE)
#else
    movui r2, NIOS2_ICACHE_SIZE
 8000000:	00840014 	movui	r2,4096
#endif

0:
    initi r2
 8000004:	1001483a 	initi	r2
    addi r2, r2, -NIOS2_ICACHE_LINE_SIZE
 8000008:	10bff804 	addi	r2,r2,-32
    bgt r2, zero, 0b
 800000c:	00bffd16 	blt	zero,r2,8000004 <__alt_data_end+0xf8000004>
 * Jump to the _start entry point in the .text section if reset code
 * is allowed or if optimizing for RTL simulation.
 */
#if defined(ALT_ALLOW_CODE_AT_RESET) || defined(ALT_SIM_OPTIMIZE)
    /* Jump to the _start entry point in the .text section. */
    movhi r1, %hi(_start)
 8000010:	00420034 	movhi	at,2048
    ori r1, r1, %lo(_start)
 8000014:	08409114 	ori	at,at,580
    jmp r1
 8000018:	0800683a 	jmp	at
 800001c:	00000000 	call	0 <__alt_mem_onchip_memory2_0-0x200000>

Disassembly of section .exceptions:

08000020 <alt_exception>:

#else /* ALT_EXCEPTION_STACK disabled */
        /* 
         * Reserve space on normal stack for registers about to be pushed.
         */
        addi  sp, sp, -76
 8000020:	deffed04 	addi	sp,sp,-76
         * documentation for details).
         *
         * Leave a gap in the stack frame at 4(sp) for the muldiv handler to
         * store zero into.
         */
        stw   ra,  0(sp)
 8000024:	dfc00015 	stw	ra,0(sp)
        stw   r1,   8(sp)
 8000028:	d8400215 	stw	at,8(sp)
        stw   r2,  12(sp)
 800002c:	d8800315 	stw	r2,12(sp)
        stw   r3,  16(sp)
 8000030:	d8c00415 	stw	r3,16(sp)
        stw   r4,  20(sp)
 8000034:	d9000515 	stw	r4,20(sp)
        stw   r5,  24(sp)
 8000038:	d9400615 	stw	r5,24(sp)
        stw   r6,  28(sp)
 800003c:	d9800715 	stw	r6,28(sp)
        stw   r7,  32(sp)
 8000040:	d9c00815 	stw	r7,32(sp)
        rdctl r5, estatus   /* Read early to avoid usage stall */
 8000044:	000b307a 	rdctl	r5,estatus
        stw   r8,  36(sp)
 8000048:	da000915 	stw	r8,36(sp)
        stw   r9,  40(sp)
 800004c:	da400a15 	stw	r9,40(sp)
        stw   r10, 44(sp)
 8000050:	da800b15 	stw	r10,44(sp)
        stw   r11, 48(sp)
 8000054:	dac00c15 	stw	r11,48(sp)
        stw   r12, 52(sp)
 8000058:	db000d15 	stw	r12,52(sp)
        stw   r13, 56(sp)
 800005c:	db400e15 	stw	r13,56(sp)
        stw   r14, 60(sp)
 8000060:	db800f15 	stw	r14,60(sp)
        stw   r15, 64(sp)
 8000064:	dbc01015 	stw	r15,64(sp)
        /*
         * ea-4 contains the address of the instruction being executed
         * when the exception occured. For interrupt exceptions, we will
         * will be re-issue the isntruction. Store it in 72(sp)
         */
        stw   r5,  68(sp)  /* estatus */
 8000068:	d9401115 	stw	r5,68(sp)
        addi  r15, ea, -4  /* instruction that caused exception */
 800006c:	ebffff04 	addi	r15,ea,-4
        stw   r15,  72(sp)
 8000070:	dbc01215 	stw	r15,72(sp)
#else
        /*
         * Test to see if the exception was a software exception or caused 
         * by an external interrupt, and vector accordingly.
         */
        rdctl r4, ipending
 8000074:	0009313a 	rdctl	r4,ipending
        andi  r2, r5, 1
 8000078:	2880004c 	andi	r2,r5,1
        beq   r2, zero, .Lnot_irq
 800007c:	10000326 	beq	r2,zero,800008c <alt_exception+0x6c>
        beq   r4, zero, .Lnot_irq
 8000080:	20000226 	beq	r4,zero,800008c <alt_exception+0x6c>
        /*
         * Now that all necessary registers have been preserved, call 
         * alt_irq_handler() to process the interrupts.
         */

        call alt_irq_handler
 8000084:	80000fc0 	call	80000fc <alt_irq_handler>

        .section .exceptions.irqreturn, "xa"

        br    .Lexception_exit
 8000088:	00000706 	br	80000a8 <alt_exception+0x88>
         * upon completion, so we write ea (address of instruction *after*
         * the one where the exception occured) into 72(sp). The actual
         * instruction that caused the exception is written in r2, which these
         * handlers will utilize.
         */
        stw ea, 72(sp) /* EA is PC+4 so will skip over instruction causing exception */
 800008c:	df401215 	stw	ea,72(sp)
.Lunknown_16bit:
        addi.n r4, r4, 2 /* Need PC+2 to skip over instruction causing exception */
        stw r4, 72(sp)

#else /* CDX is not Enabled and all instructions are 32bits */
        ldw r2, -4(ea) /* Instruction value that caused exception */
 8000090:	e8bfff17 	ldw	r2,-4(ea)
         * debugger is present) or go into an infinite loop since the
         * handling behavior is undefined; in that case we will not return here.
         */

        /* Load exception-causing address as first argument (r4) */
        addi   r4, ea, -4
 8000094:	e93fff04 	addi	r4,ea,-4

        /* Call the instruction-exception entry */
        call   alt_instruction_exception_entry
 8000098:	80001d00 	call	80001d0 <alt_instruction_exception_entry>
         * instruction
         *
         * Return code was 0: Skip. The instruction after the exception is
         * already stored in 72(sp).
         */
        bne   r2, r0, .Lexception_exit
 800009c:	1000021e 	bne	r2,zero,80000a8 <alt_exception+0x88>

        /*
         * Otherwise, modify 72(sp) to re-issue the instruction that caused the
         * exception.
         */
        addi  r15, ea, -4  /* instruction that caused exception */
 80000a0:	ebffff04 	addi	r15,ea,-4
        stw   r15,  72(sp)
 80000a4:	dbc01215 	stw	r15,72(sp)
        /* 
         * Restore the saved registers, so that all general purpose registers 
         * have been restored to their state at the time the interrupt occured.
         */

        ldw   r5,  68(sp)
 80000a8:	d9401117 	ldw	r5,68(sp)
        ldw   ea,  72(sp)  /* This becomes the PC once eret is executed */
 80000ac:	df401217 	ldw	ea,72(sp)
        ldw   ra,   0(sp)
 80000b0:	dfc00017 	ldw	ra,0(sp)

        wrctl estatus, r5
 80000b4:	2801707a 	wrctl	estatus,r5

        ldw   r1,   8(sp)
 80000b8:	d8400217 	ldw	at,8(sp)
        ldw   r2,  12(sp)
 80000bc:	d8800317 	ldw	r2,12(sp)
        ldw   r3,  16(sp)
 80000c0:	d8c00417 	ldw	r3,16(sp)
        ldw   r4,  20(sp)
 80000c4:	d9000517 	ldw	r4,20(sp)
        ldw   r5,  24(sp)
 80000c8:	d9400617 	ldw	r5,24(sp)
        ldw   r6,  28(sp)
 80000cc:	d9800717 	ldw	r6,28(sp)
        ldw   r7,  32(sp)
 80000d0:	d9c00817 	ldw	r7,32(sp)

#if defined(ALT_EXCEPTION_STACK) && defined(ALT_STACK_CHECK)
        ldw   et, %gprel(alt_exception_old_stack_limit)(gp)
#endif

        ldw   r8,  36(sp)
 80000d4:	da000917 	ldw	r8,36(sp)
        ldw   r9,  40(sp)
 80000d8:	da400a17 	ldw	r9,40(sp)
        ldw   r10, 44(sp)
 80000dc:	da800b17 	ldw	r10,44(sp)
        ldw   r11, 48(sp)
 80000e0:	dac00c17 	ldw	r11,48(sp)
        ldw   r12, 52(sp)
 80000e4:	db000d17 	ldw	r12,52(sp)
        ldw   r13, 56(sp)
 80000e8:	db400e17 	ldw	r13,56(sp)
        ldw   r14, 60(sp)
 80000ec:	db800f17 	ldw	r14,60(sp)
        ldw   r15, 64(sp)
 80000f0:	dbc01017 	ldw	r15,64(sp)
        stw   et, %gprel(alt_stack_limit_value)(gp)
        stw   zero, %gprel(alt_exception_old_stack_limit)(gp)
#endif /* ALT_STACK_CHECK */
        ldw   sp,  76(sp)
#else /* ALT_EXCEPTION_STACK disabled */
        addi  sp, sp, 76
 80000f4:	dec01304 	addi	sp,sp,76

        /*
         * Return to the interrupted instruction.
         */

        eret
 80000f8:	ef80083a 	eret

080000fc <alt_irq_handler>:
 * instruction is present if the macro ALT_CI_INTERRUPT_VECTOR defined.
 */

void alt_irq_handler (void) __attribute__ ((section (".exceptions")));
void alt_irq_handler (void)
{
 80000fc:	defff904 	addi	sp,sp,-28
 8000100:	dfc00615 	stw	ra,24(sp)
 8000104:	df000515 	stw	fp,20(sp)
 8000108:	df000504 	addi	fp,sp,20
  
  /*
   * Notify the operating system that we are at interrupt level.
   */ 
  
  ALT_OS_INT_ENTER();
 800010c:	0001883a 	nop
#ifndef NIOS2_EIC_PRESENT
static ALT_INLINE alt_u32 ALT_ALWAYS_INLINE alt_irq_pending (void)
{
  alt_u32 active;

  NIOS2_READ_IPENDING (active);
 8000110:	0005313a 	rdctl	r2,ipending
 8000114:	e0bffe15 	stw	r2,-8(fp)

  return active;
 8000118:	e0bffe17 	ldw	r2,-8(fp)
   * Consider the case where the high priority interupt is asserted during
   * the interrupt entry sequence for a lower priority interrupt to see why
   * this is the case.
   */

  active = alt_irq_pending ();
 800011c:	e0bffb15 	stw	r2,-20(fp)

  do
  {
    i = 0;
 8000120:	e03ffd15 	stw	zero,-12(fp)
    mask = 1;
 8000124:	00800044 	movi	r2,1
 8000128:	e0bffc15 	stw	r2,-16(fp)
     * called to clear the interrupt condition.
     */

    do
    {
      if (active & mask)
 800012c:	e0fffb17 	ldw	r3,-20(fp)
 8000130:	e0bffc17 	ldw	r2,-16(fp)
 8000134:	1884703a 	and	r2,r3,r2
 8000138:	10001426 	beq	r2,zero,800018c <alt_irq_handler+0x90>
      { 
#ifdef ALT_ENHANCED_INTERRUPT_API_PRESENT
        alt_irq[i].handler(alt_irq[i].context); 
 800013c:	008200b4 	movhi	r2,2050
 8000140:	10a72c04 	addi	r2,r2,-25424
 8000144:	e0fffd17 	ldw	r3,-12(fp)
 8000148:	180690fa 	slli	r3,r3,3
 800014c:	10c5883a 	add	r2,r2,r3
 8000150:	10c00017 	ldw	r3,0(r2)
 8000154:	008200b4 	movhi	r2,2050
 8000158:	10a72c04 	addi	r2,r2,-25424
 800015c:	e13ffd17 	ldw	r4,-12(fp)
 8000160:	200890fa 	slli	r4,r4,3
 8000164:	1105883a 	add	r2,r2,r4
 8000168:	10800104 	addi	r2,r2,4
 800016c:	10800017 	ldw	r2,0(r2)
 8000170:	1009883a 	mov	r4,r2
 8000174:	183ee83a 	callr	r3
#else
        alt_irq[i].handler(alt_irq[i].context, i); 
#endif
        break;
 8000178:	0001883a 	nop
#ifndef NIOS2_EIC_PRESENT
static ALT_INLINE alt_u32 ALT_ALWAYS_INLINE alt_irq_pending (void)
{
  alt_u32 active;

  NIOS2_READ_IPENDING (active);
 800017c:	0005313a 	rdctl	r2,ipending
 8000180:	e0bfff15 	stw	r2,-4(fp)

  return active;
 8000184:	e0bfff17 	ldw	r2,-4(fp)
 8000188:	00000706 	br	80001a8 <alt_irq_handler+0xac>
      }
      mask <<= 1;
 800018c:	e0bffc17 	ldw	r2,-16(fp)
 8000190:	1085883a 	add	r2,r2,r2
 8000194:	e0bffc15 	stw	r2,-16(fp)
      i++;
 8000198:	e0bffd17 	ldw	r2,-12(fp)
 800019c:	10800044 	addi	r2,r2,1
 80001a0:	e0bffd15 	stw	r2,-12(fp)

    } while (1);
 80001a4:	003fe106 	br	800012c <__alt_data_end+0xf800012c>

    active = alt_irq_pending ();
 80001a8:	e0bffb15 	stw	r2,-20(fp)
    
  } while (active);
 80001ac:	e0bffb17 	ldw	r2,-20(fp)
 80001b0:	103fdb1e 	bne	r2,zero,8000120 <__alt_data_end+0xf8000120>

  /*
   * Notify the operating system that interrupt processing is complete.
   */ 

  ALT_OS_INT_EXIT();
 80001b4:	0001883a 	nop
}
 80001b8:	0001883a 	nop
 80001bc:	e037883a 	mov	sp,fp
 80001c0:	dfc00117 	ldw	ra,4(sp)
 80001c4:	df000017 	ldw	fp,0(sp)
 80001c8:	dec00204 	addi	sp,sp,8
 80001cc:	f800283a 	ret

080001d0 <alt_instruction_exception_entry>:
 * that handler if it has been registered. Absent a handler, it will
 * break break or hang as discussed below.
 */
int 
alt_instruction_exception_entry (alt_u32 exception_pc)
{
 80001d0:	defffb04 	addi	sp,sp,-20
 80001d4:	dfc00415 	stw	ra,16(sp)
 80001d8:	df000315 	stw	fp,12(sp)
 80001dc:	df000304 	addi	fp,sp,12
 80001e0:	e13fff15 	stw	r4,-4(fp)
 * NIOS2_EXCEPTION_CAUSE_NOT_PRESENT. Your handling routine should
 * check the validity of the cause argument before proceeding.
 */
#ifdef NIOS2_HAS_EXTRA_EXCEPTION_INFO
  /* Get exception cause & "badaddr" */
  NIOS2_READ_EXCEPTION(cause);
 80001e4:	000531fa 	rdctl	r2,exception
 80001e8:	e0bffd15 	stw	r2,-12(fp)
  cause = ( (cause & NIOS2_EXCEPTION_REG_CAUSE_MASK) >>
 80001ec:	e0bffd17 	ldw	r2,-12(fp)
 80001f0:	10801f0c 	andi	r2,r2,124
 80001f4:	1004d0ba 	srli	r2,r2,2
 80001f8:	e0bffd15 	stw	r2,-12(fp)
              NIOS2_EXCEPTION_REG_CAUSE_OFST );

  NIOS2_READ_BADADDR(badaddr);
 80001fc:	0005333a 	rdctl	r2,badaddr
 8000200:	e0bffe15 	stw	r2,-8(fp)
#else
  cause = NIOS2_EXCEPTION_CAUSE_NOT_PRESENT;
  badaddr = 0;
#endif /* NIOS2_HAS_EXTRA_EXCEPTION_INFO */

  if(alt_instruction_exception_handler) {
 8000204:	d0a6fc17 	ldw	r2,-25616(gp)
 8000208:	10000726 	beq	r2,zero,8000228 <alt_instruction_exception_entry+0x58>
     * Call handler. Its return value indicates whether the exception-causing
     * instruction should be re-issued. The code that called us,
     * alt_eceptions_entry.S, will look at this value and adjust the ea
     * register as necessary
     */
    return alt_instruction_exception_handler(cause, exception_pc, badaddr);
 800020c:	d0a6fc17 	ldw	r2,-25616(gp)
 8000210:	e0fffd17 	ldw	r3,-12(fp)
 8000214:	e1bffe17 	ldw	r6,-8(fp)
 8000218:	e17fff17 	ldw	r5,-4(fp)
 800021c:	1809883a 	mov	r4,r3
 8000220:	103ee83a 	callr	r2
 8000224:	00000206 	br	8000230 <alt_instruction_exception_entry+0x60>
   *    (a peripheral which negates its interrupt output before its
   *    interrupt handler has been executed will cause spurious interrupts)
   */
  else {
#ifdef NIOS2_HAS_DEBUG_STUB
    NIOS2_BREAK();
 8000228:	003da03a 	break	0
      ;
#endif /* NIOS2_HAS_DEBUG_STUB */
  }

  /* We should not get here. Remove compiler warning. */
  return NIOS2_EXCEPTION_RETURN_REISSUE_INST;
 800022c:	0005883a 	mov	r2,zero
}
 8000230:	e037883a 	mov	sp,fp
 8000234:	dfc00117 	ldw	ra,4(sp)
 8000238:	df000017 	ldw	fp,0(sp)
 800023c:	dec00204 	addi	sp,sp,8
 8000240:	f800283a 	ret

Disassembly of section .text:

08000244 <_start>:

    /* Assume the data cache size is always a power of two. */
#if NIOS2_DCACHE_SIZE > 0x8000
    movhi r2, %hi(NIOS2_DCACHE_SIZE)
#else
    movui r2, NIOS2_DCACHE_SIZE
 8000244:	00820014 	movui	r2,2048
#endif

0:
    initd 0(r2)
 8000248:	10000033 	initd	0(r2)
#ifdef NIOS2_ECC_PRESENT
    addi r2, r2, -4
#else
    addi r2, r2, -NIOS2_DCACHE_LINE_SIZE
 800024c:	10bff804 	addi	r2,r2,-32
#endif
    bgt r2, zero, 0b
 8000250:	00bffd16 	blt	zero,r2,8000248 <__alt_data_end+0xf8000248>

    /*
     * Now that the caches are initialized, set up the stack pointer and global pointer.
     * The values provided by the linker are assumed to be correctly aligned.
     */
    movhi sp, %hi(__alt_stack_pointer)
 8000254:	06c40034 	movhi	sp,4096
    ori sp, sp, %lo(__alt_stack_pointer)
 8000258:	dec00014 	ori	sp,sp,0
    movhi gp, %hi(_gp)
 800025c:	06820074 	movhi	gp,2049
    ori gp, gp, %lo(_gp)
 8000260:	d6becb14 	ori	gp,gp,64300
 */
#ifndef ALT_SIM_OPTIMIZE
    /* Log that the BSS is about to be cleared. */
    ALT_LOG_PUTS(alt_log_msg_bss)

    movhi r2, %hi(__bss_start)
 8000264:	00820074 	movhi	r2,2049
    ori r2, r2, %lo(__bss_start)
 8000268:	10a5ac14 	ori	r2,r2,38576

    movhi r3, %hi(__bss_end)
 800026c:	00c20074 	movhi	r3,2049
    ori r3, r3, %lo(__bss_end)
 8000270:	18e76c14 	ori	r3,r3,40368

    beq r2, r3, 1f
 8000274:	10c00326 	beq	r2,r3,8000284 <_start+0x40>

0:
    stw zero, (r2)
 8000278:	10000015 	stw	zero,0(r2)
    addi r2, r2, 4
 800027c:	10800104 	addi	r2,r2,4
    bltu r2, r3, 0b
 8000280:	10fffd36 	bltu	r2,r3,8000278 <__alt_data_end+0xf8000278>
     * section aren't defined until alt_load() has been called).
     */
    mov   et, zero
#endif

    call alt_load
 8000284:	800e7e80 	call	800e7e8 <alt_load>

    /* Log that alt_main is about to be called. */
    ALT_LOG_PUTS(alt_log_msg_alt_main)

    /* Call the C entry point. It should never return. */
    call alt_main
 8000288:	800e97c0 	call	800e97c <alt_main>

0800028c <alt_after_alt_main>:

    /* Wait in infinite loop in case alt_main does return. */
alt_after_alt_main:
    br alt_after_alt_main
 800028c:	003fff06 	br	800028c <__alt_data_end+0xf800028c>

08000290 <SD_init>:
int SD_read();
void SD_write(int);

//initializing SD card for read/write
void SD_init()
{
 8000290:	defffe04 	addi	sp,sp,-8
 8000294:	dfc00115 	stw	ra,4(sp)
 8000298:	df000015 	stw	fp,0(sp)
 800029c:	d839883a 	mov	fp,sp
	// device is named SD_Card in Qsys
	alt_up_sd_card_open_dev("/dev/SD_Card");
 80002a0:	01020074 	movhi	r4,2049
 80002a4:	21151c04 	addi	r4,r4,21616
 80002a8:	8011dc40 	call	8011dc4 <alt_up_sd_card_open_dev>
	if(alt_up_sd_card_is_FAT16())
 80002ac:	8011f440 	call	8011f44 <alt_up_sd_card_is_FAT16>
 80002b0:	10000326 	beq	r2,zero,80002c0 <SD_init+0x30>
		printf("Fat16 detected\n");
 80002b4:	01020074 	movhi	r4,2049
 80002b8:	21152004 	addi	r4,r4,21632
 80002bc:	8002a4c0 	call	8002a4c <puts>
}
 80002c0:	0001883a 	nop
 80002c4:	e037883a 	mov	sp,fp
 80002c8:	dfc00117 	ldw	ra,4(sp)
 80002cc:	df000017 	ldw	fp,0(sp)
 80002d0:	dec00204 	addi	sp,sp,8
 80002d4:	f800283a 	ret

080002d8 <read_file>:


void read_file(alt_up_sd_card_dev *device, const char *filename) {
 80002d8:	defff704 	addi	sp,sp,-36
 80002dc:	dfc00815 	stw	ra,32(sp)
 80002e0:	df000715 	stw	fp,28(sp)
 80002e4:	df000704 	addi	fp,sp,28
 80002e8:	e13ffe15 	stw	r4,-8(fp)
 80002ec:	e17fff15 	stw	r5,-4(fp)
    int connected = 0;
 80002f0:	e03ff915 	stw	zero,-28(fp)

    while (1) {
        if ((connected == 0) && (alt_up_sd_card_is_Present())) {
 80002f4:	e0bff917 	ldw	r2,-28(fp)
 80002f8:	10004b1e 	bne	r2,zero,8000428 <read_file+0x150>
 80002fc:	8011e800 	call	8011e80 <alt_up_sd_card_is_Present>
 8000300:	10004926 	beq	r2,zero,8000428 <read_file+0x150>
            printf("Card connected.\n");
 8000304:	01020074 	movhi	r4,2049
 8000308:	21152404 	addi	r4,r4,21648
 800030c:	8002a4c0 	call	8002a4c <puts>

            if (alt_up_sd_card_is_FAT16()) {
 8000310:	8011f440 	call	8011f44 <alt_up_sd_card_is_FAT16>
 8000314:	10003e26 	beq	r2,zero,8000410 <read_file+0x138>
                printf("FAT16 file system detected.\n");
 8000318:	01020074 	movhi	r4,2049
 800031c:	21152804 	addi	r4,r4,21664
 8000320:	8002a4c0 	call	8002a4c <puts>
                printf("Looking for file: '%s'\n", filename);
 8000324:	e17fff17 	ldw	r5,-4(fp)
 8000328:	01020074 	movhi	r4,2049
 800032c:	21152f04 	addi	r4,r4,21692
 8000330:	80029300 	call	8002930 <printf>

                char *firstFile = filename;
 8000334:	e0bfff17 	ldw	r2,-4(fp)
 8000338:	e0bffb15 	stw	r2,-20(fp)
                alt_up_sd_card_find_first(".", firstFile);
 800033c:	e17ffb17 	ldw	r5,-20(fp)
 8000340:	01020074 	movhi	r4,2049
 8000344:	21153504 	addi	r4,r4,21716
 8000348:	8011fb00 	call	8011fb0 <alt_up_sd_card_find_first>

                short file;
                while ((file = alt_up_sd_card_find_next(firstFile)) != -1) {
 800034c:	00002906 	br	80003f4 <read_file+0x11c>
                    int contentCount = 0;
 8000350:	e03ffa15 	stw	zero,-24(fp)
                    printf("===========================\n");
 8000354:	01020074 	movhi	r4,2049
 8000358:	21153604 	addi	r4,r4,21720
 800035c:	8002a4c0 	call	8002a4c <puts>
                    printf("Found file: '%s'\n", firstFile);
 8000360:	e17ffb17 	ldw	r5,-20(fp)
 8000364:	01020074 	movhi	r4,2049
 8000368:	21153d04 	addi	r4,r4,21748
 800036c:	80029300 	call	8002930 <printf>

                    short fileHandle = alt_up_sd_card_fopen(firstFile, false);
 8000370:	000b883a 	mov	r5,zero
 8000374:	e13ffb17 	ldw	r4,-20(fp)
 8000378:	80124400 	call	8012440 <alt_up_sd_card_fopen>
 800037c:	e0bffc8d 	sth	r2,-14(fp)
                    printf("File handle: %i\n", fileHandle);
 8000380:	e0bffc8f 	ldh	r2,-14(fp)
 8000384:	100b883a 	mov	r5,r2
 8000388:	01020074 	movhi	r4,2049
 800038c:	21154204 	addi	r4,r4,21768
 8000390:	80029300 	call	8002930 <printf>
                    printf("Contents:\n");
 8000394:	01020074 	movhi	r4,2049
 8000398:	21154704 	addi	r4,r4,21788
 800039c:	8002a4c0 	call	8002a4c <puts>

                    short int readCharacter;
                    while ((readCharacter = alt_up_sd_card_read(fileHandle)) != -1) {
 80003a0:	00000606 	br	80003bc <read_file+0xe4>
                        printf("%c", readCharacter);
 80003a4:	e0bffd0f 	ldh	r2,-12(fp)
 80003a8:	1009883a 	mov	r4,r2
 80003ac:	80029740 	call	8002974 <putchar>
                        ++contentCount;
 80003b0:	e0bffa17 	ldw	r2,-24(fp)
 80003b4:	10800044 	addi	r2,r2,1
 80003b8:	e0bffa15 	stw	r2,-24(fp)
                    short fileHandle = alt_up_sd_card_fopen(firstFile, false);
                    printf("File handle: %i\n", fileHandle);
                    printf("Contents:\n");

                    short int readCharacter;
                    while ((readCharacter = alt_up_sd_card_read(fileHandle)) != -1) {
 80003bc:	e0bffc8f 	ldh	r2,-14(fp)
 80003c0:	1009883a 	mov	r4,r2
 80003c4:	80128cc0 	call	80128cc <alt_up_sd_card_read>
 80003c8:	e0bffd0d 	sth	r2,-12(fp)
 80003cc:	e0bffd0f 	ldh	r2,-12(fp)
 80003d0:	10bfffd8 	cmpnei	r2,r2,-1
 80003d4:	103ff31e 	bne	r2,zero,80003a4 <__alt_data_end+0xf80003a4>
                        printf("%c", readCharacter);
                        ++contentCount;
                    }

                    printf("\nContent size: %i", contentCount);
 80003d8:	e17ffa17 	ldw	r5,-24(fp)
 80003dc:	01020074 	movhi	r4,2049
 80003e0:	21154a04 	addi	r4,r4,21800
 80003e4:	80029300 	call	8002930 <printf>
                    printf("\n===========================\n\n");
 80003e8:	01020074 	movhi	r4,2049
 80003ec:	21154f04 	addi	r4,r4,21820
 80003f0:	8002a4c0 	call	8002a4c <puts>

                char *firstFile = filename;
                alt_up_sd_card_find_first(".", firstFile);

                short file;
                while ((file = alt_up_sd_card_find_next(firstFile)) != -1) {
 80003f4:	e13ffb17 	ldw	r4,-20(fp)
 80003f8:	80120800 	call	8012080 <alt_up_sd_card_find_next>
 80003fc:	e0bffc0d 	sth	r2,-16(fp)
 8000400:	e0bffc0f 	ldh	r2,-16(fp)
 8000404:	10bfffd8 	cmpnei	r2,r2,-1
 8000408:	103fd11e 	bne	r2,zero,8000350 <__alt_data_end+0xf8000350>
 800040c:	00000306 	br	800041c <read_file+0x144>

                    printf("\nContent size: %i", contentCount);
                    printf("\n===========================\n\n");
                }
            } else {
                printf("Unknown file system.\n");
 8000410:	01020074 	movhi	r4,2049
 8000414:	21155704 	addi	r4,r4,21852
 8000418:	8002a4c0 	call	8002a4c <puts>
            }
            connected = 1;
 800041c:	00800044 	movi	r2,1
 8000420:	e0bff915 	stw	r2,-28(fp)
 8000424:	00000906 	br	800044c <read_file+0x174>
        } else if ((connected == 1) && (alt_up_sd_card_is_Present() == false)) {
 8000428:	e0bff917 	ldw	r2,-28(fp)
 800042c:	10800058 	cmpnei	r2,r2,1
 8000430:	103fb01e 	bne	r2,zero,80002f4 <__alt_data_end+0xf80002f4>
 8000434:	8011e800 	call	8011e80 <alt_up_sd_card_is_Present>
 8000438:	103fae1e 	bne	r2,zero,80002f4 <__alt_data_end+0xf80002f4>
            printf("Card disconnected.\n");
 800043c:	01020074 	movhi	r4,2049
 8000440:	21155d04 	addi	r4,r4,21876
 8000444:	8002a4c0 	call	8002a4c <puts>
            connected = 0;
 8000448:	e03ff915 	stw	zero,-28(fp)
        }
    }
 800044c:	003fa906 	br	80002f4 <__alt_data_end+0xf80002f4>

08000450 <init_SD_card>:
}


alt_up_sd_card_dev *init_SD_card(void) {
 8000450:	defffd04 	addi	sp,sp,-12
 8000454:	dfc00215 	stw	ra,8(sp)
 8000458:	df000115 	stw	fp,4(sp)
 800045c:	df000104 	addi	fp,sp,4
    alt_up_sd_card_dev *device = alt_up_sd_card_open_dev("/dev/SD_Card");
 8000460:	01020074 	movhi	r4,2049
 8000464:	21151c04 	addi	r4,r4,21616
 8000468:	8011dc40 	call	8011dc4 <alt_up_sd_card_open_dev>
 800046c:	e0bfff15 	stw	r2,-4(fp)
    if (device != NULL) {
 8000470:	e0bfff17 	ldw	r2,-4(fp)
 8000474:	10000526 	beq	r2,zero,800048c <init_SD_card+0x3c>
        printf("Initialized. Waiting for SD card...\n");
 8000478:	01020074 	movhi	r4,2049
 800047c:	21156204 	addi	r4,r4,21896
 8000480:	8002a4c0 	call	8002a4c <puts>
        return device;
 8000484:	e0bfff17 	ldw	r2,-4(fp)
 8000488:	00000406 	br	800049c <init_SD_card+0x4c>
    } else {
        printf("Initialization failed.\n");
 800048c:	01020074 	movhi	r4,2049
 8000490:	21156b04 	addi	r4,r4,21932
 8000494:	8002a4c0 	call	8002a4c <puts>
        return NULL;
 8000498:	0005883a 	mov	r2,zero
    }
}
 800049c:	e037883a 	mov	sp,fp
 80004a0:	dfc00117 	ldw	ra,4(sp)
 80004a4:	df000017 	ldw	fp,0(sp)
 80004a8:	dec00204 	addi	sp,sp,8
 80004ac:	f800283a 	ret

080004b0 <SD_read>:
}

*/
//read SD card
int SD_read()
{
 80004b0:	defffc04 	addi	sp,sp,-16
 80004b4:	dfc00315 	stw	ra,12(sp)
 80004b8:	df000215 	stw	fp,8(sp)
 80004bc:	df000204 	addi	fp,sp,8
	int retval;
	char zero = '0';
 80004c0:	00800c04 	movi	r2,48
 80004c4:	e0bffe05 	stb	r2,-8(fp)
	char temp;
	temp = alt_up_sd_card_read(tfile);
 80004c8:	d0a6e10b 	ldhu	r2,-25724(gp)
 80004cc:	10bfffcc 	andi	r2,r2,65535
 80004d0:	10a0001c 	xori	r2,r2,32768
 80004d4:	10a00004 	addi	r2,r2,-32768
 80004d8:	1009883a 	mov	r4,r2
 80004dc:	80128cc0 	call	80128cc <alt_up_sd_card_read>
 80004e0:	e0bffe45 	stb	r2,-7(fp)
	retval = temp - zero;
 80004e4:	e0fffe47 	ldb	r3,-7(fp)
 80004e8:	e0bffe07 	ldb	r2,-8(fp)
 80004ec:	1885c83a 	sub	r2,r3,r2
 80004f0:	e0bfff15 	stw	r2,-4(fp)
	return retval;
 80004f4:	e0bfff17 	ldw	r2,-4(fp)
}
 80004f8:	e037883a 	mov	sp,fp
 80004fc:	dfc00117 	ldw	ra,4(sp)
 8000500:	df000017 	ldw	fp,0(sp)
 8000504:	dec00204 	addi	sp,sp,8
 8000508:	f800283a 	ret

0800050c <SD_write>:

//write SD card
void SD_write(int in)
{
 800050c:	defffc04 	addi	sp,sp,-16
 8000510:	dfc00315 	stw	ra,12(sp)
 8000514:	df000215 	stw	fp,8(sp)
 8000518:	df000204 	addi	fp,sp,8
 800051c:	e13fff15 	stw	r4,-4(fp)
	char zero = '0';
 8000520:	00800c04 	movi	r2,48
 8000524:	e0bffe05 	stb	r2,-8(fp)
	char intchar;
	intchar = in + zero;
 8000528:	e0bfff17 	ldw	r2,-4(fp)
 800052c:	1007883a 	mov	r3,r2
 8000530:	e0bffe03 	ldbu	r2,-8(fp)
 8000534:	1885883a 	add	r2,r3,r2
 8000538:	e0bffe45 	stb	r2,-7(fp)
	alt_up_sd_card_write(tfile, intchar);
 800053c:	d0a6e10b 	ldhu	r2,-25724(gp)
 8000540:	10bfffcc 	andi	r2,r2,65535
 8000544:	10a0001c 	xori	r2,r2,32768
 8000548:	10a00004 	addi	r2,r2,-32768
 800054c:	e0fffe47 	ldb	r3,-7(fp)
 8000550:	180b883a 	mov	r5,r3
 8000554:	1009883a 	mov	r4,r2
 8000558:	8012c440 	call	8012c44 <alt_up_sd_card_write>
}
 800055c:	0001883a 	nop
 8000560:	e037883a 	mov	sp,fp
 8000564:	dfc00117 	ldw	ra,4(sp)
 8000568:	df000017 	ldw	fp,0(sp)
 800056c:	dec00204 	addi	sp,sp,8
 8000570:	f800283a 	ret

08000574 <read_sector>:


#define SECTOR_SIZE 512

// Function to read a sector from the SD card
int read_sector(const char *file_path, int sector_number, char *buffer) {
 8000574:	defff904 	addi	sp,sp,-28
 8000578:	dfc00615 	stw	ra,24(sp)
 800057c:	df000515 	stw	fp,20(sp)
 8000580:	df000504 	addi	fp,sp,20
 8000584:	e13ffd15 	stw	r4,-12(fp)
 8000588:	e17ffe15 	stw	r5,-8(fp)
 800058c:	e1bfff15 	stw	r6,-4(fp)
    FILE *file = fopen(file_path, "rb");
 8000590:	01420074 	movhi	r5,2049
 8000594:	29557104 	addi	r5,r5,21956
 8000598:	e13ffd17 	ldw	r4,-12(fp)
 800059c:	8000ec40 	call	8000ec4 <fopen>
 80005a0:	e0bffb15 	stw	r2,-20(fp)

    if (file == NULL) {
 80005a4:	e0bffb17 	ldw	r2,-20(fp)
 80005a8:	1000051e 	bne	r2,zero,80005c0 <read_sector+0x4c>
        perror("Error opening file");
 80005ac:	01020074 	movhi	r4,2049
 80005b0:	21157204 	addi	r4,r4,21960
 80005b4:	80028ec0 	call	80028ec <perror>
        return -1;
 80005b8:	00bfffc4 	movi	r2,-1
 80005bc:	00001706 	br	800061c <read_sector+0xa8>
    }

    // Seek to the specified sector
    fseek(file, sector_number * SECTOR_SIZE, SEEK_SET);
 80005c0:	e0bffe17 	ldw	r2,-8(fp)
 80005c4:	1004927a 	slli	r2,r2,9
 80005c8:	000d883a 	mov	r6,zero
 80005cc:	100b883a 	mov	r5,r2
 80005d0:	e13ffb17 	ldw	r4,-20(fp)
 80005d4:	80015740 	call	8001574 <fseek>

    // Read the sector into the buffer
    size_t bytesRead = fread(buffer, 1, SECTOR_SIZE, file);
 80005d8:	e1fffb17 	ldw	r7,-20(fp)
 80005dc:	01808004 	movi	r6,512
 80005e0:	01400044 	movi	r5,1
 80005e4:	e13fff17 	ldw	r4,-4(fp)
 80005e8:	80011080 	call	8001108 <fread>
 80005ec:	e0bffc15 	stw	r2,-16(fp)

    fclose(file);
 80005f0:	e13ffb17 	ldw	r4,-20(fp)
 80005f4:	80007740 	call	8000774 <fclose>

    if (bytesRead != SECTOR_SIZE) {
 80005f8:	e0bffc17 	ldw	r2,-16(fp)
 80005fc:	10808020 	cmpeqi	r2,r2,512
 8000600:	1000051e 	bne	r2,zero,8000618 <read_sector+0xa4>
        perror("Error reading sector");
 8000604:	01020074 	movhi	r4,2049
 8000608:	21157704 	addi	r4,r4,21980
 800060c:	80028ec0 	call	80028ec <perror>
        return -1;
 8000610:	00bfffc4 	movi	r2,-1
 8000614:	00000106 	br	800061c <read_sector+0xa8>
    }

    return 0;
 8000618:	0005883a 	mov	r2,zero
}
 800061c:	e037883a 	mov	sp,fp
 8000620:	dfc00117 	ldw	ra,4(sp)
 8000624:	df000017 	ldw	fp,0(sp)
 8000628:	dec00204 	addi	sp,sp,8
 800062c:	f800283a 	ret

08000630 <main>:

int main() {
 8000630:	defffd04 	addi	sp,sp,-12
 8000634:	dfc00215 	stw	ra,8(sp)
 8000638:	df000115 	stw	fp,4(sp)
 800063c:	df000104 	addi	fp,sp,4
        }
        printf("\n");
    }
	*/

	alt_up_sd_card_dev *device = init_SD_card();
 8000640:	80004500 	call	8000450 <init_SD_card>
 8000644:	e0bfff15 	stw	r2,-4(fp)

	if (device != NULL) {
 8000648:	e0bfff17 	ldw	r2,-4(fp)
 800064c:	10000426 	beq	r2,zero,8000660 <main+0x30>
		read_file(device, "test.txt");
 8000650:	01420074 	movhi	r5,2049
 8000654:	29557d04 	addi	r5,r5,22004
 8000658:	e13fff17 	ldw	r4,-4(fp)
 800065c:	80002d80 	call	80002d8 <read_file>
	}
	printf("Done\n");
 8000660:	01020074 	movhi	r4,2049
 8000664:	21158004 	addi	r4,r4,22016
 8000668:	8002a4c0 	call	8002a4c <puts>

	//init_SD_and_load_file();
    return 0;
 800066c:	0005883a 	mov	r2,zero
}
 8000670:	e037883a 	mov	sp,fp
 8000674:	dfc00117 	ldw	ra,4(sp)
 8000678:	df000017 	ldw	fp,0(sp)
 800067c:	dec00204 	addi	sp,sp,8
 8000680:	f800283a 	ret

08000684 <_fclose_r>:
 8000684:	28003926 	beq	r5,zero,800076c <_fclose_r+0xe8>
 8000688:	defffc04 	addi	sp,sp,-16
 800068c:	dc400115 	stw	r17,4(sp)
 8000690:	dc000015 	stw	r16,0(sp)
 8000694:	dfc00315 	stw	ra,12(sp)
 8000698:	dc800215 	stw	r18,8(sp)
 800069c:	2023883a 	mov	r17,r4
 80006a0:	2821883a 	mov	r16,r5
 80006a4:	20000226 	beq	r4,zero,80006b0 <_fclose_r+0x2c>
 80006a8:	20800e17 	ldw	r2,56(r4)
 80006ac:	10002726 	beq	r2,zero,800074c <_fclose_r+0xc8>
 80006b0:	8080030f 	ldh	r2,12(r16)
 80006b4:	1000071e 	bne	r2,zero,80006d4 <_fclose_r+0x50>
 80006b8:	0005883a 	mov	r2,zero
 80006bc:	dfc00317 	ldw	ra,12(sp)
 80006c0:	dc800217 	ldw	r18,8(sp)
 80006c4:	dc400117 	ldw	r17,4(sp)
 80006c8:	dc000017 	ldw	r16,0(sp)
 80006cc:	dec00404 	addi	sp,sp,16
 80006d0:	f800283a 	ret
 80006d4:	800b883a 	mov	r5,r16
 80006d8:	8809883a 	mov	r4,r17
 80006dc:	80007880 	call	8000788 <__sflush_r>
 80006e0:	1025883a 	mov	r18,r2
 80006e4:	80800b17 	ldw	r2,44(r16)
 80006e8:	10000426 	beq	r2,zero,80006fc <_fclose_r+0x78>
 80006ec:	81400717 	ldw	r5,28(r16)
 80006f0:	8809883a 	mov	r4,r17
 80006f4:	103ee83a 	callr	r2
 80006f8:	10001616 	blt	r2,zero,8000754 <_fclose_r+0xd0>
 80006fc:	8080030b 	ldhu	r2,12(r16)
 8000700:	1080200c 	andi	r2,r2,128
 8000704:	1000151e 	bne	r2,zero,800075c <_fclose_r+0xd8>
 8000708:	81400c17 	ldw	r5,48(r16)
 800070c:	28000526 	beq	r5,zero,8000724 <_fclose_r+0xa0>
 8000710:	80801004 	addi	r2,r16,64
 8000714:	28800226 	beq	r5,r2,8000720 <_fclose_r+0x9c>
 8000718:	8809883a 	mov	r4,r17
 800071c:	80012600 	call	8001260 <_free_r>
 8000720:	80000c15 	stw	zero,48(r16)
 8000724:	81401117 	ldw	r5,68(r16)
 8000728:	28000326 	beq	r5,zero,8000738 <_fclose_r+0xb4>
 800072c:	8809883a 	mov	r4,r17
 8000730:	80012600 	call	8001260 <_free_r>
 8000734:	80001115 	stw	zero,68(r16)
 8000738:	8000d900 	call	8000d90 <__sfp_lock_acquire>
 800073c:	8000030d 	sth	zero,12(r16)
 8000740:	8000d940 	call	8000d94 <__sfp_lock_release>
 8000744:	9005883a 	mov	r2,r18
 8000748:	003fdc06 	br	80006bc <__alt_data_end+0xf80006bc>
 800074c:	8000d800 	call	8000d80 <__sinit>
 8000750:	003fd706 	br	80006b0 <__alt_data_end+0xf80006b0>
 8000754:	04bfffc4 	movi	r18,-1
 8000758:	003fe806 	br	80006fc <__alt_data_end+0xf80006fc>
 800075c:	81400417 	ldw	r5,16(r16)
 8000760:	8809883a 	mov	r4,r17
 8000764:	80012600 	call	8001260 <_free_r>
 8000768:	003fe706 	br	8000708 <__alt_data_end+0xf8000708>
 800076c:	0005883a 	mov	r2,zero
 8000770:	f800283a 	ret

08000774 <fclose>:
 8000774:	00820074 	movhi	r2,2049
 8000778:	109ecc04 	addi	r2,r2,31536
 800077c:	200b883a 	mov	r5,r4
 8000780:	11000017 	ldw	r4,0(r2)
 8000784:	80006841 	jmpi	8000684 <_fclose_r>

08000788 <__sflush_r>:
 8000788:	2880030b 	ldhu	r2,12(r5)
 800078c:	defffb04 	addi	sp,sp,-20
 8000790:	dcc00315 	stw	r19,12(sp)
 8000794:	dc400115 	stw	r17,4(sp)
 8000798:	dfc00415 	stw	ra,16(sp)
 800079c:	dc800215 	stw	r18,8(sp)
 80007a0:	dc000015 	stw	r16,0(sp)
 80007a4:	10c0020c 	andi	r3,r2,8
 80007a8:	2823883a 	mov	r17,r5
 80007ac:	2027883a 	mov	r19,r4
 80007b0:	1800311e 	bne	r3,zero,8000878 <__sflush_r+0xf0>
 80007b4:	28c00117 	ldw	r3,4(r5)
 80007b8:	10820014 	ori	r2,r2,2048
 80007bc:	2880030d 	sth	r2,12(r5)
 80007c0:	00c04b0e 	bge	zero,r3,80008f0 <__sflush_r+0x168>
 80007c4:	8a000a17 	ldw	r8,40(r17)
 80007c8:	40002326 	beq	r8,zero,8000858 <__sflush_r+0xd0>
 80007cc:	9c000017 	ldw	r16,0(r19)
 80007d0:	10c4000c 	andi	r3,r2,4096
 80007d4:	98000015 	stw	zero,0(r19)
 80007d8:	18004826 	beq	r3,zero,80008fc <__sflush_r+0x174>
 80007dc:	89801417 	ldw	r6,80(r17)
 80007e0:	10c0010c 	andi	r3,r2,4
 80007e4:	18000626 	beq	r3,zero,8000800 <__sflush_r+0x78>
 80007e8:	88c00117 	ldw	r3,4(r17)
 80007ec:	88800c17 	ldw	r2,48(r17)
 80007f0:	30cdc83a 	sub	r6,r6,r3
 80007f4:	10000226 	beq	r2,zero,8000800 <__sflush_r+0x78>
 80007f8:	88800f17 	ldw	r2,60(r17)
 80007fc:	308dc83a 	sub	r6,r6,r2
 8000800:	89400717 	ldw	r5,28(r17)
 8000804:	000f883a 	mov	r7,zero
 8000808:	9809883a 	mov	r4,r19
 800080c:	403ee83a 	callr	r8
 8000810:	00ffffc4 	movi	r3,-1
 8000814:	10c04426 	beq	r2,r3,8000928 <__sflush_r+0x1a0>
 8000818:	88c0030b 	ldhu	r3,12(r17)
 800081c:	89000417 	ldw	r4,16(r17)
 8000820:	88000115 	stw	zero,4(r17)
 8000824:	197dffcc 	andi	r5,r3,63487
 8000828:	8940030d 	sth	r5,12(r17)
 800082c:	89000015 	stw	r4,0(r17)
 8000830:	18c4000c 	andi	r3,r3,4096
 8000834:	18002c1e 	bne	r3,zero,80008e8 <__sflush_r+0x160>
 8000838:	89400c17 	ldw	r5,48(r17)
 800083c:	9c000015 	stw	r16,0(r19)
 8000840:	28000526 	beq	r5,zero,8000858 <__sflush_r+0xd0>
 8000844:	88801004 	addi	r2,r17,64
 8000848:	28800226 	beq	r5,r2,8000854 <__sflush_r+0xcc>
 800084c:	9809883a 	mov	r4,r19
 8000850:	80012600 	call	8001260 <_free_r>
 8000854:	88000c15 	stw	zero,48(r17)
 8000858:	0005883a 	mov	r2,zero
 800085c:	dfc00417 	ldw	ra,16(sp)
 8000860:	dcc00317 	ldw	r19,12(sp)
 8000864:	dc800217 	ldw	r18,8(sp)
 8000868:	dc400117 	ldw	r17,4(sp)
 800086c:	dc000017 	ldw	r16,0(sp)
 8000870:	dec00504 	addi	sp,sp,20
 8000874:	f800283a 	ret
 8000878:	2c800417 	ldw	r18,16(r5)
 800087c:	903ff626 	beq	r18,zero,8000858 <__alt_data_end+0xf8000858>
 8000880:	2c000017 	ldw	r16,0(r5)
 8000884:	108000cc 	andi	r2,r2,3
 8000888:	2c800015 	stw	r18,0(r5)
 800088c:	84a1c83a 	sub	r16,r16,r18
 8000890:	1000131e 	bne	r2,zero,80008e0 <__sflush_r+0x158>
 8000894:	28800517 	ldw	r2,20(r5)
 8000898:	88800215 	stw	r2,8(r17)
 800089c:	04000316 	blt	zero,r16,80008ac <__sflush_r+0x124>
 80008a0:	003fed06 	br	8000858 <__alt_data_end+0xf8000858>
 80008a4:	90a5883a 	add	r18,r18,r2
 80008a8:	043feb0e 	bge	zero,r16,8000858 <__alt_data_end+0xf8000858>
 80008ac:	88800917 	ldw	r2,36(r17)
 80008b0:	89400717 	ldw	r5,28(r17)
 80008b4:	800f883a 	mov	r7,r16
 80008b8:	900d883a 	mov	r6,r18
 80008bc:	9809883a 	mov	r4,r19
 80008c0:	103ee83a 	callr	r2
 80008c4:	80a1c83a 	sub	r16,r16,r2
 80008c8:	00bff616 	blt	zero,r2,80008a4 <__alt_data_end+0xf80008a4>
 80008cc:	88c0030b 	ldhu	r3,12(r17)
 80008d0:	00bfffc4 	movi	r2,-1
 80008d4:	18c01014 	ori	r3,r3,64
 80008d8:	88c0030d 	sth	r3,12(r17)
 80008dc:	003fdf06 	br	800085c <__alt_data_end+0xf800085c>
 80008e0:	0005883a 	mov	r2,zero
 80008e4:	003fec06 	br	8000898 <__alt_data_end+0xf8000898>
 80008e8:	88801415 	stw	r2,80(r17)
 80008ec:	003fd206 	br	8000838 <__alt_data_end+0xf8000838>
 80008f0:	28c00f17 	ldw	r3,60(r5)
 80008f4:	00ffb316 	blt	zero,r3,80007c4 <__alt_data_end+0xf80007c4>
 80008f8:	003fd706 	br	8000858 <__alt_data_end+0xf8000858>
 80008fc:	89400717 	ldw	r5,28(r17)
 8000900:	000d883a 	mov	r6,zero
 8000904:	01c00044 	movi	r7,1
 8000908:	9809883a 	mov	r4,r19
 800090c:	403ee83a 	callr	r8
 8000910:	100d883a 	mov	r6,r2
 8000914:	00bfffc4 	movi	r2,-1
 8000918:	30801426 	beq	r6,r2,800096c <__sflush_r+0x1e4>
 800091c:	8880030b 	ldhu	r2,12(r17)
 8000920:	8a000a17 	ldw	r8,40(r17)
 8000924:	003fae06 	br	80007e0 <__alt_data_end+0xf80007e0>
 8000928:	98c00017 	ldw	r3,0(r19)
 800092c:	183fba26 	beq	r3,zero,8000818 <__alt_data_end+0xf8000818>
 8000930:	01000744 	movi	r4,29
 8000934:	19000626 	beq	r3,r4,8000950 <__sflush_r+0x1c8>
 8000938:	01000584 	movi	r4,22
 800093c:	19000426 	beq	r3,r4,8000950 <__sflush_r+0x1c8>
 8000940:	88c0030b 	ldhu	r3,12(r17)
 8000944:	18c01014 	ori	r3,r3,64
 8000948:	88c0030d 	sth	r3,12(r17)
 800094c:	003fc306 	br	800085c <__alt_data_end+0xf800085c>
 8000950:	8880030b 	ldhu	r2,12(r17)
 8000954:	88c00417 	ldw	r3,16(r17)
 8000958:	88000115 	stw	zero,4(r17)
 800095c:	10bdffcc 	andi	r2,r2,63487
 8000960:	8880030d 	sth	r2,12(r17)
 8000964:	88c00015 	stw	r3,0(r17)
 8000968:	003fb306 	br	8000838 <__alt_data_end+0xf8000838>
 800096c:	98800017 	ldw	r2,0(r19)
 8000970:	103fea26 	beq	r2,zero,800091c <__alt_data_end+0xf800091c>
 8000974:	00c00744 	movi	r3,29
 8000978:	10c00226 	beq	r2,r3,8000984 <__sflush_r+0x1fc>
 800097c:	00c00584 	movi	r3,22
 8000980:	10c0031e 	bne	r2,r3,8000990 <__sflush_r+0x208>
 8000984:	9c000015 	stw	r16,0(r19)
 8000988:	0005883a 	mov	r2,zero
 800098c:	003fb306 	br	800085c <__alt_data_end+0xf800085c>
 8000990:	88c0030b 	ldhu	r3,12(r17)
 8000994:	3005883a 	mov	r2,r6
 8000998:	18c01014 	ori	r3,r3,64
 800099c:	88c0030d 	sth	r3,12(r17)
 80009a0:	003fae06 	br	800085c <__alt_data_end+0xf800085c>

080009a4 <_fflush_r>:
 80009a4:	defffd04 	addi	sp,sp,-12
 80009a8:	dc000115 	stw	r16,4(sp)
 80009ac:	dfc00215 	stw	ra,8(sp)
 80009b0:	2021883a 	mov	r16,r4
 80009b4:	20000226 	beq	r4,zero,80009c0 <_fflush_r+0x1c>
 80009b8:	20800e17 	ldw	r2,56(r4)
 80009bc:	10000c26 	beq	r2,zero,80009f0 <_fflush_r+0x4c>
 80009c0:	2880030f 	ldh	r2,12(r5)
 80009c4:	1000051e 	bne	r2,zero,80009dc <_fflush_r+0x38>
 80009c8:	0005883a 	mov	r2,zero
 80009cc:	dfc00217 	ldw	ra,8(sp)
 80009d0:	dc000117 	ldw	r16,4(sp)
 80009d4:	dec00304 	addi	sp,sp,12
 80009d8:	f800283a 	ret
 80009dc:	8009883a 	mov	r4,r16
 80009e0:	dfc00217 	ldw	ra,8(sp)
 80009e4:	dc000117 	ldw	r16,4(sp)
 80009e8:	dec00304 	addi	sp,sp,12
 80009ec:	80007881 	jmpi	8000788 <__sflush_r>
 80009f0:	d9400015 	stw	r5,0(sp)
 80009f4:	8000d800 	call	8000d80 <__sinit>
 80009f8:	d9400017 	ldw	r5,0(sp)
 80009fc:	003ff006 	br	80009c0 <__alt_data_end+0xf80009c0>

08000a00 <fflush>:
 8000a00:	20000526 	beq	r4,zero,8000a18 <fflush+0x18>
 8000a04:	00820074 	movhi	r2,2049
 8000a08:	109ecc04 	addi	r2,r2,31536
 8000a0c:	200b883a 	mov	r5,r4
 8000a10:	11000017 	ldw	r4,0(r2)
 8000a14:	80009a41 	jmpi	80009a4 <_fflush_r>
 8000a18:	00820074 	movhi	r2,2049
 8000a1c:	109ecb04 	addi	r2,r2,31532
 8000a20:	11000017 	ldw	r4,0(r2)
 8000a24:	01420034 	movhi	r5,2048
 8000a28:	29426904 	addi	r5,r5,2468
 8000a2c:	8001b101 	jmpi	8001b10 <_fwalk_reent>

08000a30 <__fp_unlock>:
 8000a30:	0005883a 	mov	r2,zero
 8000a34:	f800283a 	ret

08000a38 <_cleanup_r>:
 8000a38:	01420034 	movhi	r5,2048
 8000a3c:	2941a104 	addi	r5,r5,1668
 8000a40:	8001b101 	jmpi	8001b10 <_fwalk_reent>

08000a44 <__sinit.part.1>:
 8000a44:	defff704 	addi	sp,sp,-36
 8000a48:	00c20034 	movhi	r3,2048
 8000a4c:	dfc00815 	stw	ra,32(sp)
 8000a50:	ddc00715 	stw	r23,28(sp)
 8000a54:	dd800615 	stw	r22,24(sp)
 8000a58:	dd400515 	stw	r21,20(sp)
 8000a5c:	dd000415 	stw	r20,16(sp)
 8000a60:	dcc00315 	stw	r19,12(sp)
 8000a64:	dc800215 	stw	r18,8(sp)
 8000a68:	dc400115 	stw	r17,4(sp)
 8000a6c:	dc000015 	stw	r16,0(sp)
 8000a70:	18c28e04 	addi	r3,r3,2616
 8000a74:	24000117 	ldw	r16,4(r4)
 8000a78:	20c00f15 	stw	r3,60(r4)
 8000a7c:	2080bb04 	addi	r2,r4,748
 8000a80:	00c000c4 	movi	r3,3
 8000a84:	20c0b915 	stw	r3,740(r4)
 8000a88:	2080ba15 	stw	r2,744(r4)
 8000a8c:	2000b815 	stw	zero,736(r4)
 8000a90:	05c00204 	movi	r23,8
 8000a94:	00800104 	movi	r2,4
 8000a98:	2025883a 	mov	r18,r4
 8000a9c:	b80d883a 	mov	r6,r23
 8000aa0:	81001704 	addi	r4,r16,92
 8000aa4:	000b883a 	mov	r5,zero
 8000aa8:	80000015 	stw	zero,0(r16)
 8000aac:	80000115 	stw	zero,4(r16)
 8000ab0:	80000215 	stw	zero,8(r16)
 8000ab4:	8080030d 	sth	r2,12(r16)
 8000ab8:	80001915 	stw	zero,100(r16)
 8000abc:	8000038d 	sth	zero,14(r16)
 8000ac0:	80000415 	stw	zero,16(r16)
 8000ac4:	80000515 	stw	zero,20(r16)
 8000ac8:	80000615 	stw	zero,24(r16)
 8000acc:	80026e40 	call	80026e4 <memset>
 8000ad0:	05820034 	movhi	r22,2048
 8000ad4:	94400217 	ldw	r17,8(r18)
 8000ad8:	05420034 	movhi	r21,2048
 8000adc:	05020034 	movhi	r20,2048
 8000ae0:	04c20034 	movhi	r19,2048
 8000ae4:	b58b2904 	addi	r22,r22,11428
 8000ae8:	ad4b4004 	addi	r21,r21,11520
 8000aec:	a50b5f04 	addi	r20,r20,11644
 8000af0:	9ccb7604 	addi	r19,r19,11736
 8000af4:	85800815 	stw	r22,32(r16)
 8000af8:	85400915 	stw	r21,36(r16)
 8000afc:	85000a15 	stw	r20,40(r16)
 8000b00:	84c00b15 	stw	r19,44(r16)
 8000b04:	84000715 	stw	r16,28(r16)
 8000b08:	00800284 	movi	r2,10
 8000b0c:	8880030d 	sth	r2,12(r17)
 8000b10:	00800044 	movi	r2,1
 8000b14:	b80d883a 	mov	r6,r23
 8000b18:	89001704 	addi	r4,r17,92
 8000b1c:	000b883a 	mov	r5,zero
 8000b20:	88000015 	stw	zero,0(r17)
 8000b24:	88000115 	stw	zero,4(r17)
 8000b28:	88000215 	stw	zero,8(r17)
 8000b2c:	88001915 	stw	zero,100(r17)
 8000b30:	8880038d 	sth	r2,14(r17)
 8000b34:	88000415 	stw	zero,16(r17)
 8000b38:	88000515 	stw	zero,20(r17)
 8000b3c:	88000615 	stw	zero,24(r17)
 8000b40:	80026e40 	call	80026e4 <memset>
 8000b44:	94000317 	ldw	r16,12(r18)
 8000b48:	00800484 	movi	r2,18
 8000b4c:	8c400715 	stw	r17,28(r17)
 8000b50:	8d800815 	stw	r22,32(r17)
 8000b54:	8d400915 	stw	r21,36(r17)
 8000b58:	8d000a15 	stw	r20,40(r17)
 8000b5c:	8cc00b15 	stw	r19,44(r17)
 8000b60:	8080030d 	sth	r2,12(r16)
 8000b64:	00800084 	movi	r2,2
 8000b68:	80000015 	stw	zero,0(r16)
 8000b6c:	80000115 	stw	zero,4(r16)
 8000b70:	80000215 	stw	zero,8(r16)
 8000b74:	80001915 	stw	zero,100(r16)
 8000b78:	8080038d 	sth	r2,14(r16)
 8000b7c:	80000415 	stw	zero,16(r16)
 8000b80:	80000515 	stw	zero,20(r16)
 8000b84:	80000615 	stw	zero,24(r16)
 8000b88:	b80d883a 	mov	r6,r23
 8000b8c:	000b883a 	mov	r5,zero
 8000b90:	81001704 	addi	r4,r16,92
 8000b94:	80026e40 	call	80026e4 <memset>
 8000b98:	00800044 	movi	r2,1
 8000b9c:	84000715 	stw	r16,28(r16)
 8000ba0:	85800815 	stw	r22,32(r16)
 8000ba4:	85400915 	stw	r21,36(r16)
 8000ba8:	85000a15 	stw	r20,40(r16)
 8000bac:	84c00b15 	stw	r19,44(r16)
 8000bb0:	90800e15 	stw	r2,56(r18)
 8000bb4:	dfc00817 	ldw	ra,32(sp)
 8000bb8:	ddc00717 	ldw	r23,28(sp)
 8000bbc:	dd800617 	ldw	r22,24(sp)
 8000bc0:	dd400517 	ldw	r21,20(sp)
 8000bc4:	dd000417 	ldw	r20,16(sp)
 8000bc8:	dcc00317 	ldw	r19,12(sp)
 8000bcc:	dc800217 	ldw	r18,8(sp)
 8000bd0:	dc400117 	ldw	r17,4(sp)
 8000bd4:	dc000017 	ldw	r16,0(sp)
 8000bd8:	dec00904 	addi	sp,sp,36
 8000bdc:	f800283a 	ret

08000be0 <__fp_lock>:
 8000be0:	0005883a 	mov	r2,zero
 8000be4:	f800283a 	ret

08000be8 <__sfmoreglue>:
 8000be8:	defffc04 	addi	sp,sp,-16
 8000bec:	dc400115 	stw	r17,4(sp)
 8000bf0:	2c7fffc4 	addi	r17,r5,-1
 8000bf4:	8c401a24 	muli	r17,r17,104
 8000bf8:	dc800215 	stw	r18,8(sp)
 8000bfc:	2825883a 	mov	r18,r5
 8000c00:	89401d04 	addi	r5,r17,116
 8000c04:	dc000015 	stw	r16,0(sp)
 8000c08:	dfc00315 	stw	ra,12(sp)
 8000c0c:	8001d900 	call	8001d90 <_malloc_r>
 8000c10:	1021883a 	mov	r16,r2
 8000c14:	10000726 	beq	r2,zero,8000c34 <__sfmoreglue+0x4c>
 8000c18:	11000304 	addi	r4,r2,12
 8000c1c:	10000015 	stw	zero,0(r2)
 8000c20:	14800115 	stw	r18,4(r2)
 8000c24:	11000215 	stw	r4,8(r2)
 8000c28:	89801a04 	addi	r6,r17,104
 8000c2c:	000b883a 	mov	r5,zero
 8000c30:	80026e40 	call	80026e4 <memset>
 8000c34:	8005883a 	mov	r2,r16
 8000c38:	dfc00317 	ldw	ra,12(sp)
 8000c3c:	dc800217 	ldw	r18,8(sp)
 8000c40:	dc400117 	ldw	r17,4(sp)
 8000c44:	dc000017 	ldw	r16,0(sp)
 8000c48:	dec00404 	addi	sp,sp,16
 8000c4c:	f800283a 	ret

08000c50 <__sfp>:
 8000c50:	defffb04 	addi	sp,sp,-20
 8000c54:	dc000015 	stw	r16,0(sp)
 8000c58:	04020074 	movhi	r16,2049
 8000c5c:	841ecb04 	addi	r16,r16,31532
 8000c60:	dcc00315 	stw	r19,12(sp)
 8000c64:	2027883a 	mov	r19,r4
 8000c68:	81000017 	ldw	r4,0(r16)
 8000c6c:	dfc00415 	stw	ra,16(sp)
 8000c70:	dc800215 	stw	r18,8(sp)
 8000c74:	20800e17 	ldw	r2,56(r4)
 8000c78:	dc400115 	stw	r17,4(sp)
 8000c7c:	1000021e 	bne	r2,zero,8000c88 <__sfp+0x38>
 8000c80:	8000a440 	call	8000a44 <__sinit.part.1>
 8000c84:	81000017 	ldw	r4,0(r16)
 8000c88:	2480b804 	addi	r18,r4,736
 8000c8c:	047fffc4 	movi	r17,-1
 8000c90:	91000117 	ldw	r4,4(r18)
 8000c94:	94000217 	ldw	r16,8(r18)
 8000c98:	213fffc4 	addi	r4,r4,-1
 8000c9c:	20000a16 	blt	r4,zero,8000cc8 <__sfp+0x78>
 8000ca0:	8080030f 	ldh	r2,12(r16)
 8000ca4:	10000c26 	beq	r2,zero,8000cd8 <__sfp+0x88>
 8000ca8:	80c01d04 	addi	r3,r16,116
 8000cac:	00000206 	br	8000cb8 <__sfp+0x68>
 8000cb0:	18bfe60f 	ldh	r2,-104(r3)
 8000cb4:	10000826 	beq	r2,zero,8000cd8 <__sfp+0x88>
 8000cb8:	213fffc4 	addi	r4,r4,-1
 8000cbc:	1c3ffd04 	addi	r16,r3,-12
 8000cc0:	18c01a04 	addi	r3,r3,104
 8000cc4:	247ffa1e 	bne	r4,r17,8000cb0 <__alt_data_end+0xf8000cb0>
 8000cc8:	90800017 	ldw	r2,0(r18)
 8000ccc:	10001d26 	beq	r2,zero,8000d44 <__sfp+0xf4>
 8000cd0:	1025883a 	mov	r18,r2
 8000cd4:	003fee06 	br	8000c90 <__alt_data_end+0xf8000c90>
 8000cd8:	00bfffc4 	movi	r2,-1
 8000cdc:	8080038d 	sth	r2,14(r16)
 8000ce0:	00800044 	movi	r2,1
 8000ce4:	8080030d 	sth	r2,12(r16)
 8000ce8:	80001915 	stw	zero,100(r16)
 8000cec:	80000015 	stw	zero,0(r16)
 8000cf0:	80000215 	stw	zero,8(r16)
 8000cf4:	80000115 	stw	zero,4(r16)
 8000cf8:	80000415 	stw	zero,16(r16)
 8000cfc:	80000515 	stw	zero,20(r16)
 8000d00:	80000615 	stw	zero,24(r16)
 8000d04:	01800204 	movi	r6,8
 8000d08:	000b883a 	mov	r5,zero
 8000d0c:	81001704 	addi	r4,r16,92
 8000d10:	80026e40 	call	80026e4 <memset>
 8000d14:	8005883a 	mov	r2,r16
 8000d18:	80000c15 	stw	zero,48(r16)
 8000d1c:	80000d15 	stw	zero,52(r16)
 8000d20:	80001115 	stw	zero,68(r16)
 8000d24:	80001215 	stw	zero,72(r16)
 8000d28:	dfc00417 	ldw	ra,16(sp)
 8000d2c:	dcc00317 	ldw	r19,12(sp)
 8000d30:	dc800217 	ldw	r18,8(sp)
 8000d34:	dc400117 	ldw	r17,4(sp)
 8000d38:	dc000017 	ldw	r16,0(sp)
 8000d3c:	dec00504 	addi	sp,sp,20
 8000d40:	f800283a 	ret
 8000d44:	01400104 	movi	r5,4
 8000d48:	9809883a 	mov	r4,r19
 8000d4c:	8000be80 	call	8000be8 <__sfmoreglue>
 8000d50:	90800015 	stw	r2,0(r18)
 8000d54:	103fde1e 	bne	r2,zero,8000cd0 <__alt_data_end+0xf8000cd0>
 8000d58:	00800304 	movi	r2,12
 8000d5c:	98800015 	stw	r2,0(r19)
 8000d60:	0005883a 	mov	r2,zero
 8000d64:	003ff006 	br	8000d28 <__alt_data_end+0xf8000d28>

08000d68 <_cleanup>:
 8000d68:	00820074 	movhi	r2,2049
 8000d6c:	109ecb04 	addi	r2,r2,31532
 8000d70:	11000017 	ldw	r4,0(r2)
 8000d74:	01420034 	movhi	r5,2048
 8000d78:	2941a104 	addi	r5,r5,1668
 8000d7c:	8001b101 	jmpi	8001b10 <_fwalk_reent>

08000d80 <__sinit>:
 8000d80:	20800e17 	ldw	r2,56(r4)
 8000d84:	10000126 	beq	r2,zero,8000d8c <__sinit+0xc>
 8000d88:	f800283a 	ret
 8000d8c:	8000a441 	jmpi	8000a44 <__sinit.part.1>

08000d90 <__sfp_lock_acquire>:
 8000d90:	f800283a 	ret

08000d94 <__sfp_lock_release>:
 8000d94:	f800283a 	ret

08000d98 <__sinit_lock_acquire>:
 8000d98:	f800283a 	ret

08000d9c <__sinit_lock_release>:
 8000d9c:	f800283a 	ret

08000da0 <__fp_lock_all>:
 8000da0:	00820074 	movhi	r2,2049
 8000da4:	109ecc04 	addi	r2,r2,31536
 8000da8:	11000017 	ldw	r4,0(r2)
 8000dac:	01420034 	movhi	r5,2048
 8000db0:	2942f804 	addi	r5,r5,3040
 8000db4:	8001a4c1 	jmpi	8001a4c <_fwalk>

08000db8 <__fp_unlock_all>:
 8000db8:	00820074 	movhi	r2,2049
 8000dbc:	109ecc04 	addi	r2,r2,31536
 8000dc0:	11000017 	ldw	r4,0(r2)
 8000dc4:	01420034 	movhi	r5,2048
 8000dc8:	29428c04 	addi	r5,r5,2608
 8000dcc:	8001a4c1 	jmpi	8001a4c <_fwalk>

08000dd0 <_fopen_r>:
 8000dd0:	defffa04 	addi	sp,sp,-24
 8000dd4:	3005883a 	mov	r2,r6
 8000dd8:	dcc00415 	stw	r19,16(sp)
 8000ddc:	d80d883a 	mov	r6,sp
 8000de0:	2827883a 	mov	r19,r5
 8000de4:	100b883a 	mov	r5,r2
 8000de8:	dc800315 	stw	r18,12(sp)
 8000dec:	dfc00515 	stw	ra,20(sp)
 8000df0:	dc400215 	stw	r17,8(sp)
 8000df4:	dc000115 	stw	r16,4(sp)
 8000df8:	2025883a 	mov	r18,r4
 8000dfc:	80072580 	call	8007258 <__sflags>
 8000e00:	10002726 	beq	r2,zero,8000ea0 <_fopen_r+0xd0>
 8000e04:	9009883a 	mov	r4,r18
 8000e08:	1023883a 	mov	r17,r2
 8000e0c:	8000c500 	call	8000c50 <__sfp>
 8000e10:	1021883a 	mov	r16,r2
 8000e14:	10002226 	beq	r2,zero,8000ea0 <_fopen_r+0xd0>
 8000e18:	d9800017 	ldw	r6,0(sp)
 8000e1c:	01c06d84 	movi	r7,438
 8000e20:	980b883a 	mov	r5,r19
 8000e24:	9009883a 	mov	r4,r18
 8000e28:	800280c0 	call	800280c <_open_r>
 8000e2c:	10001916 	blt	r2,zero,8000e94 <_fopen_r+0xc4>
 8000e30:	8080038d 	sth	r2,14(r16)
 8000e34:	00820034 	movhi	r2,2048
 8000e38:	108b2904 	addi	r2,r2,11428
 8000e3c:	80800815 	stw	r2,32(r16)
 8000e40:	00820034 	movhi	r2,2048
 8000e44:	108b4004 	addi	r2,r2,11520
 8000e48:	80800915 	stw	r2,36(r16)
 8000e4c:	00820034 	movhi	r2,2048
 8000e50:	108b5f04 	addi	r2,r2,11644
 8000e54:	80800a15 	stw	r2,40(r16)
 8000e58:	00820034 	movhi	r2,2048
 8000e5c:	108b7604 	addi	r2,r2,11736
 8000e60:	8440030d 	sth	r17,12(r16)
 8000e64:	84000715 	stw	r16,28(r16)
 8000e68:	80800b15 	stw	r2,44(r16)
 8000e6c:	8c40400c 	andi	r17,r17,256
 8000e70:	88000d1e 	bne	r17,zero,8000ea8 <_fopen_r+0xd8>
 8000e74:	8005883a 	mov	r2,r16
 8000e78:	dfc00517 	ldw	ra,20(sp)
 8000e7c:	dcc00417 	ldw	r19,16(sp)
 8000e80:	dc800317 	ldw	r18,12(sp)
 8000e84:	dc400217 	ldw	r17,8(sp)
 8000e88:	dc000117 	ldw	r16,4(sp)
 8000e8c:	dec00604 	addi	sp,sp,24
 8000e90:	f800283a 	ret
 8000e94:	8000d900 	call	8000d90 <__sfp_lock_acquire>
 8000e98:	8000030d 	sth	zero,12(r16)
 8000e9c:	8000d940 	call	8000d94 <__sfp_lock_release>
 8000ea0:	0005883a 	mov	r2,zero
 8000ea4:	003ff406 	br	8000e78 <__alt_data_end+0xf8000e78>
 8000ea8:	01c00084 	movi	r7,2
 8000eac:	000d883a 	mov	r6,zero
 8000eb0:	800b883a 	mov	r5,r16
 8000eb4:	9009883a 	mov	r4,r18
 8000eb8:	80015700 	call	8001570 <_fseek_r>
 8000ebc:	8005883a 	mov	r2,r16
 8000ec0:	003fed06 	br	8000e78 <__alt_data_end+0xf8000e78>

08000ec4 <fopen>:
 8000ec4:	00820074 	movhi	r2,2049
 8000ec8:	109ecc04 	addi	r2,r2,31536
 8000ecc:	280d883a 	mov	r6,r5
 8000ed0:	200b883a 	mov	r5,r4
 8000ed4:	11000017 	ldw	r4,0(r2)
 8000ed8:	8000dd01 	jmpi	8000dd0 <_fopen_r>

08000edc <_fread_r>:
 8000edc:	defff404 	addi	sp,sp,-48
 8000ee0:	dd800815 	stw	r22,32(sp)
 8000ee4:	39ad383a 	mul	r22,r7,r6
 8000ee8:	dc000215 	stw	r16,8(sp)
 8000eec:	dfc00b15 	stw	ra,44(sp)
 8000ef0:	df000a15 	stw	fp,40(sp)
 8000ef4:	ddc00915 	stw	r23,36(sp)
 8000ef8:	dd400715 	stw	r21,28(sp)
 8000efc:	dd000615 	stw	r20,24(sp)
 8000f00:	dcc00515 	stw	r19,20(sp)
 8000f04:	dc800415 	stw	r18,16(sp)
 8000f08:	dc400315 	stw	r17,12(sp)
 8000f0c:	dc000c17 	ldw	r16,48(sp)
 8000f10:	b0003b26 	beq	r22,zero,8001000 <_fread_r+0x124>
 8000f14:	302f883a 	mov	r23,r6
 8000f18:	382b883a 	mov	r21,r7
 8000f1c:	2029883a 	mov	r20,r4
 8000f20:	2827883a 	mov	r19,r5
 8000f24:	20000226 	beq	r4,zero,8000f30 <_fread_r+0x54>
 8000f28:	20800e17 	ldw	r2,56(r4)
 8000f2c:	10006e26 	beq	r2,zero,80010e8 <_fread_r+0x20c>
 8000f30:	8080030b 	ldhu	r2,12(r16)
 8000f34:	10c8000c 	andi	r3,r2,8192
 8000f38:	1800061e 	bne	r3,zero,8000f54 <_fread_r+0x78>
 8000f3c:	81001917 	ldw	r4,100(r16)
 8000f40:	00f7ffc4 	movi	r3,-8193
 8000f44:	10880014 	ori	r2,r2,8192
 8000f48:	20c6703a 	and	r3,r4,r3
 8000f4c:	8080030d 	sth	r2,12(r16)
 8000f50:	80c01915 	stw	r3,100(r16)
 8000f54:	84400117 	ldw	r17,4(r16)
 8000f58:	88005f16 	blt	r17,zero,80010d8 <_fread_r+0x1fc>
 8000f5c:	8809883a 	mov	r4,r17
 8000f60:	1080008c 	andi	r2,r2,2
 8000f64:	1000281e 	bne	r2,zero,8001008 <_fread_r+0x12c>
 8000f68:	b025883a 	mov	r18,r22
 8000f6c:	00000b06 	br	8000f9c <_fread_r+0xc0>
 8000f70:	800259c0 	call	800259c <memcpy>
 8000f74:	80800017 	ldw	r2,0(r16)
 8000f78:	9c67883a 	add	r19,r19,r17
 8000f7c:	9465c83a 	sub	r18,r18,r17
 8000f80:	1463883a 	add	r17,r2,r17
 8000f84:	800b883a 	mov	r5,r16
 8000f88:	a009883a 	mov	r4,r20
 8000f8c:	84400015 	stw	r17,0(r16)
 8000f90:	8002a7c0 	call	8002a7c <__srefill_r>
 8000f94:	10004c1e 	bne	r2,zero,80010c8 <_fread_r+0x1ec>
 8000f98:	84400117 	ldw	r17,4(r16)
 8000f9c:	880d883a 	mov	r6,r17
 8000fa0:	9809883a 	mov	r4,r19
 8000fa4:	81400017 	ldw	r5,0(r16)
 8000fa8:	8cbff136 	bltu	r17,r18,8000f70 <__alt_data_end+0xf8000f70>
 8000fac:	900d883a 	mov	r6,r18
 8000fb0:	800259c0 	call	800259c <memcpy>
 8000fb4:	80c00117 	ldw	r3,4(r16)
 8000fb8:	81000017 	ldw	r4,0(r16)
 8000fbc:	a805883a 	mov	r2,r21
 8000fc0:	1c87c83a 	sub	r3,r3,r18
 8000fc4:	24a5883a 	add	r18,r4,r18
 8000fc8:	80c00115 	stw	r3,4(r16)
 8000fcc:	84800015 	stw	r18,0(r16)
 8000fd0:	dfc00b17 	ldw	ra,44(sp)
 8000fd4:	df000a17 	ldw	fp,40(sp)
 8000fd8:	ddc00917 	ldw	r23,36(sp)
 8000fdc:	dd800817 	ldw	r22,32(sp)
 8000fe0:	dd400717 	ldw	r21,28(sp)
 8000fe4:	dd000617 	ldw	r20,24(sp)
 8000fe8:	dcc00517 	ldw	r19,20(sp)
 8000fec:	dc800417 	ldw	r18,16(sp)
 8000ff0:	dc400317 	ldw	r17,12(sp)
 8000ff4:	dc000217 	ldw	r16,8(sp)
 8000ff8:	dec00c04 	addi	sp,sp,48
 8000ffc:	f800283a 	ret
 8001000:	0005883a 	mov	r2,zero
 8001004:	003ff206 	br	8000fd0 <__alt_data_end+0xf8000fd0>
 8001008:	b007883a 	mov	r3,r22
 800100c:	2580012e 	bgeu	r4,r22,8001014 <_fread_r+0x138>
 8001010:	2007883a 	mov	r3,r4
 8001014:	81400017 	ldw	r5,0(r16)
 8001018:	180d883a 	mov	r6,r3
 800101c:	9809883a 	mov	r4,r19
 8001020:	d8c00115 	stw	r3,4(sp)
 8001024:	800259c0 	call	800259c <memcpy>
 8001028:	d8c00117 	ldw	r3,4(sp)
 800102c:	84400017 	ldw	r17,0(r16)
 8001030:	80800117 	ldw	r2,4(r16)
 8001034:	81400c17 	ldw	r5,48(r16)
 8001038:	88e3883a 	add	r17,r17,r3
 800103c:	10c5c83a 	sub	r2,r2,r3
 8001040:	84400015 	stw	r17,0(r16)
 8001044:	80800115 	stw	r2,4(r16)
 8001048:	b0e5c83a 	sub	r18,r22,r3
 800104c:	28002b26 	beq	r5,zero,80010fc <_fread_r+0x220>
 8001050:	90002b26 	beq	r18,zero,8001100 <_fread_r+0x224>
 8001054:	80801004 	addi	r2,r16,64
 8001058:	28800526 	beq	r5,r2,8001070 <_fread_r+0x194>
 800105c:	a009883a 	mov	r4,r20
 8001060:	d8c00115 	stw	r3,4(sp)
 8001064:	80012600 	call	8001260 <_free_r>
 8001068:	d8c00117 	ldw	r3,4(sp)
 800106c:	84400017 	ldw	r17,0(r16)
 8001070:	80000c15 	stw	zero,48(r16)
 8001074:	80800517 	ldw	r2,20(r16)
 8001078:	87000417 	ldw	fp,16(r16)
 800107c:	98e7883a 	add	r19,r19,r3
 8001080:	d8800015 	stw	r2,0(sp)
 8001084:	00000106 	br	800108c <_fread_r+0x1b0>
 8001088:	90001d26 	beq	r18,zero,8001100 <_fread_r+0x224>
 800108c:	84c00415 	stw	r19,16(r16)
 8001090:	84800515 	stw	r18,20(r16)
 8001094:	84c00015 	stw	r19,0(r16)
 8001098:	a009883a 	mov	r4,r20
 800109c:	800b883a 	mov	r5,r16
 80010a0:	8002a7c0 	call	8002a7c <__srefill_r>
 80010a4:	d9000017 	ldw	r4,0(sp)
 80010a8:	80c00117 	ldw	r3,4(r16)
 80010ac:	87000415 	stw	fp,16(r16)
 80010b0:	81000515 	stw	r4,20(r16)
 80010b4:	84400015 	stw	r17,0(r16)
 80010b8:	80000115 	stw	zero,4(r16)
 80010bc:	90e5c83a 	sub	r18,r18,r3
 80010c0:	98e7883a 	add	r19,r19,r3
 80010c4:	103ff026 	beq	r2,zero,8001088 <__alt_data_end+0xf8001088>
 80010c8:	b80b883a 	mov	r5,r23
 80010cc:	b489c83a 	sub	r4,r22,r18
 80010d0:	800bd580 	call	800bd58 <__udivsi3>
 80010d4:	003fbe06 	br	8000fd0 <__alt_data_end+0xf8000fd0>
 80010d8:	80000115 	stw	zero,4(r16)
 80010dc:	0009883a 	mov	r4,zero
 80010e0:	0023883a 	mov	r17,zero
 80010e4:	003f9e06 	br	8000f60 <__alt_data_end+0xf8000f60>
 80010e8:	8000d800 	call	8000d80 <__sinit>
 80010ec:	8080030b 	ldhu	r2,12(r16)
 80010f0:	10c8000c 	andi	r3,r2,8192
 80010f4:	183f971e 	bne	r3,zero,8000f54 <__alt_data_end+0xf8000f54>
 80010f8:	003f9006 	br	8000f3c <__alt_data_end+0xf8000f3c>
 80010fc:	903fdd1e 	bne	r18,zero,8001074 <__alt_data_end+0xf8001074>
 8001100:	a805883a 	mov	r2,r21
 8001104:	003fb206 	br	8000fd0 <__alt_data_end+0xf8000fd0>

08001108 <fread>:
 8001108:	defffe04 	addi	sp,sp,-8
 800110c:	00820074 	movhi	r2,2049
 8001110:	d9c00015 	stw	r7,0(sp)
 8001114:	109ecc04 	addi	r2,r2,31536
 8001118:	300f883a 	mov	r7,r6
 800111c:	280d883a 	mov	r6,r5
 8001120:	200b883a 	mov	r5,r4
 8001124:	11000017 	ldw	r4,0(r2)
 8001128:	dfc00115 	stw	ra,4(sp)
 800112c:	8000edc0 	call	8000edc <_fread_r>
 8001130:	dfc00117 	ldw	ra,4(sp)
 8001134:	dec00204 	addi	sp,sp,8
 8001138:	f800283a 	ret

0800113c <_malloc_trim_r>:
 800113c:	defffb04 	addi	sp,sp,-20
 8001140:	dcc00315 	stw	r19,12(sp)
 8001144:	04c20074 	movhi	r19,2049
 8001148:	dc800215 	stw	r18,8(sp)
 800114c:	dc400115 	stw	r17,4(sp)
 8001150:	dc000015 	stw	r16,0(sp)
 8001154:	dfc00415 	stw	ra,16(sp)
 8001158:	2821883a 	mov	r16,r5
 800115c:	9cd91304 	addi	r19,r19,25676
 8001160:	2025883a 	mov	r18,r4
 8001164:	800e9f80 	call	800e9f8 <__malloc_lock>
 8001168:	98800217 	ldw	r2,8(r19)
 800116c:	14400117 	ldw	r17,4(r2)
 8001170:	00bfff04 	movi	r2,-4
 8001174:	88a2703a 	and	r17,r17,r2
 8001178:	8c21c83a 	sub	r16,r17,r16
 800117c:	8403fbc4 	addi	r16,r16,4079
 8001180:	8020d33a 	srli	r16,r16,12
 8001184:	0083ffc4 	movi	r2,4095
 8001188:	843fffc4 	addi	r16,r16,-1
 800118c:	8020933a 	slli	r16,r16,12
 8001190:	1400060e 	bge	r2,r16,80011ac <_malloc_trim_r+0x70>
 8001194:	000b883a 	mov	r5,zero
 8001198:	9009883a 	mov	r4,r18
 800119c:	8002c500 	call	8002c50 <_sbrk_r>
 80011a0:	98c00217 	ldw	r3,8(r19)
 80011a4:	1c47883a 	add	r3,r3,r17
 80011a8:	10c00a26 	beq	r2,r3,80011d4 <_malloc_trim_r+0x98>
 80011ac:	9009883a 	mov	r4,r18
 80011b0:	800ea1c0 	call	800ea1c <__malloc_unlock>
 80011b4:	0005883a 	mov	r2,zero
 80011b8:	dfc00417 	ldw	ra,16(sp)
 80011bc:	dcc00317 	ldw	r19,12(sp)
 80011c0:	dc800217 	ldw	r18,8(sp)
 80011c4:	dc400117 	ldw	r17,4(sp)
 80011c8:	dc000017 	ldw	r16,0(sp)
 80011cc:	dec00504 	addi	sp,sp,20
 80011d0:	f800283a 	ret
 80011d4:	040bc83a 	sub	r5,zero,r16
 80011d8:	9009883a 	mov	r4,r18
 80011dc:	8002c500 	call	8002c50 <_sbrk_r>
 80011e0:	00ffffc4 	movi	r3,-1
 80011e4:	10c00d26 	beq	r2,r3,800121c <_malloc_trim_r+0xe0>
 80011e8:	00c200b4 	movhi	r3,2050
 80011ec:	18e5c804 	addi	r3,r3,-26848
 80011f0:	18800017 	ldw	r2,0(r3)
 80011f4:	99000217 	ldw	r4,8(r19)
 80011f8:	8c23c83a 	sub	r17,r17,r16
 80011fc:	8c400054 	ori	r17,r17,1
 8001200:	1421c83a 	sub	r16,r2,r16
 8001204:	24400115 	stw	r17,4(r4)
 8001208:	9009883a 	mov	r4,r18
 800120c:	1c000015 	stw	r16,0(r3)
 8001210:	800ea1c0 	call	800ea1c <__malloc_unlock>
 8001214:	00800044 	movi	r2,1
 8001218:	003fe706 	br	80011b8 <__alt_data_end+0xf80011b8>
 800121c:	000b883a 	mov	r5,zero
 8001220:	9009883a 	mov	r4,r18
 8001224:	8002c500 	call	8002c50 <_sbrk_r>
 8001228:	99000217 	ldw	r4,8(r19)
 800122c:	014003c4 	movi	r5,15
 8001230:	1107c83a 	sub	r3,r2,r4
 8001234:	28ffdd0e 	bge	r5,r3,80011ac <__alt_data_end+0xf80011ac>
 8001238:	01420074 	movhi	r5,2049
 800123c:	295ecd04 	addi	r5,r5,31540
 8001240:	29400017 	ldw	r5,0(r5)
 8001244:	18c00054 	ori	r3,r3,1
 8001248:	20c00115 	stw	r3,4(r4)
 800124c:	00c200b4 	movhi	r3,2050
 8001250:	1145c83a 	sub	r2,r2,r5
 8001254:	18e5c804 	addi	r3,r3,-26848
 8001258:	18800015 	stw	r2,0(r3)
 800125c:	003fd306 	br	80011ac <__alt_data_end+0xf80011ac>

08001260 <_free_r>:
 8001260:	28004126 	beq	r5,zero,8001368 <_free_r+0x108>
 8001264:	defffd04 	addi	sp,sp,-12
 8001268:	dc400115 	stw	r17,4(sp)
 800126c:	dc000015 	stw	r16,0(sp)
 8001270:	2023883a 	mov	r17,r4
 8001274:	2821883a 	mov	r16,r5
 8001278:	dfc00215 	stw	ra,8(sp)
 800127c:	800e9f80 	call	800e9f8 <__malloc_lock>
 8001280:	81ffff17 	ldw	r7,-4(r16)
 8001284:	00bfff84 	movi	r2,-2
 8001288:	01020074 	movhi	r4,2049
 800128c:	81bffe04 	addi	r6,r16,-8
 8001290:	3884703a 	and	r2,r7,r2
 8001294:	21191304 	addi	r4,r4,25676
 8001298:	308b883a 	add	r5,r6,r2
 800129c:	2a400117 	ldw	r9,4(r5)
 80012a0:	22000217 	ldw	r8,8(r4)
 80012a4:	00ffff04 	movi	r3,-4
 80012a8:	48c6703a 	and	r3,r9,r3
 80012ac:	2a005726 	beq	r5,r8,800140c <_free_r+0x1ac>
 80012b0:	28c00115 	stw	r3,4(r5)
 80012b4:	39c0004c 	andi	r7,r7,1
 80012b8:	3800091e 	bne	r7,zero,80012e0 <_free_r+0x80>
 80012bc:	823ffe17 	ldw	r8,-8(r16)
 80012c0:	22400204 	addi	r9,r4,8
 80012c4:	320dc83a 	sub	r6,r6,r8
 80012c8:	31c00217 	ldw	r7,8(r6)
 80012cc:	1205883a 	add	r2,r2,r8
 80012d0:	3a406526 	beq	r7,r9,8001468 <_free_r+0x208>
 80012d4:	32000317 	ldw	r8,12(r6)
 80012d8:	3a000315 	stw	r8,12(r7)
 80012dc:	41c00215 	stw	r7,8(r8)
 80012e0:	28cf883a 	add	r7,r5,r3
 80012e4:	39c00117 	ldw	r7,4(r7)
 80012e8:	39c0004c 	andi	r7,r7,1
 80012ec:	38003a26 	beq	r7,zero,80013d8 <_free_r+0x178>
 80012f0:	10c00054 	ori	r3,r2,1
 80012f4:	30c00115 	stw	r3,4(r6)
 80012f8:	3087883a 	add	r3,r6,r2
 80012fc:	18800015 	stw	r2,0(r3)
 8001300:	00c07fc4 	movi	r3,511
 8001304:	18801936 	bltu	r3,r2,800136c <_free_r+0x10c>
 8001308:	1004d0fa 	srli	r2,r2,3
 800130c:	01c00044 	movi	r7,1
 8001310:	21400117 	ldw	r5,4(r4)
 8001314:	10c00044 	addi	r3,r2,1
 8001318:	18c7883a 	add	r3,r3,r3
 800131c:	1005d0ba 	srai	r2,r2,2
 8001320:	18c7883a 	add	r3,r3,r3
 8001324:	18c7883a 	add	r3,r3,r3
 8001328:	1907883a 	add	r3,r3,r4
 800132c:	3884983a 	sll	r2,r7,r2
 8001330:	19c00017 	ldw	r7,0(r3)
 8001334:	1a3ffe04 	addi	r8,r3,-8
 8001338:	1144b03a 	or	r2,r2,r5
 800133c:	32000315 	stw	r8,12(r6)
 8001340:	31c00215 	stw	r7,8(r6)
 8001344:	20800115 	stw	r2,4(r4)
 8001348:	19800015 	stw	r6,0(r3)
 800134c:	39800315 	stw	r6,12(r7)
 8001350:	8809883a 	mov	r4,r17
 8001354:	dfc00217 	ldw	ra,8(sp)
 8001358:	dc400117 	ldw	r17,4(sp)
 800135c:	dc000017 	ldw	r16,0(sp)
 8001360:	dec00304 	addi	sp,sp,12
 8001364:	800ea1c1 	jmpi	800ea1c <__malloc_unlock>
 8001368:	f800283a 	ret
 800136c:	100ad27a 	srli	r5,r2,9
 8001370:	00c00104 	movi	r3,4
 8001374:	19404a36 	bltu	r3,r5,80014a0 <_free_r+0x240>
 8001378:	100ad1ba 	srli	r5,r2,6
 800137c:	28c00e44 	addi	r3,r5,57
 8001380:	18c7883a 	add	r3,r3,r3
 8001384:	29400e04 	addi	r5,r5,56
 8001388:	18c7883a 	add	r3,r3,r3
 800138c:	18c7883a 	add	r3,r3,r3
 8001390:	1909883a 	add	r4,r3,r4
 8001394:	20c00017 	ldw	r3,0(r4)
 8001398:	01c20074 	movhi	r7,2049
 800139c:	213ffe04 	addi	r4,r4,-8
 80013a0:	39d91304 	addi	r7,r7,25676
 80013a4:	20c04426 	beq	r4,r3,80014b8 <_free_r+0x258>
 80013a8:	01ffff04 	movi	r7,-4
 80013ac:	19400117 	ldw	r5,4(r3)
 80013b0:	29ca703a 	and	r5,r5,r7
 80013b4:	1140022e 	bgeu	r2,r5,80013c0 <_free_r+0x160>
 80013b8:	18c00217 	ldw	r3,8(r3)
 80013bc:	20fffb1e 	bne	r4,r3,80013ac <__alt_data_end+0xf80013ac>
 80013c0:	19000317 	ldw	r4,12(r3)
 80013c4:	31000315 	stw	r4,12(r6)
 80013c8:	30c00215 	stw	r3,8(r6)
 80013cc:	21800215 	stw	r6,8(r4)
 80013d0:	19800315 	stw	r6,12(r3)
 80013d4:	003fde06 	br	8001350 <__alt_data_end+0xf8001350>
 80013d8:	29c00217 	ldw	r7,8(r5)
 80013dc:	10c5883a 	add	r2,r2,r3
 80013e0:	00c20074 	movhi	r3,2049
 80013e4:	18d91504 	addi	r3,r3,25684
 80013e8:	38c03b26 	beq	r7,r3,80014d8 <_free_r+0x278>
 80013ec:	2a000317 	ldw	r8,12(r5)
 80013f0:	11400054 	ori	r5,r2,1
 80013f4:	3087883a 	add	r3,r6,r2
 80013f8:	3a000315 	stw	r8,12(r7)
 80013fc:	41c00215 	stw	r7,8(r8)
 8001400:	31400115 	stw	r5,4(r6)
 8001404:	18800015 	stw	r2,0(r3)
 8001408:	003fbd06 	br	8001300 <__alt_data_end+0xf8001300>
 800140c:	39c0004c 	andi	r7,r7,1
 8001410:	10c5883a 	add	r2,r2,r3
 8001414:	3800071e 	bne	r7,zero,8001434 <_free_r+0x1d4>
 8001418:	81fffe17 	ldw	r7,-8(r16)
 800141c:	31cdc83a 	sub	r6,r6,r7
 8001420:	30c00317 	ldw	r3,12(r6)
 8001424:	31400217 	ldw	r5,8(r6)
 8001428:	11c5883a 	add	r2,r2,r7
 800142c:	28c00315 	stw	r3,12(r5)
 8001430:	19400215 	stw	r5,8(r3)
 8001434:	10c00054 	ori	r3,r2,1
 8001438:	30c00115 	stw	r3,4(r6)
 800143c:	00c20074 	movhi	r3,2049
 8001440:	18dece04 	addi	r3,r3,31544
 8001444:	18c00017 	ldw	r3,0(r3)
 8001448:	21800215 	stw	r6,8(r4)
 800144c:	10ffc036 	bltu	r2,r3,8001350 <__alt_data_end+0xf8001350>
 8001450:	008200b4 	movhi	r2,2050
 8001454:	10a5b004 	addi	r2,r2,-26944
 8001458:	11400017 	ldw	r5,0(r2)
 800145c:	8809883a 	mov	r4,r17
 8001460:	800113c0 	call	800113c <_malloc_trim_r>
 8001464:	003fba06 	br	8001350 <__alt_data_end+0xf8001350>
 8001468:	28c9883a 	add	r4,r5,r3
 800146c:	21000117 	ldw	r4,4(r4)
 8001470:	2100004c 	andi	r4,r4,1
 8001474:	2000391e 	bne	r4,zero,800155c <_free_r+0x2fc>
 8001478:	29c00217 	ldw	r7,8(r5)
 800147c:	29000317 	ldw	r4,12(r5)
 8001480:	1885883a 	add	r2,r3,r2
 8001484:	10c00054 	ori	r3,r2,1
 8001488:	39000315 	stw	r4,12(r7)
 800148c:	21c00215 	stw	r7,8(r4)
 8001490:	30c00115 	stw	r3,4(r6)
 8001494:	308d883a 	add	r6,r6,r2
 8001498:	30800015 	stw	r2,0(r6)
 800149c:	003fac06 	br	8001350 <__alt_data_end+0xf8001350>
 80014a0:	00c00504 	movi	r3,20
 80014a4:	19401536 	bltu	r3,r5,80014fc <_free_r+0x29c>
 80014a8:	28c01704 	addi	r3,r5,92
 80014ac:	18c7883a 	add	r3,r3,r3
 80014b0:	294016c4 	addi	r5,r5,91
 80014b4:	003fb406 	br	8001388 <__alt_data_end+0xf8001388>
 80014b8:	280bd0ba 	srai	r5,r5,2
 80014bc:	00c00044 	movi	r3,1
 80014c0:	38800117 	ldw	r2,4(r7)
 80014c4:	194a983a 	sll	r5,r3,r5
 80014c8:	2007883a 	mov	r3,r4
 80014cc:	2884b03a 	or	r2,r5,r2
 80014d0:	38800115 	stw	r2,4(r7)
 80014d4:	003fbb06 	br	80013c4 <__alt_data_end+0xf80013c4>
 80014d8:	21800515 	stw	r6,20(r4)
 80014dc:	21800415 	stw	r6,16(r4)
 80014e0:	10c00054 	ori	r3,r2,1
 80014e4:	31c00315 	stw	r7,12(r6)
 80014e8:	31c00215 	stw	r7,8(r6)
 80014ec:	30c00115 	stw	r3,4(r6)
 80014f0:	308d883a 	add	r6,r6,r2
 80014f4:	30800015 	stw	r2,0(r6)
 80014f8:	003f9506 	br	8001350 <__alt_data_end+0xf8001350>
 80014fc:	00c01504 	movi	r3,84
 8001500:	19400536 	bltu	r3,r5,8001518 <_free_r+0x2b8>
 8001504:	100ad33a 	srli	r5,r2,12
 8001508:	28c01bc4 	addi	r3,r5,111
 800150c:	18c7883a 	add	r3,r3,r3
 8001510:	29401b84 	addi	r5,r5,110
 8001514:	003f9c06 	br	8001388 <__alt_data_end+0xf8001388>
 8001518:	00c05504 	movi	r3,340
 800151c:	19400536 	bltu	r3,r5,8001534 <_free_r+0x2d4>
 8001520:	100ad3fa 	srli	r5,r2,15
 8001524:	28c01e04 	addi	r3,r5,120
 8001528:	18c7883a 	add	r3,r3,r3
 800152c:	29401dc4 	addi	r5,r5,119
 8001530:	003f9506 	br	8001388 <__alt_data_end+0xf8001388>
 8001534:	00c15504 	movi	r3,1364
 8001538:	19400536 	bltu	r3,r5,8001550 <_free_r+0x2f0>
 800153c:	100ad4ba 	srli	r5,r2,18
 8001540:	28c01f44 	addi	r3,r5,125
 8001544:	18c7883a 	add	r3,r3,r3
 8001548:	29401f04 	addi	r5,r5,124
 800154c:	003f8e06 	br	8001388 <__alt_data_end+0xf8001388>
 8001550:	00c03f84 	movi	r3,254
 8001554:	01401f84 	movi	r5,126
 8001558:	003f8b06 	br	8001388 <__alt_data_end+0xf8001388>
 800155c:	10c00054 	ori	r3,r2,1
 8001560:	30c00115 	stw	r3,4(r6)
 8001564:	308d883a 	add	r6,r6,r2
 8001568:	30800015 	stw	r2,0(r6)
 800156c:	003f7806 	br	8001350 <__alt_data_end+0xf8001350>

08001570 <_fseek_r>:
 8001570:	80015901 	jmpi	8001590 <_fseeko_r>

08001574 <fseek>:
 8001574:	00820074 	movhi	r2,2049
 8001578:	109ecc04 	addi	r2,r2,31536
 800157c:	300f883a 	mov	r7,r6
 8001580:	280d883a 	mov	r6,r5
 8001584:	200b883a 	mov	r5,r4
 8001588:	11000017 	ldw	r4,0(r2)
 800158c:	80015901 	jmpi	8001590 <_fseeko_r>

08001590 <_fseeko_r>:
 8001590:	deffe804 	addi	sp,sp,-96
 8001594:	dd401415 	stw	r21,80(sp)
 8001598:	dc801115 	stw	r18,68(sp)
 800159c:	dc401015 	stw	r17,64(sp)
 80015a0:	dc000f15 	stw	r16,60(sp)
 80015a4:	dfc01715 	stw	ra,92(sp)
 80015a8:	ddc01615 	stw	r23,88(sp)
 80015ac:	dd801515 	stw	r22,84(sp)
 80015b0:	dd001315 	stw	r20,76(sp)
 80015b4:	dcc01215 	stw	r19,72(sp)
 80015b8:	2023883a 	mov	r17,r4
 80015bc:	2821883a 	mov	r16,r5
 80015c0:	302b883a 	mov	r21,r6
 80015c4:	3825883a 	mov	r18,r7
 80015c8:	20000226 	beq	r4,zero,80015d4 <_fseeko_r+0x44>
 80015cc:	20800e17 	ldw	r2,56(r4)
 80015d0:	10005a26 	beq	r2,zero,800173c <_fseeko_r+0x1ac>
 80015d4:	8080030b 	ldhu	r2,12(r16)
 80015d8:	00c04204 	movi	r3,264
 80015dc:	1080420c 	andi	r2,r2,264
 80015e0:	10c05b26 	beq	r2,r3,8001750 <_fseeko_r+0x1c0>
 80015e4:	85000a17 	ldw	r20,40(r16)
 80015e8:	a000f626 	beq	r20,zero,80019c4 <_fseeko_r+0x434>
 80015ec:	00800044 	movi	r2,1
 80015f0:	90803e26 	beq	r18,r2,80016ec <_fseeko_r+0x15c>
 80015f4:	00800084 	movi	r2,2
 80015f8:	90801026 	beq	r18,r2,800163c <_fseeko_r+0xac>
 80015fc:	90000f26 	beq	r18,zero,800163c <_fseeko_r+0xac>
 8001600:	00800584 	movi	r2,22
 8001604:	88800015 	stw	r2,0(r17)
 8001608:	04ffffc4 	movi	r19,-1
 800160c:	9805883a 	mov	r2,r19
 8001610:	dfc01717 	ldw	ra,92(sp)
 8001614:	ddc01617 	ldw	r23,88(sp)
 8001618:	dd801517 	ldw	r22,84(sp)
 800161c:	dd401417 	ldw	r21,80(sp)
 8001620:	dd001317 	ldw	r20,76(sp)
 8001624:	dcc01217 	ldw	r19,72(sp)
 8001628:	dc801117 	ldw	r18,68(sp)
 800162c:	dc401017 	ldw	r17,64(sp)
 8001630:	dc000f17 	ldw	r16,60(sp)
 8001634:	dec01804 	addi	sp,sp,96
 8001638:	f800283a 	ret
 800163c:	80800417 	ldw	r2,16(r16)
 8001640:	002f883a 	mov	r23,zero
 8001644:	0027883a 	mov	r19,zero
 8001648:	1000cb26 	beq	r2,zero,8001978 <_fseeko_r+0x3e8>
 800164c:	8080030b 	ldhu	r2,12(r16)
 8001650:	10c2068c 	andi	r3,r2,2074
 8001654:	1800071e 	bne	r3,zero,8001674 <_fseeko_r+0xe4>
 8001658:	10c1000c 	andi	r3,r2,1024
 800165c:	1800451e 	bne	r3,zero,8001774 <_fseeko_r+0x1e4>
 8001660:	00c20034 	movhi	r3,2048
 8001664:	18cb5f04 	addi	r3,r3,11644
 8001668:	a0c0b726 	beq	r20,r3,8001948 <_fseeko_r+0x3b8>
 800166c:	10820014 	ori	r2,r2,2048
 8001670:	8080030d 	sth	r2,12(r16)
 8001674:	800b883a 	mov	r5,r16
 8001678:	8809883a 	mov	r4,r17
 800167c:	80009a40 	call	80009a4 <_fflush_r>
 8001680:	1027883a 	mov	r19,r2
 8001684:	103fe01e 	bne	r2,zero,8001608 <__alt_data_end+0xf8001608>
 8001688:	81400717 	ldw	r5,28(r16)
 800168c:	900f883a 	mov	r7,r18
 8001690:	a80d883a 	mov	r6,r21
 8001694:	8809883a 	mov	r4,r17
 8001698:	a03ee83a 	callr	r20
 800169c:	00ffffc4 	movi	r3,-1
 80016a0:	10ffd926 	beq	r2,r3,8001608 <__alt_data_end+0xf8001608>
 80016a4:	81400c17 	ldw	r5,48(r16)
 80016a8:	28000526 	beq	r5,zero,80016c0 <_fseeko_r+0x130>
 80016ac:	80801004 	addi	r2,r16,64
 80016b0:	28800226 	beq	r5,r2,80016bc <_fseeko_r+0x12c>
 80016b4:	8809883a 	mov	r4,r17
 80016b8:	80012600 	call	8001260 <_free_r>
 80016bc:	80000c15 	stw	zero,48(r16)
 80016c0:	8080030b 	ldhu	r2,12(r16)
 80016c4:	80c00417 	ldw	r3,16(r16)
 80016c8:	80000115 	stw	zero,4(r16)
 80016cc:	10bdf7cc 	andi	r2,r2,63455
 80016d0:	80c00015 	stw	r3,0(r16)
 80016d4:	8080030d 	sth	r2,12(r16)
 80016d8:	01800204 	movi	r6,8
 80016dc:	000b883a 	mov	r5,zero
 80016e0:	81001704 	addi	r4,r16,92
 80016e4:	80026e40 	call	80026e4 <memset>
 80016e8:	003fc806 	br	800160c <__alt_data_end+0xf800160c>
 80016ec:	800b883a 	mov	r5,r16
 80016f0:	8809883a 	mov	r4,r17
 80016f4:	80009a40 	call	80009a4 <_fflush_r>
 80016f8:	8080030b 	ldhu	r2,12(r16)
 80016fc:	10c4000c 	andi	r3,r2,4096
 8001700:	18008726 	beq	r3,zero,8001920 <_fseeko_r+0x390>
 8001704:	84c01417 	ldw	r19,80(r16)
 8001708:	10c0010c 	andi	r3,r2,4
 800170c:	1800431e 	bne	r3,zero,800181c <_fseeko_r+0x28c>
 8001710:	1080020c 	andi	r2,r2,8
 8001714:	10008026 	beq	r2,zero,8001918 <_fseeko_r+0x388>
 8001718:	80c00017 	ldw	r3,0(r16)
 800171c:	80800417 	ldw	r2,16(r16)
 8001720:	18000226 	beq	r3,zero,800172c <_fseeko_r+0x19c>
 8001724:	1887c83a 	sub	r3,r3,r2
 8001728:	98e7883a 	add	r19,r19,r3
 800172c:	aceb883a 	add	r21,r21,r19
 8001730:	05c00044 	movi	r23,1
 8001734:	0025883a 	mov	r18,zero
 8001738:	003fc306 	br	8001648 <__alt_data_end+0xf8001648>
 800173c:	8000d800 	call	8000d80 <__sinit>
 8001740:	8080030b 	ldhu	r2,12(r16)
 8001744:	00c04204 	movi	r3,264
 8001748:	1080420c 	andi	r2,r2,264
 800174c:	10ffa51e 	bne	r2,r3,80015e4 <__alt_data_end+0xf80015e4>
 8001750:	800b883a 	mov	r5,r16
 8001754:	8809883a 	mov	r4,r17
 8001758:	80009a40 	call	80009a4 <_fflush_r>
 800175c:	003fa106 	br	80015e4 <__alt_data_end+0xf80015e4>
 8001760:	8080030b 	ldhu	r2,12(r16)
 8001764:	00c10004 	movi	r3,1024
 8001768:	80c01315 	stw	r3,76(r16)
 800176c:	10c4b03a 	or	r2,r2,r3
 8001770:	8080030d 	sth	r2,12(r16)
 8001774:	9000311e 	bne	r18,zero,800183c <_fseeko_r+0x2ac>
 8001778:	a82d883a 	mov	r22,r21
 800177c:	b800371e 	bne	r23,zero,800185c <_fseeko_r+0x2cc>
 8001780:	8080030b 	ldhu	r2,12(r16)
 8001784:	1084000c 	andi	r2,r2,4096
 8001788:	10007f26 	beq	r2,zero,8001988 <_fseeko_r+0x3f8>
 800178c:	80801417 	ldw	r2,80(r16)
 8001790:	81800117 	ldw	r6,4(r16)
 8001794:	81400c17 	ldw	r5,48(r16)
 8001798:	11a7c83a 	sub	r19,r2,r6
 800179c:	28008226 	beq	r5,zero,80019a8 <_fseeko_r+0x418>
 80017a0:	81c00f17 	ldw	r7,60(r16)
 80017a4:	99e7c83a 	sub	r19,r19,r7
 80017a8:	81000e17 	ldw	r4,56(r16)
 80017ac:	80800417 	ldw	r2,16(r16)
 80017b0:	99a7883a 	add	r19,r19,r6
 80017b4:	2087c83a 	sub	r3,r4,r2
 80017b8:	98e7c83a 	sub	r19,r19,r3
 80017bc:	38c7883a 	add	r3,r7,r3
 80017c0:	b4c02b16 	blt	r22,r19,8001870 <_fseeko_r+0x2e0>
 80017c4:	98c9883a 	add	r4,r19,r3
 80017c8:	b100292e 	bgeu	r22,r4,8001870 <_fseeko_r+0x2e0>
 80017cc:	b4e7c83a 	sub	r19,r22,r19
 80017d0:	14c5883a 	add	r2,r2,r19
 80017d4:	1ce7c83a 	sub	r19,r3,r19
 80017d8:	80800015 	stw	r2,0(r16)
 80017dc:	84c00115 	stw	r19,4(r16)
 80017e0:	28000526 	beq	r5,zero,80017f8 <_fseeko_r+0x268>
 80017e4:	80801004 	addi	r2,r16,64
 80017e8:	28800226 	beq	r5,r2,80017f4 <_fseeko_r+0x264>
 80017ec:	8809883a 	mov	r4,r17
 80017f0:	80012600 	call	8001260 <_free_r>
 80017f4:	80000c15 	stw	zero,48(r16)
 80017f8:	8080030b 	ldhu	r2,12(r16)
 80017fc:	01800204 	movi	r6,8
 8001800:	000b883a 	mov	r5,zero
 8001804:	10bff7cc 	andi	r2,r2,65503
 8001808:	8080030d 	sth	r2,12(r16)
 800180c:	81001704 	addi	r4,r16,92
 8001810:	80026e40 	call	80026e4 <memset>
 8001814:	0027883a 	mov	r19,zero
 8001818:	003f7c06 	br	800160c <__alt_data_end+0xf800160c>
 800181c:	80c00117 	ldw	r3,4(r16)
 8001820:	80800c17 	ldw	r2,48(r16)
 8001824:	98e7c83a 	sub	r19,r19,r3
 8001828:	10003b26 	beq	r2,zero,8001918 <_fseeko_r+0x388>
 800182c:	80c00f17 	ldw	r3,60(r16)
 8001830:	80800417 	ldw	r2,16(r16)
 8001834:	98e7c83a 	sub	r19,r19,r3
 8001838:	003fbc06 	br	800172c <__alt_data_end+0xf800172c>
 800183c:	8140038f 	ldh	r5,14(r16)
 8001840:	d80d883a 	mov	r6,sp
 8001844:	8809883a 	mov	r4,r17
 8001848:	80019f00 	call	80019f0 <_fstat_r>
 800184c:	103f891e 	bne	r2,zero,8001674 <__alt_data_end+0xf8001674>
 8001850:	dd800417 	ldw	r22,16(sp)
 8001854:	adad883a 	add	r22,r21,r22
 8001858:	b83fc926 	beq	r23,zero,8001780 <__alt_data_end+0xf8001780>
 800185c:	81400c17 	ldw	r5,48(r16)
 8001860:	81800117 	ldw	r6,4(r16)
 8001864:	28005026 	beq	r5,zero,80019a8 <_fseeko_r+0x418>
 8001868:	81c00f17 	ldw	r7,60(r16)
 800186c:	003fce06 	br	80017a8 <__alt_data_end+0xf80017a8>
 8001870:	84c01317 	ldw	r19,76(r16)
 8001874:	81400717 	ldw	r5,28(r16)
 8001878:	000f883a 	mov	r7,zero
 800187c:	04e7c83a 	sub	r19,zero,r19
 8001880:	9da6703a 	and	r19,r19,r22
 8001884:	980d883a 	mov	r6,r19
 8001888:	8809883a 	mov	r4,r17
 800188c:	a03ee83a 	callr	r20
 8001890:	00ffffc4 	movi	r3,-1
 8001894:	10ff7726 	beq	r2,r3,8001674 <__alt_data_end+0xf8001674>
 8001898:	80800417 	ldw	r2,16(r16)
 800189c:	81400c17 	ldw	r5,48(r16)
 80018a0:	80000115 	stw	zero,4(r16)
 80018a4:	80800015 	stw	r2,0(r16)
 80018a8:	28000526 	beq	r5,zero,80018c0 <_fseeko_r+0x330>
 80018ac:	80801004 	addi	r2,r16,64
 80018b0:	28800226 	beq	r5,r2,80018bc <_fseeko_r+0x32c>
 80018b4:	8809883a 	mov	r4,r17
 80018b8:	80012600 	call	8001260 <_free_r>
 80018bc:	80000c15 	stw	zero,48(r16)
 80018c0:	8080030b 	ldhu	r2,12(r16)
 80018c4:	b4e7c83a 	sub	r19,r22,r19
 80018c8:	10bff7cc 	andi	r2,r2,65503
 80018cc:	8080030d 	sth	r2,12(r16)
 80018d0:	98000b26 	beq	r19,zero,8001900 <_fseeko_r+0x370>
 80018d4:	800b883a 	mov	r5,r16
 80018d8:	8809883a 	mov	r4,r17
 80018dc:	8002a7c0 	call	8002a7c <__srefill_r>
 80018e0:	103f641e 	bne	r2,zero,8001674 <__alt_data_end+0xf8001674>
 80018e4:	80800117 	ldw	r2,4(r16)
 80018e8:	14ff6236 	bltu	r2,r19,8001674 <__alt_data_end+0xf8001674>
 80018ec:	80c00017 	ldw	r3,0(r16)
 80018f0:	14c5c83a 	sub	r2,r2,r19
 80018f4:	80800115 	stw	r2,4(r16)
 80018f8:	1ce7883a 	add	r19,r3,r19
 80018fc:	84c00015 	stw	r19,0(r16)
 8001900:	01800204 	movi	r6,8
 8001904:	000b883a 	mov	r5,zero
 8001908:	81001704 	addi	r4,r16,92
 800190c:	80026e40 	call	80026e4 <memset>
 8001910:	0027883a 	mov	r19,zero
 8001914:	003f3d06 	br	800160c <__alt_data_end+0xf800160c>
 8001918:	80800417 	ldw	r2,16(r16)
 800191c:	003f8306 	br	800172c <__alt_data_end+0xf800172c>
 8001920:	81400717 	ldw	r5,28(r16)
 8001924:	900f883a 	mov	r7,r18
 8001928:	000d883a 	mov	r6,zero
 800192c:	8809883a 	mov	r4,r17
 8001930:	a03ee83a 	callr	r20
 8001934:	1027883a 	mov	r19,r2
 8001938:	00bfffc4 	movi	r2,-1
 800193c:	98bf3226 	beq	r19,r2,8001608 <__alt_data_end+0xf8001608>
 8001940:	8080030b 	ldhu	r2,12(r16)
 8001944:	003f7006 	br	8001708 <__alt_data_end+0xf8001708>
 8001948:	8140038f 	ldh	r5,14(r16)
 800194c:	283f4716 	blt	r5,zero,800166c <__alt_data_end+0xf800166c>
 8001950:	d80d883a 	mov	r6,sp
 8001954:	8809883a 	mov	r4,r17
 8001958:	80019f00 	call	80019f0 <_fstat_r>
 800195c:	1000041e 	bne	r2,zero,8001970 <_fseeko_r+0x3e0>
 8001960:	d8800117 	ldw	r2,4(sp)
 8001964:	00e00014 	movui	r3,32768
 8001968:	10bc000c 	andi	r2,r2,61440
 800196c:	10ff7c26 	beq	r2,r3,8001760 <__alt_data_end+0xf8001760>
 8001970:	8080030b 	ldhu	r2,12(r16)
 8001974:	003f3d06 	br	800166c <__alt_data_end+0xf800166c>
 8001978:	800b883a 	mov	r5,r16
 800197c:	8809883a 	mov	r4,r17
 8001980:	8001bd40 	call	8001bd4 <__smakebuf_r>
 8001984:	003f3106 	br	800164c <__alt_data_end+0xf800164c>
 8001988:	81400717 	ldw	r5,28(r16)
 800198c:	01c00044 	movi	r7,1
 8001990:	000d883a 	mov	r6,zero
 8001994:	8809883a 	mov	r4,r17
 8001998:	a03ee83a 	callr	r20
 800199c:	00ffffc4 	movi	r3,-1
 80019a0:	10ff7b1e 	bne	r2,r3,8001790 <__alt_data_end+0xf8001790>
 80019a4:	003f3306 	br	8001674 <__alt_data_end+0xf8001674>
 80019a8:	80c00017 	ldw	r3,0(r16)
 80019ac:	80800417 	ldw	r2,16(r16)
 80019b0:	000b883a 	mov	r5,zero
 80019b4:	1887c83a 	sub	r3,r3,r2
 80019b8:	98e7c83a 	sub	r19,r19,r3
 80019bc:	30c7883a 	add	r3,r6,r3
 80019c0:	003f7f06 	br	80017c0 <__alt_data_end+0xf80017c0>
 80019c4:	00800744 	movi	r2,29
 80019c8:	88800015 	stw	r2,0(r17)
 80019cc:	04ffffc4 	movi	r19,-1
 80019d0:	003f0e06 	br	800160c <__alt_data_end+0xf800160c>

080019d4 <fseeko>:
 80019d4:	00820074 	movhi	r2,2049
 80019d8:	109ecc04 	addi	r2,r2,31536
 80019dc:	300f883a 	mov	r7,r6
 80019e0:	280d883a 	mov	r6,r5
 80019e4:	200b883a 	mov	r5,r4
 80019e8:	11000017 	ldw	r4,0(r2)
 80019ec:	80015901 	jmpi	8001590 <_fseeko_r>

080019f0 <_fstat_r>:
 80019f0:	defffd04 	addi	sp,sp,-12
 80019f4:	2805883a 	mov	r2,r5
 80019f8:	dc000015 	stw	r16,0(sp)
 80019fc:	040200b4 	movhi	r16,2050
 8001a00:	dc400115 	stw	r17,4(sp)
 8001a04:	8425ad04 	addi	r16,r16,-26956
 8001a08:	2023883a 	mov	r17,r4
 8001a0c:	300b883a 	mov	r5,r6
 8001a10:	1009883a 	mov	r4,r2
 8001a14:	dfc00215 	stw	ra,8(sp)
 8001a18:	80000015 	stw	zero,0(r16)
 8001a1c:	800e5f00 	call	800e5f0 <fstat>
 8001a20:	00ffffc4 	movi	r3,-1
 8001a24:	10c00526 	beq	r2,r3,8001a3c <_fstat_r+0x4c>
 8001a28:	dfc00217 	ldw	ra,8(sp)
 8001a2c:	dc400117 	ldw	r17,4(sp)
 8001a30:	dc000017 	ldw	r16,0(sp)
 8001a34:	dec00304 	addi	sp,sp,12
 8001a38:	f800283a 	ret
 8001a3c:	80c00017 	ldw	r3,0(r16)
 8001a40:	183ff926 	beq	r3,zero,8001a28 <__alt_data_end+0xf8001a28>
 8001a44:	88c00015 	stw	r3,0(r17)
 8001a48:	003ff706 	br	8001a28 <__alt_data_end+0xf8001a28>

08001a4c <_fwalk>:
 8001a4c:	defff704 	addi	sp,sp,-36
 8001a50:	dd000415 	stw	r20,16(sp)
 8001a54:	dfc00815 	stw	ra,32(sp)
 8001a58:	ddc00715 	stw	r23,28(sp)
 8001a5c:	dd800615 	stw	r22,24(sp)
 8001a60:	dd400515 	stw	r21,20(sp)
 8001a64:	dcc00315 	stw	r19,12(sp)
 8001a68:	dc800215 	stw	r18,8(sp)
 8001a6c:	dc400115 	stw	r17,4(sp)
 8001a70:	dc000015 	stw	r16,0(sp)
 8001a74:	2500b804 	addi	r20,r4,736
 8001a78:	a0002326 	beq	r20,zero,8001b08 <_fwalk+0xbc>
 8001a7c:	282b883a 	mov	r21,r5
 8001a80:	002f883a 	mov	r23,zero
 8001a84:	05800044 	movi	r22,1
 8001a88:	04ffffc4 	movi	r19,-1
 8001a8c:	a4400117 	ldw	r17,4(r20)
 8001a90:	a4800217 	ldw	r18,8(r20)
 8001a94:	8c7fffc4 	addi	r17,r17,-1
 8001a98:	88000d16 	blt	r17,zero,8001ad0 <_fwalk+0x84>
 8001a9c:	94000304 	addi	r16,r18,12
 8001aa0:	94800384 	addi	r18,r18,14
 8001aa4:	8080000b 	ldhu	r2,0(r16)
 8001aa8:	8c7fffc4 	addi	r17,r17,-1
 8001aac:	813ffd04 	addi	r4,r16,-12
 8001ab0:	b080042e 	bgeu	r22,r2,8001ac4 <_fwalk+0x78>
 8001ab4:	9080000f 	ldh	r2,0(r18)
 8001ab8:	14c00226 	beq	r2,r19,8001ac4 <_fwalk+0x78>
 8001abc:	a83ee83a 	callr	r21
 8001ac0:	b8aeb03a 	or	r23,r23,r2
 8001ac4:	84001a04 	addi	r16,r16,104
 8001ac8:	94801a04 	addi	r18,r18,104
 8001acc:	8cfff51e 	bne	r17,r19,8001aa4 <__alt_data_end+0xf8001aa4>
 8001ad0:	a5000017 	ldw	r20,0(r20)
 8001ad4:	a03fed1e 	bne	r20,zero,8001a8c <__alt_data_end+0xf8001a8c>
 8001ad8:	b805883a 	mov	r2,r23
 8001adc:	dfc00817 	ldw	ra,32(sp)
 8001ae0:	ddc00717 	ldw	r23,28(sp)
 8001ae4:	dd800617 	ldw	r22,24(sp)
 8001ae8:	dd400517 	ldw	r21,20(sp)
 8001aec:	dd000417 	ldw	r20,16(sp)
 8001af0:	dcc00317 	ldw	r19,12(sp)
 8001af4:	dc800217 	ldw	r18,8(sp)
 8001af8:	dc400117 	ldw	r17,4(sp)
 8001afc:	dc000017 	ldw	r16,0(sp)
 8001b00:	dec00904 	addi	sp,sp,36
 8001b04:	f800283a 	ret
 8001b08:	002f883a 	mov	r23,zero
 8001b0c:	003ff206 	br	8001ad8 <__alt_data_end+0xf8001ad8>

08001b10 <_fwalk_reent>:
 8001b10:	defff704 	addi	sp,sp,-36
 8001b14:	dd000415 	stw	r20,16(sp)
 8001b18:	dfc00815 	stw	ra,32(sp)
 8001b1c:	ddc00715 	stw	r23,28(sp)
 8001b20:	dd800615 	stw	r22,24(sp)
 8001b24:	dd400515 	stw	r21,20(sp)
 8001b28:	dcc00315 	stw	r19,12(sp)
 8001b2c:	dc800215 	stw	r18,8(sp)
 8001b30:	dc400115 	stw	r17,4(sp)
 8001b34:	dc000015 	stw	r16,0(sp)
 8001b38:	2500b804 	addi	r20,r4,736
 8001b3c:	a0002326 	beq	r20,zero,8001bcc <_fwalk_reent+0xbc>
 8001b40:	282b883a 	mov	r21,r5
 8001b44:	2027883a 	mov	r19,r4
 8001b48:	002f883a 	mov	r23,zero
 8001b4c:	05800044 	movi	r22,1
 8001b50:	04bfffc4 	movi	r18,-1
 8001b54:	a4400117 	ldw	r17,4(r20)
 8001b58:	a4000217 	ldw	r16,8(r20)
 8001b5c:	8c7fffc4 	addi	r17,r17,-1
 8001b60:	88000c16 	blt	r17,zero,8001b94 <_fwalk_reent+0x84>
 8001b64:	84000304 	addi	r16,r16,12
 8001b68:	8080000b 	ldhu	r2,0(r16)
 8001b6c:	8c7fffc4 	addi	r17,r17,-1
 8001b70:	817ffd04 	addi	r5,r16,-12
 8001b74:	b080052e 	bgeu	r22,r2,8001b8c <_fwalk_reent+0x7c>
 8001b78:	8080008f 	ldh	r2,2(r16)
 8001b7c:	9809883a 	mov	r4,r19
 8001b80:	14800226 	beq	r2,r18,8001b8c <_fwalk_reent+0x7c>
 8001b84:	a83ee83a 	callr	r21
 8001b88:	b8aeb03a 	or	r23,r23,r2
 8001b8c:	84001a04 	addi	r16,r16,104
 8001b90:	8cbff51e 	bne	r17,r18,8001b68 <__alt_data_end+0xf8001b68>
 8001b94:	a5000017 	ldw	r20,0(r20)
 8001b98:	a03fee1e 	bne	r20,zero,8001b54 <__alt_data_end+0xf8001b54>
 8001b9c:	b805883a 	mov	r2,r23
 8001ba0:	dfc00817 	ldw	ra,32(sp)
 8001ba4:	ddc00717 	ldw	r23,28(sp)
 8001ba8:	dd800617 	ldw	r22,24(sp)
 8001bac:	dd400517 	ldw	r21,20(sp)
 8001bb0:	dd000417 	ldw	r20,16(sp)
 8001bb4:	dcc00317 	ldw	r19,12(sp)
 8001bb8:	dc800217 	ldw	r18,8(sp)
 8001bbc:	dc400117 	ldw	r17,4(sp)
 8001bc0:	dc000017 	ldw	r16,0(sp)
 8001bc4:	dec00904 	addi	sp,sp,36
 8001bc8:	f800283a 	ret
 8001bcc:	002f883a 	mov	r23,zero
 8001bd0:	003ff206 	br	8001b9c <__alt_data_end+0xf8001b9c>

08001bd4 <__smakebuf_r>:
 8001bd4:	2880030b 	ldhu	r2,12(r5)
 8001bd8:	10c0008c 	andi	r3,r2,2
 8001bdc:	1800411e 	bne	r3,zero,8001ce4 <__smakebuf_r+0x110>
 8001be0:	deffec04 	addi	sp,sp,-80
 8001be4:	dc000f15 	stw	r16,60(sp)
 8001be8:	2821883a 	mov	r16,r5
 8001bec:	2940038f 	ldh	r5,14(r5)
 8001bf0:	dc401015 	stw	r17,64(sp)
 8001bf4:	dfc01315 	stw	ra,76(sp)
 8001bf8:	dcc01215 	stw	r19,72(sp)
 8001bfc:	dc801115 	stw	r18,68(sp)
 8001c00:	2023883a 	mov	r17,r4
 8001c04:	28001c16 	blt	r5,zero,8001c78 <__smakebuf_r+0xa4>
 8001c08:	d80d883a 	mov	r6,sp
 8001c0c:	80019f00 	call	80019f0 <_fstat_r>
 8001c10:	10001816 	blt	r2,zero,8001c74 <__smakebuf_r+0xa0>
 8001c14:	d8800117 	ldw	r2,4(sp)
 8001c18:	00e00014 	movui	r3,32768
 8001c1c:	10bc000c 	andi	r2,r2,61440
 8001c20:	14c80020 	cmpeqi	r19,r2,8192
 8001c24:	10c03726 	beq	r2,r3,8001d04 <__smakebuf_r+0x130>
 8001c28:	80c0030b 	ldhu	r3,12(r16)
 8001c2c:	18c20014 	ori	r3,r3,2048
 8001c30:	80c0030d 	sth	r3,12(r16)
 8001c34:	00c80004 	movi	r3,8192
 8001c38:	10c0521e 	bne	r2,r3,8001d84 <__smakebuf_r+0x1b0>
 8001c3c:	8140038f 	ldh	r5,14(r16)
 8001c40:	8809883a 	mov	r4,r17
 8001c44:	80079140 	call	8007914 <_isatty_r>
 8001c48:	10004c26 	beq	r2,zero,8001d7c <__smakebuf_r+0x1a8>
 8001c4c:	8080030b 	ldhu	r2,12(r16)
 8001c50:	80c010c4 	addi	r3,r16,67
 8001c54:	80c00015 	stw	r3,0(r16)
 8001c58:	10800054 	ori	r2,r2,1
 8001c5c:	8080030d 	sth	r2,12(r16)
 8001c60:	00800044 	movi	r2,1
 8001c64:	80c00415 	stw	r3,16(r16)
 8001c68:	80800515 	stw	r2,20(r16)
 8001c6c:	04810004 	movi	r18,1024
 8001c70:	00000706 	br	8001c90 <__smakebuf_r+0xbc>
 8001c74:	8080030b 	ldhu	r2,12(r16)
 8001c78:	10c0200c 	andi	r3,r2,128
 8001c7c:	18001f1e 	bne	r3,zero,8001cfc <__smakebuf_r+0x128>
 8001c80:	04810004 	movi	r18,1024
 8001c84:	10820014 	ori	r2,r2,2048
 8001c88:	8080030d 	sth	r2,12(r16)
 8001c8c:	0027883a 	mov	r19,zero
 8001c90:	900b883a 	mov	r5,r18
 8001c94:	8809883a 	mov	r4,r17
 8001c98:	8001d900 	call	8001d90 <_malloc_r>
 8001c9c:	10002c26 	beq	r2,zero,8001d50 <__smakebuf_r+0x17c>
 8001ca0:	80c0030b 	ldhu	r3,12(r16)
 8001ca4:	01020034 	movhi	r4,2048
 8001ca8:	21028e04 	addi	r4,r4,2616
 8001cac:	89000f15 	stw	r4,60(r17)
 8001cb0:	18c02014 	ori	r3,r3,128
 8001cb4:	80c0030d 	sth	r3,12(r16)
 8001cb8:	80800015 	stw	r2,0(r16)
 8001cbc:	80800415 	stw	r2,16(r16)
 8001cc0:	84800515 	stw	r18,20(r16)
 8001cc4:	98001a1e 	bne	r19,zero,8001d30 <__smakebuf_r+0x15c>
 8001cc8:	dfc01317 	ldw	ra,76(sp)
 8001ccc:	dcc01217 	ldw	r19,72(sp)
 8001cd0:	dc801117 	ldw	r18,68(sp)
 8001cd4:	dc401017 	ldw	r17,64(sp)
 8001cd8:	dc000f17 	ldw	r16,60(sp)
 8001cdc:	dec01404 	addi	sp,sp,80
 8001ce0:	f800283a 	ret
 8001ce4:	288010c4 	addi	r2,r5,67
 8001ce8:	28800015 	stw	r2,0(r5)
 8001cec:	28800415 	stw	r2,16(r5)
 8001cf0:	00800044 	movi	r2,1
 8001cf4:	28800515 	stw	r2,20(r5)
 8001cf8:	f800283a 	ret
 8001cfc:	04801004 	movi	r18,64
 8001d00:	003fe006 	br	8001c84 <__alt_data_end+0xf8001c84>
 8001d04:	81000a17 	ldw	r4,40(r16)
 8001d08:	00c20034 	movhi	r3,2048
 8001d0c:	18cb5f04 	addi	r3,r3,11644
 8001d10:	20ffc51e 	bne	r4,r3,8001c28 <__alt_data_end+0xf8001c28>
 8001d14:	8080030b 	ldhu	r2,12(r16)
 8001d18:	04810004 	movi	r18,1024
 8001d1c:	84801315 	stw	r18,76(r16)
 8001d20:	1484b03a 	or	r2,r2,r18
 8001d24:	8080030d 	sth	r2,12(r16)
 8001d28:	0027883a 	mov	r19,zero
 8001d2c:	003fd806 	br	8001c90 <__alt_data_end+0xf8001c90>
 8001d30:	8140038f 	ldh	r5,14(r16)
 8001d34:	8809883a 	mov	r4,r17
 8001d38:	80079140 	call	8007914 <_isatty_r>
 8001d3c:	103fe226 	beq	r2,zero,8001cc8 <__alt_data_end+0xf8001cc8>
 8001d40:	8080030b 	ldhu	r2,12(r16)
 8001d44:	10800054 	ori	r2,r2,1
 8001d48:	8080030d 	sth	r2,12(r16)
 8001d4c:	003fde06 	br	8001cc8 <__alt_data_end+0xf8001cc8>
 8001d50:	8080030b 	ldhu	r2,12(r16)
 8001d54:	10c0800c 	andi	r3,r2,512
 8001d58:	183fdb1e 	bne	r3,zero,8001cc8 <__alt_data_end+0xf8001cc8>
 8001d5c:	10800094 	ori	r2,r2,2
 8001d60:	80c010c4 	addi	r3,r16,67
 8001d64:	8080030d 	sth	r2,12(r16)
 8001d68:	00800044 	movi	r2,1
 8001d6c:	80c00015 	stw	r3,0(r16)
 8001d70:	80c00415 	stw	r3,16(r16)
 8001d74:	80800515 	stw	r2,20(r16)
 8001d78:	003fd306 	br	8001cc8 <__alt_data_end+0xf8001cc8>
 8001d7c:	04810004 	movi	r18,1024
 8001d80:	003fc306 	br	8001c90 <__alt_data_end+0xf8001c90>
 8001d84:	0027883a 	mov	r19,zero
 8001d88:	04810004 	movi	r18,1024
 8001d8c:	003fc006 	br	8001c90 <__alt_data_end+0xf8001c90>

08001d90 <_malloc_r>:
 8001d90:	defff504 	addi	sp,sp,-44
 8001d94:	dc800315 	stw	r18,12(sp)
 8001d98:	dfc00a15 	stw	ra,40(sp)
 8001d9c:	df000915 	stw	fp,36(sp)
 8001da0:	ddc00815 	stw	r23,32(sp)
 8001da4:	dd800715 	stw	r22,28(sp)
 8001da8:	dd400615 	stw	r21,24(sp)
 8001dac:	dd000515 	stw	r20,20(sp)
 8001db0:	dcc00415 	stw	r19,16(sp)
 8001db4:	dc400215 	stw	r17,8(sp)
 8001db8:	dc000115 	stw	r16,4(sp)
 8001dbc:	288002c4 	addi	r2,r5,11
 8001dc0:	00c00584 	movi	r3,22
 8001dc4:	2025883a 	mov	r18,r4
 8001dc8:	18807f2e 	bgeu	r3,r2,8001fc8 <_malloc_r+0x238>
 8001dcc:	047ffe04 	movi	r17,-8
 8001dd0:	1462703a 	and	r17,r2,r17
 8001dd4:	8800a316 	blt	r17,zero,8002064 <_malloc_r+0x2d4>
 8001dd8:	8940a236 	bltu	r17,r5,8002064 <_malloc_r+0x2d4>
 8001ddc:	800e9f80 	call	800e9f8 <__malloc_lock>
 8001de0:	00807dc4 	movi	r2,503
 8001de4:	1441e92e 	bgeu	r2,r17,800258c <_malloc_r+0x7fc>
 8001de8:	8804d27a 	srli	r2,r17,9
 8001dec:	1000a126 	beq	r2,zero,8002074 <_malloc_r+0x2e4>
 8001df0:	00c00104 	movi	r3,4
 8001df4:	18811e36 	bltu	r3,r2,8002270 <_malloc_r+0x4e0>
 8001df8:	8804d1ba 	srli	r2,r17,6
 8001dfc:	12000e44 	addi	r8,r2,57
 8001e00:	11c00e04 	addi	r7,r2,56
 8001e04:	4209883a 	add	r4,r8,r8
 8001e08:	04c20074 	movhi	r19,2049
 8001e0c:	2109883a 	add	r4,r4,r4
 8001e10:	9cd91304 	addi	r19,r19,25676
 8001e14:	2109883a 	add	r4,r4,r4
 8001e18:	9909883a 	add	r4,r19,r4
 8001e1c:	24000117 	ldw	r16,4(r4)
 8001e20:	213ffe04 	addi	r4,r4,-8
 8001e24:	24009726 	beq	r4,r16,8002084 <_malloc_r+0x2f4>
 8001e28:	80800117 	ldw	r2,4(r16)
 8001e2c:	01bfff04 	movi	r6,-4
 8001e30:	014003c4 	movi	r5,15
 8001e34:	1184703a 	and	r2,r2,r6
 8001e38:	1447c83a 	sub	r3,r2,r17
 8001e3c:	28c00716 	blt	r5,r3,8001e5c <_malloc_r+0xcc>
 8001e40:	1800920e 	bge	r3,zero,800208c <_malloc_r+0x2fc>
 8001e44:	84000317 	ldw	r16,12(r16)
 8001e48:	24008e26 	beq	r4,r16,8002084 <_malloc_r+0x2f4>
 8001e4c:	80800117 	ldw	r2,4(r16)
 8001e50:	1184703a 	and	r2,r2,r6
 8001e54:	1447c83a 	sub	r3,r2,r17
 8001e58:	28fff90e 	bge	r5,r3,8001e40 <__alt_data_end+0xf8001e40>
 8001e5c:	3809883a 	mov	r4,r7
 8001e60:	01820074 	movhi	r6,2049
 8001e64:	9c000417 	ldw	r16,16(r19)
 8001e68:	31991304 	addi	r6,r6,25676
 8001e6c:	32000204 	addi	r8,r6,8
 8001e70:	82013426 	beq	r16,r8,8002344 <_malloc_r+0x5b4>
 8001e74:	80c00117 	ldw	r3,4(r16)
 8001e78:	00bfff04 	movi	r2,-4
 8001e7c:	188e703a 	and	r7,r3,r2
 8001e80:	3c45c83a 	sub	r2,r7,r17
 8001e84:	00c003c4 	movi	r3,15
 8001e88:	18811f16 	blt	r3,r2,8002308 <_malloc_r+0x578>
 8001e8c:	32000515 	stw	r8,20(r6)
 8001e90:	32000415 	stw	r8,16(r6)
 8001e94:	10007f0e 	bge	r2,zero,8002094 <_malloc_r+0x304>
 8001e98:	00807fc4 	movi	r2,511
 8001e9c:	11c0fd36 	bltu	r2,r7,8002294 <_malloc_r+0x504>
 8001ea0:	3806d0fa 	srli	r3,r7,3
 8001ea4:	01c00044 	movi	r7,1
 8001ea8:	30800117 	ldw	r2,4(r6)
 8001eac:	19400044 	addi	r5,r3,1
 8001eb0:	294b883a 	add	r5,r5,r5
 8001eb4:	1807d0ba 	srai	r3,r3,2
 8001eb8:	294b883a 	add	r5,r5,r5
 8001ebc:	294b883a 	add	r5,r5,r5
 8001ec0:	298b883a 	add	r5,r5,r6
 8001ec4:	38c6983a 	sll	r3,r7,r3
 8001ec8:	29c00017 	ldw	r7,0(r5)
 8001ecc:	2a7ffe04 	addi	r9,r5,-8
 8001ed0:	1886b03a 	or	r3,r3,r2
 8001ed4:	82400315 	stw	r9,12(r16)
 8001ed8:	81c00215 	stw	r7,8(r16)
 8001edc:	30c00115 	stw	r3,4(r6)
 8001ee0:	2c000015 	stw	r16,0(r5)
 8001ee4:	3c000315 	stw	r16,12(r7)
 8001ee8:	2005d0ba 	srai	r2,r4,2
 8001eec:	01400044 	movi	r5,1
 8001ef0:	288a983a 	sll	r5,r5,r2
 8001ef4:	19406f36 	bltu	r3,r5,80020b4 <_malloc_r+0x324>
 8001ef8:	28c4703a 	and	r2,r5,r3
 8001efc:	10000a1e 	bne	r2,zero,8001f28 <_malloc_r+0x198>
 8001f00:	00bfff04 	movi	r2,-4
 8001f04:	294b883a 	add	r5,r5,r5
 8001f08:	2088703a 	and	r4,r4,r2
 8001f0c:	28c4703a 	and	r2,r5,r3
 8001f10:	21000104 	addi	r4,r4,4
 8001f14:	1000041e 	bne	r2,zero,8001f28 <_malloc_r+0x198>
 8001f18:	294b883a 	add	r5,r5,r5
 8001f1c:	28c4703a 	and	r2,r5,r3
 8001f20:	21000104 	addi	r4,r4,4
 8001f24:	103ffc26 	beq	r2,zero,8001f18 <__alt_data_end+0xf8001f18>
 8001f28:	02bfff04 	movi	r10,-4
 8001f2c:	024003c4 	movi	r9,15
 8001f30:	21800044 	addi	r6,r4,1
 8001f34:	318d883a 	add	r6,r6,r6
 8001f38:	318d883a 	add	r6,r6,r6
 8001f3c:	318d883a 	add	r6,r6,r6
 8001f40:	998d883a 	add	r6,r19,r6
 8001f44:	333ffe04 	addi	r12,r6,-8
 8001f48:	2017883a 	mov	r11,r4
 8001f4c:	31800104 	addi	r6,r6,4
 8001f50:	34000017 	ldw	r16,0(r6)
 8001f54:	31fffd04 	addi	r7,r6,-12
 8001f58:	81c0041e 	bne	r16,r7,8001f6c <_malloc_r+0x1dc>
 8001f5c:	0000fb06 	br	800234c <_malloc_r+0x5bc>
 8001f60:	1801030e 	bge	r3,zero,8002370 <_malloc_r+0x5e0>
 8001f64:	84000317 	ldw	r16,12(r16)
 8001f68:	81c0f826 	beq	r16,r7,800234c <_malloc_r+0x5bc>
 8001f6c:	80800117 	ldw	r2,4(r16)
 8001f70:	1284703a 	and	r2,r2,r10
 8001f74:	1447c83a 	sub	r3,r2,r17
 8001f78:	48fff90e 	bge	r9,r3,8001f60 <__alt_data_end+0xf8001f60>
 8001f7c:	80800317 	ldw	r2,12(r16)
 8001f80:	81000217 	ldw	r4,8(r16)
 8001f84:	89400054 	ori	r5,r17,1
 8001f88:	81400115 	stw	r5,4(r16)
 8001f8c:	20800315 	stw	r2,12(r4)
 8001f90:	11000215 	stw	r4,8(r2)
 8001f94:	8463883a 	add	r17,r16,r17
 8001f98:	9c400515 	stw	r17,20(r19)
 8001f9c:	9c400415 	stw	r17,16(r19)
 8001fa0:	18800054 	ori	r2,r3,1
 8001fa4:	88800115 	stw	r2,4(r17)
 8001fa8:	8a000315 	stw	r8,12(r17)
 8001fac:	8a000215 	stw	r8,8(r17)
 8001fb0:	88e3883a 	add	r17,r17,r3
 8001fb4:	88c00015 	stw	r3,0(r17)
 8001fb8:	9009883a 	mov	r4,r18
 8001fbc:	800ea1c0 	call	800ea1c <__malloc_unlock>
 8001fc0:	80800204 	addi	r2,r16,8
 8001fc4:	00001b06 	br	8002034 <_malloc_r+0x2a4>
 8001fc8:	04400404 	movi	r17,16
 8001fcc:	89402536 	bltu	r17,r5,8002064 <_malloc_r+0x2d4>
 8001fd0:	800e9f80 	call	800e9f8 <__malloc_lock>
 8001fd4:	00800184 	movi	r2,6
 8001fd8:	01000084 	movi	r4,2
 8001fdc:	04c20074 	movhi	r19,2049
 8001fe0:	1085883a 	add	r2,r2,r2
 8001fe4:	9cd91304 	addi	r19,r19,25676
 8001fe8:	1085883a 	add	r2,r2,r2
 8001fec:	9885883a 	add	r2,r19,r2
 8001ff0:	14000117 	ldw	r16,4(r2)
 8001ff4:	10fffe04 	addi	r3,r2,-8
 8001ff8:	80c0d926 	beq	r16,r3,8002360 <_malloc_r+0x5d0>
 8001ffc:	80c00117 	ldw	r3,4(r16)
 8002000:	81000317 	ldw	r4,12(r16)
 8002004:	00bfff04 	movi	r2,-4
 8002008:	1884703a 	and	r2,r3,r2
 800200c:	81400217 	ldw	r5,8(r16)
 8002010:	8085883a 	add	r2,r16,r2
 8002014:	10c00117 	ldw	r3,4(r2)
 8002018:	29000315 	stw	r4,12(r5)
 800201c:	21400215 	stw	r5,8(r4)
 8002020:	18c00054 	ori	r3,r3,1
 8002024:	10c00115 	stw	r3,4(r2)
 8002028:	9009883a 	mov	r4,r18
 800202c:	800ea1c0 	call	800ea1c <__malloc_unlock>
 8002030:	80800204 	addi	r2,r16,8
 8002034:	dfc00a17 	ldw	ra,40(sp)
 8002038:	df000917 	ldw	fp,36(sp)
 800203c:	ddc00817 	ldw	r23,32(sp)
 8002040:	dd800717 	ldw	r22,28(sp)
 8002044:	dd400617 	ldw	r21,24(sp)
 8002048:	dd000517 	ldw	r20,20(sp)
 800204c:	dcc00417 	ldw	r19,16(sp)
 8002050:	dc800317 	ldw	r18,12(sp)
 8002054:	dc400217 	ldw	r17,8(sp)
 8002058:	dc000117 	ldw	r16,4(sp)
 800205c:	dec00b04 	addi	sp,sp,44
 8002060:	f800283a 	ret
 8002064:	00800304 	movi	r2,12
 8002068:	90800015 	stw	r2,0(r18)
 800206c:	0005883a 	mov	r2,zero
 8002070:	003ff006 	br	8002034 <__alt_data_end+0xf8002034>
 8002074:	01002004 	movi	r4,128
 8002078:	02001004 	movi	r8,64
 800207c:	01c00fc4 	movi	r7,63
 8002080:	003f6106 	br	8001e08 <__alt_data_end+0xf8001e08>
 8002084:	4009883a 	mov	r4,r8
 8002088:	003f7506 	br	8001e60 <__alt_data_end+0xf8001e60>
 800208c:	81000317 	ldw	r4,12(r16)
 8002090:	003fde06 	br	800200c <__alt_data_end+0xf800200c>
 8002094:	81c5883a 	add	r2,r16,r7
 8002098:	11400117 	ldw	r5,4(r2)
 800209c:	9009883a 	mov	r4,r18
 80020a0:	29400054 	ori	r5,r5,1
 80020a4:	11400115 	stw	r5,4(r2)
 80020a8:	800ea1c0 	call	800ea1c <__malloc_unlock>
 80020ac:	80800204 	addi	r2,r16,8
 80020b0:	003fe006 	br	8002034 <__alt_data_end+0xf8002034>
 80020b4:	9c000217 	ldw	r16,8(r19)
 80020b8:	00bfff04 	movi	r2,-4
 80020bc:	85800117 	ldw	r22,4(r16)
 80020c0:	b0ac703a 	and	r22,r22,r2
 80020c4:	b4400336 	bltu	r22,r17,80020d4 <_malloc_r+0x344>
 80020c8:	b445c83a 	sub	r2,r22,r17
 80020cc:	00c003c4 	movi	r3,15
 80020d0:	18805d16 	blt	r3,r2,8002248 <_malloc_r+0x4b8>
 80020d4:	05c20074 	movhi	r23,2049
 80020d8:	008200b4 	movhi	r2,2050
 80020dc:	10a5b004 	addi	r2,r2,-26944
 80020e0:	bddecd04 	addi	r23,r23,31540
 80020e4:	15400017 	ldw	r21,0(r2)
 80020e8:	b8c00017 	ldw	r3,0(r23)
 80020ec:	00bfffc4 	movi	r2,-1
 80020f0:	858d883a 	add	r6,r16,r22
 80020f4:	8d6b883a 	add	r21,r17,r21
 80020f8:	1880ea26 	beq	r3,r2,80024a4 <_malloc_r+0x714>
 80020fc:	ad4403c4 	addi	r21,r21,4111
 8002100:	00bc0004 	movi	r2,-4096
 8002104:	a8aa703a 	and	r21,r21,r2
 8002108:	a80b883a 	mov	r5,r21
 800210c:	9009883a 	mov	r4,r18
 8002110:	d9800015 	stw	r6,0(sp)
 8002114:	8002c500 	call	8002c50 <_sbrk_r>
 8002118:	1029883a 	mov	r20,r2
 800211c:	00bfffc4 	movi	r2,-1
 8002120:	d9800017 	ldw	r6,0(sp)
 8002124:	a080e826 	beq	r20,r2,80024c8 <_malloc_r+0x738>
 8002128:	a180a636 	bltu	r20,r6,80023c4 <_malloc_r+0x634>
 800212c:	070200b4 	movhi	fp,2050
 8002130:	e725c804 	addi	fp,fp,-26848
 8002134:	e0800017 	ldw	r2,0(fp)
 8002138:	a887883a 	add	r3,r21,r2
 800213c:	e0c00015 	stw	r3,0(fp)
 8002140:	3500e626 	beq	r6,r20,80024dc <_malloc_r+0x74c>
 8002144:	b9000017 	ldw	r4,0(r23)
 8002148:	00bfffc4 	movi	r2,-1
 800214c:	2080ee26 	beq	r4,r2,8002508 <_malloc_r+0x778>
 8002150:	a185c83a 	sub	r2,r20,r6
 8002154:	10c5883a 	add	r2,r2,r3
 8002158:	e0800015 	stw	r2,0(fp)
 800215c:	a0c001cc 	andi	r3,r20,7
 8002160:	1800bc26 	beq	r3,zero,8002454 <_malloc_r+0x6c4>
 8002164:	a0e9c83a 	sub	r20,r20,r3
 8002168:	00840204 	movi	r2,4104
 800216c:	a5000204 	addi	r20,r20,8
 8002170:	10c7c83a 	sub	r3,r2,r3
 8002174:	a545883a 	add	r2,r20,r21
 8002178:	1083ffcc 	andi	r2,r2,4095
 800217c:	18abc83a 	sub	r21,r3,r2
 8002180:	a80b883a 	mov	r5,r21
 8002184:	9009883a 	mov	r4,r18
 8002188:	8002c500 	call	8002c50 <_sbrk_r>
 800218c:	00ffffc4 	movi	r3,-1
 8002190:	10c0e126 	beq	r2,r3,8002518 <_malloc_r+0x788>
 8002194:	1505c83a 	sub	r2,r2,r20
 8002198:	1545883a 	add	r2,r2,r21
 800219c:	10800054 	ori	r2,r2,1
 80021a0:	e0c00017 	ldw	r3,0(fp)
 80021a4:	9d000215 	stw	r20,8(r19)
 80021a8:	a0800115 	stw	r2,4(r20)
 80021ac:	a8c7883a 	add	r3,r21,r3
 80021b0:	e0c00015 	stw	r3,0(fp)
 80021b4:	84c00e26 	beq	r16,r19,80021f0 <_malloc_r+0x460>
 80021b8:	018003c4 	movi	r6,15
 80021bc:	3580a72e 	bgeu	r6,r22,800245c <_malloc_r+0x6cc>
 80021c0:	81400117 	ldw	r5,4(r16)
 80021c4:	013ffe04 	movi	r4,-8
 80021c8:	b0bffd04 	addi	r2,r22,-12
 80021cc:	1104703a 	and	r2,r2,r4
 80021d0:	2900004c 	andi	r4,r5,1
 80021d4:	2088b03a 	or	r4,r4,r2
 80021d8:	81000115 	stw	r4,4(r16)
 80021dc:	01400144 	movi	r5,5
 80021e0:	8089883a 	add	r4,r16,r2
 80021e4:	21400115 	stw	r5,4(r4)
 80021e8:	21400215 	stw	r5,8(r4)
 80021ec:	3080cd36 	bltu	r6,r2,8002524 <_malloc_r+0x794>
 80021f0:	008200b4 	movhi	r2,2050
 80021f4:	10a5af04 	addi	r2,r2,-26948
 80021f8:	11000017 	ldw	r4,0(r2)
 80021fc:	20c0012e 	bgeu	r4,r3,8002204 <_malloc_r+0x474>
 8002200:	10c00015 	stw	r3,0(r2)
 8002204:	008200b4 	movhi	r2,2050
 8002208:	10a5ae04 	addi	r2,r2,-26952
 800220c:	11000017 	ldw	r4,0(r2)
 8002210:	9c000217 	ldw	r16,8(r19)
 8002214:	20c0012e 	bgeu	r4,r3,800221c <_malloc_r+0x48c>
 8002218:	10c00015 	stw	r3,0(r2)
 800221c:	80c00117 	ldw	r3,4(r16)
 8002220:	00bfff04 	movi	r2,-4
 8002224:	1886703a 	and	r3,r3,r2
 8002228:	1c45c83a 	sub	r2,r3,r17
 800222c:	1c400236 	bltu	r3,r17,8002238 <_malloc_r+0x4a8>
 8002230:	00c003c4 	movi	r3,15
 8002234:	18800416 	blt	r3,r2,8002248 <_malloc_r+0x4b8>
 8002238:	9009883a 	mov	r4,r18
 800223c:	800ea1c0 	call	800ea1c <__malloc_unlock>
 8002240:	0005883a 	mov	r2,zero
 8002244:	003f7b06 	br	8002034 <__alt_data_end+0xf8002034>
 8002248:	88c00054 	ori	r3,r17,1
 800224c:	80c00115 	stw	r3,4(r16)
 8002250:	8463883a 	add	r17,r16,r17
 8002254:	10800054 	ori	r2,r2,1
 8002258:	9c400215 	stw	r17,8(r19)
 800225c:	88800115 	stw	r2,4(r17)
 8002260:	9009883a 	mov	r4,r18
 8002264:	800ea1c0 	call	800ea1c <__malloc_unlock>
 8002268:	80800204 	addi	r2,r16,8
 800226c:	003f7106 	br	8002034 <__alt_data_end+0xf8002034>
 8002270:	00c00504 	movi	r3,20
 8002274:	18804a2e 	bgeu	r3,r2,80023a0 <_malloc_r+0x610>
 8002278:	00c01504 	movi	r3,84
 800227c:	18806e36 	bltu	r3,r2,8002438 <_malloc_r+0x6a8>
 8002280:	8804d33a 	srli	r2,r17,12
 8002284:	12001bc4 	addi	r8,r2,111
 8002288:	11c01b84 	addi	r7,r2,110
 800228c:	4209883a 	add	r4,r8,r8
 8002290:	003edd06 	br	8001e08 <__alt_data_end+0xf8001e08>
 8002294:	3804d27a 	srli	r2,r7,9
 8002298:	00c00104 	movi	r3,4
 800229c:	1880442e 	bgeu	r3,r2,80023b0 <_malloc_r+0x620>
 80022a0:	00c00504 	movi	r3,20
 80022a4:	18808136 	bltu	r3,r2,80024ac <_malloc_r+0x71c>
 80022a8:	11401704 	addi	r5,r2,92
 80022ac:	10c016c4 	addi	r3,r2,91
 80022b0:	294b883a 	add	r5,r5,r5
 80022b4:	294b883a 	add	r5,r5,r5
 80022b8:	294b883a 	add	r5,r5,r5
 80022bc:	994b883a 	add	r5,r19,r5
 80022c0:	28800017 	ldw	r2,0(r5)
 80022c4:	01820074 	movhi	r6,2049
 80022c8:	297ffe04 	addi	r5,r5,-8
 80022cc:	31991304 	addi	r6,r6,25676
 80022d0:	28806526 	beq	r5,r2,8002468 <_malloc_r+0x6d8>
 80022d4:	01bfff04 	movi	r6,-4
 80022d8:	10c00117 	ldw	r3,4(r2)
 80022dc:	1986703a 	and	r3,r3,r6
 80022e0:	38c0022e 	bgeu	r7,r3,80022ec <_malloc_r+0x55c>
 80022e4:	10800217 	ldw	r2,8(r2)
 80022e8:	28bffb1e 	bne	r5,r2,80022d8 <__alt_data_end+0xf80022d8>
 80022ec:	11400317 	ldw	r5,12(r2)
 80022f0:	98c00117 	ldw	r3,4(r19)
 80022f4:	81400315 	stw	r5,12(r16)
 80022f8:	80800215 	stw	r2,8(r16)
 80022fc:	2c000215 	stw	r16,8(r5)
 8002300:	14000315 	stw	r16,12(r2)
 8002304:	003ef806 	br	8001ee8 <__alt_data_end+0xf8001ee8>
 8002308:	88c00054 	ori	r3,r17,1
 800230c:	80c00115 	stw	r3,4(r16)
 8002310:	8463883a 	add	r17,r16,r17
 8002314:	34400515 	stw	r17,20(r6)
 8002318:	34400415 	stw	r17,16(r6)
 800231c:	10c00054 	ori	r3,r2,1
 8002320:	8a000315 	stw	r8,12(r17)
 8002324:	8a000215 	stw	r8,8(r17)
 8002328:	88c00115 	stw	r3,4(r17)
 800232c:	88a3883a 	add	r17,r17,r2
 8002330:	88800015 	stw	r2,0(r17)
 8002334:	9009883a 	mov	r4,r18
 8002338:	800ea1c0 	call	800ea1c <__malloc_unlock>
 800233c:	80800204 	addi	r2,r16,8
 8002340:	003f3c06 	br	8002034 <__alt_data_end+0xf8002034>
 8002344:	30c00117 	ldw	r3,4(r6)
 8002348:	003ee706 	br	8001ee8 <__alt_data_end+0xf8001ee8>
 800234c:	5ac00044 	addi	r11,r11,1
 8002350:	588000cc 	andi	r2,r11,3
 8002354:	31800204 	addi	r6,r6,8
 8002358:	103efd1e 	bne	r2,zero,8001f50 <__alt_data_end+0xf8001f50>
 800235c:	00002406 	br	80023f0 <_malloc_r+0x660>
 8002360:	14000317 	ldw	r16,12(r2)
 8002364:	143f251e 	bne	r2,r16,8001ffc <__alt_data_end+0xf8001ffc>
 8002368:	21000084 	addi	r4,r4,2
 800236c:	003ebc06 	br	8001e60 <__alt_data_end+0xf8001e60>
 8002370:	8085883a 	add	r2,r16,r2
 8002374:	10c00117 	ldw	r3,4(r2)
 8002378:	81000317 	ldw	r4,12(r16)
 800237c:	81400217 	ldw	r5,8(r16)
 8002380:	18c00054 	ori	r3,r3,1
 8002384:	10c00115 	stw	r3,4(r2)
 8002388:	29000315 	stw	r4,12(r5)
 800238c:	21400215 	stw	r5,8(r4)
 8002390:	9009883a 	mov	r4,r18
 8002394:	800ea1c0 	call	800ea1c <__malloc_unlock>
 8002398:	80800204 	addi	r2,r16,8
 800239c:	003f2506 	br	8002034 <__alt_data_end+0xf8002034>
 80023a0:	12001704 	addi	r8,r2,92
 80023a4:	11c016c4 	addi	r7,r2,91
 80023a8:	4209883a 	add	r4,r8,r8
 80023ac:	003e9606 	br	8001e08 <__alt_data_end+0xf8001e08>
 80023b0:	3804d1ba 	srli	r2,r7,6
 80023b4:	11400e44 	addi	r5,r2,57
 80023b8:	10c00e04 	addi	r3,r2,56
 80023bc:	294b883a 	add	r5,r5,r5
 80023c0:	003fbc06 	br	80022b4 <__alt_data_end+0xf80022b4>
 80023c4:	84ff5926 	beq	r16,r19,800212c <__alt_data_end+0xf800212c>
 80023c8:	00820074 	movhi	r2,2049
 80023cc:	10991304 	addi	r2,r2,25676
 80023d0:	14000217 	ldw	r16,8(r2)
 80023d4:	00bfff04 	movi	r2,-4
 80023d8:	80c00117 	ldw	r3,4(r16)
 80023dc:	1886703a 	and	r3,r3,r2
 80023e0:	003f9106 	br	8002228 <__alt_data_end+0xf8002228>
 80023e4:	60800217 	ldw	r2,8(r12)
 80023e8:	213fffc4 	addi	r4,r4,-1
 80023ec:	1300651e 	bne	r2,r12,8002584 <_malloc_r+0x7f4>
 80023f0:	208000cc 	andi	r2,r4,3
 80023f4:	633ffe04 	addi	r12,r12,-8
 80023f8:	103ffa1e 	bne	r2,zero,80023e4 <__alt_data_end+0xf80023e4>
 80023fc:	98800117 	ldw	r2,4(r19)
 8002400:	0146303a 	nor	r3,zero,r5
 8002404:	1884703a 	and	r2,r3,r2
 8002408:	98800115 	stw	r2,4(r19)
 800240c:	294b883a 	add	r5,r5,r5
 8002410:	117f2836 	bltu	r2,r5,80020b4 <__alt_data_end+0xf80020b4>
 8002414:	283f2726 	beq	r5,zero,80020b4 <__alt_data_end+0xf80020b4>
 8002418:	2886703a 	and	r3,r5,r2
 800241c:	5809883a 	mov	r4,r11
 8002420:	183ec31e 	bne	r3,zero,8001f30 <__alt_data_end+0xf8001f30>
 8002424:	294b883a 	add	r5,r5,r5
 8002428:	2886703a 	and	r3,r5,r2
 800242c:	21000104 	addi	r4,r4,4
 8002430:	183ffc26 	beq	r3,zero,8002424 <__alt_data_end+0xf8002424>
 8002434:	003ebe06 	br	8001f30 <__alt_data_end+0xf8001f30>
 8002438:	00c05504 	movi	r3,340
 800243c:	18801236 	bltu	r3,r2,8002488 <_malloc_r+0x6f8>
 8002440:	8804d3fa 	srli	r2,r17,15
 8002444:	12001e04 	addi	r8,r2,120
 8002448:	11c01dc4 	addi	r7,r2,119
 800244c:	4209883a 	add	r4,r8,r8
 8002450:	003e6d06 	br	8001e08 <__alt_data_end+0xf8001e08>
 8002454:	00c40004 	movi	r3,4096
 8002458:	003f4606 	br	8002174 <__alt_data_end+0xf8002174>
 800245c:	00800044 	movi	r2,1
 8002460:	a0800115 	stw	r2,4(r20)
 8002464:	003f7406 	br	8002238 <__alt_data_end+0xf8002238>
 8002468:	1805d0ba 	srai	r2,r3,2
 800246c:	01c00044 	movi	r7,1
 8002470:	30c00117 	ldw	r3,4(r6)
 8002474:	388e983a 	sll	r7,r7,r2
 8002478:	2805883a 	mov	r2,r5
 800247c:	38c6b03a 	or	r3,r7,r3
 8002480:	30c00115 	stw	r3,4(r6)
 8002484:	003f9b06 	br	80022f4 <__alt_data_end+0xf80022f4>
 8002488:	00c15504 	movi	r3,1364
 800248c:	18801a36 	bltu	r3,r2,80024f8 <_malloc_r+0x768>
 8002490:	8804d4ba 	srli	r2,r17,18
 8002494:	12001f44 	addi	r8,r2,125
 8002498:	11c01f04 	addi	r7,r2,124
 800249c:	4209883a 	add	r4,r8,r8
 80024a0:	003e5906 	br	8001e08 <__alt_data_end+0xf8001e08>
 80024a4:	ad400404 	addi	r21,r21,16
 80024a8:	003f1706 	br	8002108 <__alt_data_end+0xf8002108>
 80024ac:	00c01504 	movi	r3,84
 80024b0:	18802336 	bltu	r3,r2,8002540 <_malloc_r+0x7b0>
 80024b4:	3804d33a 	srli	r2,r7,12
 80024b8:	11401bc4 	addi	r5,r2,111
 80024bc:	10c01b84 	addi	r3,r2,110
 80024c0:	294b883a 	add	r5,r5,r5
 80024c4:	003f7b06 	br	80022b4 <__alt_data_end+0xf80022b4>
 80024c8:	9c000217 	ldw	r16,8(r19)
 80024cc:	00bfff04 	movi	r2,-4
 80024d0:	80c00117 	ldw	r3,4(r16)
 80024d4:	1886703a 	and	r3,r3,r2
 80024d8:	003f5306 	br	8002228 <__alt_data_end+0xf8002228>
 80024dc:	3083ffcc 	andi	r2,r6,4095
 80024e0:	103f181e 	bne	r2,zero,8002144 <__alt_data_end+0xf8002144>
 80024e4:	99000217 	ldw	r4,8(r19)
 80024e8:	b545883a 	add	r2,r22,r21
 80024ec:	10800054 	ori	r2,r2,1
 80024f0:	20800115 	stw	r2,4(r4)
 80024f4:	003f3e06 	br	80021f0 <__alt_data_end+0xf80021f0>
 80024f8:	01003f84 	movi	r4,254
 80024fc:	02001fc4 	movi	r8,127
 8002500:	01c01f84 	movi	r7,126
 8002504:	003e4006 	br	8001e08 <__alt_data_end+0xf8001e08>
 8002508:	00820074 	movhi	r2,2049
 800250c:	109ecd04 	addi	r2,r2,31540
 8002510:	15000015 	stw	r20,0(r2)
 8002514:	003f1106 	br	800215c <__alt_data_end+0xf800215c>
 8002518:	00800044 	movi	r2,1
 800251c:	002b883a 	mov	r21,zero
 8002520:	003f1f06 	br	80021a0 <__alt_data_end+0xf80021a0>
 8002524:	81400204 	addi	r5,r16,8
 8002528:	9009883a 	mov	r4,r18
 800252c:	80012600 	call	8001260 <_free_r>
 8002530:	008200b4 	movhi	r2,2050
 8002534:	10a5c804 	addi	r2,r2,-26848
 8002538:	10c00017 	ldw	r3,0(r2)
 800253c:	003f2c06 	br	80021f0 <__alt_data_end+0xf80021f0>
 8002540:	00c05504 	movi	r3,340
 8002544:	18800536 	bltu	r3,r2,800255c <_malloc_r+0x7cc>
 8002548:	3804d3fa 	srli	r2,r7,15
 800254c:	11401e04 	addi	r5,r2,120
 8002550:	10c01dc4 	addi	r3,r2,119
 8002554:	294b883a 	add	r5,r5,r5
 8002558:	003f5606 	br	80022b4 <__alt_data_end+0xf80022b4>
 800255c:	00c15504 	movi	r3,1364
 8002560:	18800536 	bltu	r3,r2,8002578 <_malloc_r+0x7e8>
 8002564:	3804d4ba 	srli	r2,r7,18
 8002568:	11401f44 	addi	r5,r2,125
 800256c:	10c01f04 	addi	r3,r2,124
 8002570:	294b883a 	add	r5,r5,r5
 8002574:	003f4f06 	br	80022b4 <__alt_data_end+0xf80022b4>
 8002578:	01403f84 	movi	r5,254
 800257c:	00c01f84 	movi	r3,126
 8002580:	003f4c06 	br	80022b4 <__alt_data_end+0xf80022b4>
 8002584:	98800117 	ldw	r2,4(r19)
 8002588:	003fa006 	br	800240c <__alt_data_end+0xf800240c>
 800258c:	8808d0fa 	srli	r4,r17,3
 8002590:	20800044 	addi	r2,r4,1
 8002594:	1085883a 	add	r2,r2,r2
 8002598:	003e9006 	br	8001fdc <__alt_data_end+0xf8001fdc>

0800259c <memcpy>:
 800259c:	defffd04 	addi	sp,sp,-12
 80025a0:	dfc00215 	stw	ra,8(sp)
 80025a4:	dc400115 	stw	r17,4(sp)
 80025a8:	dc000015 	stw	r16,0(sp)
 80025ac:	00c003c4 	movi	r3,15
 80025b0:	2005883a 	mov	r2,r4
 80025b4:	1980452e 	bgeu	r3,r6,80026cc <memcpy+0x130>
 80025b8:	2906b03a 	or	r3,r5,r4
 80025bc:	18c000cc 	andi	r3,r3,3
 80025c0:	1800441e 	bne	r3,zero,80026d4 <memcpy+0x138>
 80025c4:	347ffc04 	addi	r17,r6,-16
 80025c8:	8822d13a 	srli	r17,r17,4
 80025cc:	28c00104 	addi	r3,r5,4
 80025d0:	23400104 	addi	r13,r4,4
 80025d4:	8820913a 	slli	r16,r17,4
 80025d8:	2b000204 	addi	r12,r5,8
 80025dc:	22c00204 	addi	r11,r4,8
 80025e0:	84000504 	addi	r16,r16,20
 80025e4:	2a800304 	addi	r10,r5,12
 80025e8:	22400304 	addi	r9,r4,12
 80025ec:	2c21883a 	add	r16,r5,r16
 80025f0:	2811883a 	mov	r8,r5
 80025f4:	200f883a 	mov	r7,r4
 80025f8:	41000017 	ldw	r4,0(r8)
 80025fc:	1fc00017 	ldw	ra,0(r3)
 8002600:	63c00017 	ldw	r15,0(r12)
 8002604:	39000015 	stw	r4,0(r7)
 8002608:	53800017 	ldw	r14,0(r10)
 800260c:	6fc00015 	stw	ra,0(r13)
 8002610:	5bc00015 	stw	r15,0(r11)
 8002614:	4b800015 	stw	r14,0(r9)
 8002618:	18c00404 	addi	r3,r3,16
 800261c:	39c00404 	addi	r7,r7,16
 8002620:	42000404 	addi	r8,r8,16
 8002624:	6b400404 	addi	r13,r13,16
 8002628:	63000404 	addi	r12,r12,16
 800262c:	5ac00404 	addi	r11,r11,16
 8002630:	52800404 	addi	r10,r10,16
 8002634:	4a400404 	addi	r9,r9,16
 8002638:	1c3fef1e 	bne	r3,r16,80025f8 <__alt_data_end+0xf80025f8>
 800263c:	89c00044 	addi	r7,r17,1
 8002640:	380e913a 	slli	r7,r7,4
 8002644:	310003cc 	andi	r4,r6,15
 8002648:	02c000c4 	movi	r11,3
 800264c:	11c7883a 	add	r3,r2,r7
 8002650:	29cb883a 	add	r5,r5,r7
 8002654:	5900212e 	bgeu	r11,r4,80026dc <memcpy+0x140>
 8002658:	1813883a 	mov	r9,r3
 800265c:	2811883a 	mov	r8,r5
 8002660:	200f883a 	mov	r7,r4
 8002664:	42800017 	ldw	r10,0(r8)
 8002668:	4a400104 	addi	r9,r9,4
 800266c:	39ffff04 	addi	r7,r7,-4
 8002670:	4abfff15 	stw	r10,-4(r9)
 8002674:	42000104 	addi	r8,r8,4
 8002678:	59fffa36 	bltu	r11,r7,8002664 <__alt_data_end+0xf8002664>
 800267c:	213fff04 	addi	r4,r4,-4
 8002680:	2008d0ba 	srli	r4,r4,2
 8002684:	318000cc 	andi	r6,r6,3
 8002688:	21000044 	addi	r4,r4,1
 800268c:	2109883a 	add	r4,r4,r4
 8002690:	2109883a 	add	r4,r4,r4
 8002694:	1907883a 	add	r3,r3,r4
 8002698:	290b883a 	add	r5,r5,r4
 800269c:	30000626 	beq	r6,zero,80026b8 <memcpy+0x11c>
 80026a0:	198d883a 	add	r6,r3,r6
 80026a4:	29c00003 	ldbu	r7,0(r5)
 80026a8:	18c00044 	addi	r3,r3,1
 80026ac:	29400044 	addi	r5,r5,1
 80026b0:	19ffffc5 	stb	r7,-1(r3)
 80026b4:	19bffb1e 	bne	r3,r6,80026a4 <__alt_data_end+0xf80026a4>
 80026b8:	dfc00217 	ldw	ra,8(sp)
 80026bc:	dc400117 	ldw	r17,4(sp)
 80026c0:	dc000017 	ldw	r16,0(sp)
 80026c4:	dec00304 	addi	sp,sp,12
 80026c8:	f800283a 	ret
 80026cc:	2007883a 	mov	r3,r4
 80026d0:	003ff206 	br	800269c <__alt_data_end+0xf800269c>
 80026d4:	2007883a 	mov	r3,r4
 80026d8:	003ff106 	br	80026a0 <__alt_data_end+0xf80026a0>
 80026dc:	200d883a 	mov	r6,r4
 80026e0:	003fee06 	br	800269c <__alt_data_end+0xf800269c>

080026e4 <memset>:
 80026e4:	20c000cc 	andi	r3,r4,3
 80026e8:	2005883a 	mov	r2,r4
 80026ec:	18004426 	beq	r3,zero,8002800 <memset+0x11c>
 80026f0:	31ffffc4 	addi	r7,r6,-1
 80026f4:	30004026 	beq	r6,zero,80027f8 <memset+0x114>
 80026f8:	2813883a 	mov	r9,r5
 80026fc:	200d883a 	mov	r6,r4
 8002700:	2007883a 	mov	r3,r4
 8002704:	00000406 	br	8002718 <memset+0x34>
 8002708:	3a3fffc4 	addi	r8,r7,-1
 800270c:	31800044 	addi	r6,r6,1
 8002710:	38003926 	beq	r7,zero,80027f8 <memset+0x114>
 8002714:	400f883a 	mov	r7,r8
 8002718:	18c00044 	addi	r3,r3,1
 800271c:	32400005 	stb	r9,0(r6)
 8002720:	1a0000cc 	andi	r8,r3,3
 8002724:	403ff81e 	bne	r8,zero,8002708 <__alt_data_end+0xf8002708>
 8002728:	010000c4 	movi	r4,3
 800272c:	21c02d2e 	bgeu	r4,r7,80027e4 <memset+0x100>
 8002730:	29003fcc 	andi	r4,r5,255
 8002734:	200c923a 	slli	r6,r4,8
 8002738:	3108b03a 	or	r4,r6,r4
 800273c:	200c943a 	slli	r6,r4,16
 8002740:	218cb03a 	or	r6,r4,r6
 8002744:	010003c4 	movi	r4,15
 8002748:	21c0182e 	bgeu	r4,r7,80027ac <memset+0xc8>
 800274c:	3b3ffc04 	addi	r12,r7,-16
 8002750:	6018d13a 	srli	r12,r12,4
 8002754:	1a000104 	addi	r8,r3,4
 8002758:	1ac00204 	addi	r11,r3,8
 800275c:	6008913a 	slli	r4,r12,4
 8002760:	1a800304 	addi	r10,r3,12
 8002764:	1813883a 	mov	r9,r3
 8002768:	21000504 	addi	r4,r4,20
 800276c:	1909883a 	add	r4,r3,r4
 8002770:	49800015 	stw	r6,0(r9)
 8002774:	41800015 	stw	r6,0(r8)
 8002778:	59800015 	stw	r6,0(r11)
 800277c:	51800015 	stw	r6,0(r10)
 8002780:	42000404 	addi	r8,r8,16
 8002784:	4a400404 	addi	r9,r9,16
 8002788:	5ac00404 	addi	r11,r11,16
 800278c:	52800404 	addi	r10,r10,16
 8002790:	413ff71e 	bne	r8,r4,8002770 <__alt_data_end+0xf8002770>
 8002794:	63000044 	addi	r12,r12,1
 8002798:	6018913a 	slli	r12,r12,4
 800279c:	39c003cc 	andi	r7,r7,15
 80027a0:	010000c4 	movi	r4,3
 80027a4:	1b07883a 	add	r3,r3,r12
 80027a8:	21c00e2e 	bgeu	r4,r7,80027e4 <memset+0x100>
 80027ac:	1813883a 	mov	r9,r3
 80027b0:	3811883a 	mov	r8,r7
 80027b4:	010000c4 	movi	r4,3
 80027b8:	49800015 	stw	r6,0(r9)
 80027bc:	423fff04 	addi	r8,r8,-4
 80027c0:	4a400104 	addi	r9,r9,4
 80027c4:	223ffc36 	bltu	r4,r8,80027b8 <__alt_data_end+0xf80027b8>
 80027c8:	393fff04 	addi	r4,r7,-4
 80027cc:	2008d0ba 	srli	r4,r4,2
 80027d0:	39c000cc 	andi	r7,r7,3
 80027d4:	21000044 	addi	r4,r4,1
 80027d8:	2109883a 	add	r4,r4,r4
 80027dc:	2109883a 	add	r4,r4,r4
 80027e0:	1907883a 	add	r3,r3,r4
 80027e4:	38000526 	beq	r7,zero,80027fc <memset+0x118>
 80027e8:	19cf883a 	add	r7,r3,r7
 80027ec:	19400005 	stb	r5,0(r3)
 80027f0:	18c00044 	addi	r3,r3,1
 80027f4:	38fffd1e 	bne	r7,r3,80027ec <__alt_data_end+0xf80027ec>
 80027f8:	f800283a 	ret
 80027fc:	f800283a 	ret
 8002800:	2007883a 	mov	r3,r4
 8002804:	300f883a 	mov	r7,r6
 8002808:	003fc706 	br	8002728 <__alt_data_end+0xf8002728>

0800280c <_open_r>:
 800280c:	defffd04 	addi	sp,sp,-12
 8002810:	2805883a 	mov	r2,r5
 8002814:	dc000015 	stw	r16,0(sp)
 8002818:	040200b4 	movhi	r16,2050
 800281c:	dc400115 	stw	r17,4(sp)
 8002820:	300b883a 	mov	r5,r6
 8002824:	8425ad04 	addi	r16,r16,-26956
 8002828:	2023883a 	mov	r17,r4
 800282c:	380d883a 	mov	r6,r7
 8002830:	1009883a 	mov	r4,r2
 8002834:	dfc00215 	stw	ra,8(sp)
 8002838:	80000015 	stw	zero,0(r16)
 800283c:	800eb400 	call	800eb40 <open>
 8002840:	00ffffc4 	movi	r3,-1
 8002844:	10c00526 	beq	r2,r3,800285c <_open_r+0x50>
 8002848:	dfc00217 	ldw	ra,8(sp)
 800284c:	dc400117 	ldw	r17,4(sp)
 8002850:	dc000017 	ldw	r16,0(sp)
 8002854:	dec00304 	addi	sp,sp,12
 8002858:	f800283a 	ret
 800285c:	80c00017 	ldw	r3,0(r16)
 8002860:	183ff926 	beq	r3,zero,8002848 <__alt_data_end+0xf8002848>
 8002864:	88c00015 	stw	r3,0(r17)
 8002868:	003ff706 	br	8002848 <__alt_data_end+0xf8002848>

0800286c <_perror_r>:
 800286c:	defffd04 	addi	sp,sp,-12
 8002870:	dc000115 	stw	r16,4(sp)
 8002874:	dfc00215 	stw	ra,8(sp)
 8002878:	2021883a 	mov	r16,r4
 800287c:	28000326 	beq	r5,zero,800288c <_perror_r+0x20>
 8002880:	28c00007 	ldb	r3,0(r5)
 8002884:	2805883a 	mov	r2,r5
 8002888:	1800101e 	bne	r3,zero,80028cc <_perror_r+0x60>
 800288c:	81400017 	ldw	r5,0(r16)
 8002890:	d80f883a 	mov	r7,sp
 8002894:	01800044 	movi	r6,1
 8002898:	8009883a 	mov	r4,r16
 800289c:	8002de00 	call	8002de0 <_strerror_r>
 80028a0:	10000326 	beq	r2,zero,80028b0 <_perror_r+0x44>
 80028a4:	81400317 	ldw	r5,12(r16)
 80028a8:	1009883a 	mov	r4,r2
 80028ac:	80074400 	call	8007440 <fputs>
 80028b0:	81400317 	ldw	r5,12(r16)
 80028b4:	01000284 	movi	r4,10
 80028b8:	80073480 	call	8007348 <fputc>
 80028bc:	dfc00217 	ldw	ra,8(sp)
 80028c0:	dc000117 	ldw	r16,4(sp)
 80028c4:	dec00304 	addi	sp,sp,12
 80028c8:	f800283a 	ret
 80028cc:	21400317 	ldw	r5,12(r4)
 80028d0:	1009883a 	mov	r4,r2
 80028d4:	80074400 	call	8007440 <fputs>
 80028d8:	81400317 	ldw	r5,12(r16)
 80028dc:	01020074 	movhi	r4,2049
 80028e0:	21158304 	addi	r4,r4,22028
 80028e4:	80074400 	call	8007440 <fputs>
 80028e8:	003fe806 	br	800288c <__alt_data_end+0xf800288c>

080028ec <perror>:
 80028ec:	00820074 	movhi	r2,2049
 80028f0:	109ecc04 	addi	r2,r2,31536
 80028f4:	200b883a 	mov	r5,r4
 80028f8:	11000017 	ldw	r4,0(r2)
 80028fc:	800286c1 	jmpi	800286c <_perror_r>

08002900 <_printf_r>:
 8002900:	defffd04 	addi	sp,sp,-12
 8002904:	2805883a 	mov	r2,r5
 8002908:	dfc00015 	stw	ra,0(sp)
 800290c:	d9800115 	stw	r6,4(sp)
 8002910:	d9c00215 	stw	r7,8(sp)
 8002914:	21400217 	ldw	r5,8(r4)
 8002918:	d9c00104 	addi	r7,sp,4
 800291c:	100d883a 	mov	r6,r2
 8002920:	80034f80 	call	80034f8 <___vfprintf_internal_r>
 8002924:	dfc00017 	ldw	ra,0(sp)
 8002928:	dec00304 	addi	sp,sp,12
 800292c:	f800283a 	ret

08002930 <printf>:
 8002930:	defffc04 	addi	sp,sp,-16
 8002934:	dfc00015 	stw	ra,0(sp)
 8002938:	d9400115 	stw	r5,4(sp)
 800293c:	d9800215 	stw	r6,8(sp)
 8002940:	d9c00315 	stw	r7,12(sp)
 8002944:	00820074 	movhi	r2,2049
 8002948:	109ecc04 	addi	r2,r2,31536
 800294c:	10800017 	ldw	r2,0(r2)
 8002950:	200b883a 	mov	r5,r4
 8002954:	d9800104 	addi	r6,sp,4
 8002958:	11000217 	ldw	r4,8(r2)
 800295c:	80056f00 	call	80056f0 <__vfprintf_internal>
 8002960:	dfc00017 	ldw	ra,0(sp)
 8002964:	dec00404 	addi	sp,sp,16
 8002968:	f800283a 	ret

0800296c <_putchar_r>:
 800296c:	21800217 	ldw	r6,8(r4)
 8002970:	8008ce01 	jmpi	8008ce0 <_putc_r>

08002974 <putchar>:
 8002974:	00820074 	movhi	r2,2049
 8002978:	109ecc04 	addi	r2,r2,31536
 800297c:	200b883a 	mov	r5,r4
 8002980:	11000017 	ldw	r4,0(r2)
 8002984:	21800217 	ldw	r6,8(r4)
 8002988:	8008ce01 	jmpi	8008ce0 <_putc_r>

0800298c <_puts_r>:
 800298c:	defff604 	addi	sp,sp,-40
 8002990:	dc000715 	stw	r16,28(sp)
 8002994:	2021883a 	mov	r16,r4
 8002998:	2809883a 	mov	r4,r5
 800299c:	dc400815 	stw	r17,32(sp)
 80029a0:	dfc00915 	stw	ra,36(sp)
 80029a4:	2823883a 	mov	r17,r5
 80029a8:	80034580 	call	8003458 <strlen>
 80029ac:	10c00044 	addi	r3,r2,1
 80029b0:	d8800115 	stw	r2,4(sp)
 80029b4:	00820074 	movhi	r2,2049
 80029b8:	10958404 	addi	r2,r2,22032
 80029bc:	d8800215 	stw	r2,8(sp)
 80029c0:	00800044 	movi	r2,1
 80029c4:	d8800315 	stw	r2,12(sp)
 80029c8:	00800084 	movi	r2,2
 80029cc:	dc400015 	stw	r17,0(sp)
 80029d0:	d8c00615 	stw	r3,24(sp)
 80029d4:	dec00415 	stw	sp,16(sp)
 80029d8:	d8800515 	stw	r2,20(sp)
 80029dc:	80000226 	beq	r16,zero,80029e8 <_puts_r+0x5c>
 80029e0:	80800e17 	ldw	r2,56(r16)
 80029e4:	10001426 	beq	r2,zero,8002a38 <_puts_r+0xac>
 80029e8:	81400217 	ldw	r5,8(r16)
 80029ec:	2880030b 	ldhu	r2,12(r5)
 80029f0:	10c8000c 	andi	r3,r2,8192
 80029f4:	1800061e 	bne	r3,zero,8002a10 <_puts_r+0x84>
 80029f8:	29001917 	ldw	r4,100(r5)
 80029fc:	00f7ffc4 	movi	r3,-8193
 8002a00:	10880014 	ori	r2,r2,8192
 8002a04:	20c6703a 	and	r3,r4,r3
 8002a08:	2880030d 	sth	r2,12(r5)
 8002a0c:	28c01915 	stw	r3,100(r5)
 8002a10:	d9800404 	addi	r6,sp,16
 8002a14:	8009883a 	mov	r4,r16
 8002a18:	80074580 	call	8007458 <__sfvwrite_r>
 8002a1c:	1000091e 	bne	r2,zero,8002a44 <_puts_r+0xb8>
 8002a20:	00800284 	movi	r2,10
 8002a24:	dfc00917 	ldw	ra,36(sp)
 8002a28:	dc400817 	ldw	r17,32(sp)
 8002a2c:	dc000717 	ldw	r16,28(sp)
 8002a30:	dec00a04 	addi	sp,sp,40
 8002a34:	f800283a 	ret
 8002a38:	8009883a 	mov	r4,r16
 8002a3c:	8000d800 	call	8000d80 <__sinit>
 8002a40:	003fe906 	br	80029e8 <__alt_data_end+0xf80029e8>
 8002a44:	00bfffc4 	movi	r2,-1
 8002a48:	003ff606 	br	8002a24 <__alt_data_end+0xf8002a24>

08002a4c <puts>:
 8002a4c:	00820074 	movhi	r2,2049
 8002a50:	109ecc04 	addi	r2,r2,31536
 8002a54:	200b883a 	mov	r5,r4
 8002a58:	11000017 	ldw	r4,0(r2)
 8002a5c:	800298c1 	jmpi	800298c <_puts_r>

08002a60 <lflush>:
 8002a60:	2080030b 	ldhu	r2,12(r4)
 8002a64:	00c00244 	movi	r3,9
 8002a68:	1080024c 	andi	r2,r2,9
 8002a6c:	10c00226 	beq	r2,r3,8002a78 <lflush+0x18>
 8002a70:	0005883a 	mov	r2,zero
 8002a74:	f800283a 	ret
 8002a78:	8000a001 	jmpi	8000a00 <fflush>

08002a7c <__srefill_r>:
 8002a7c:	defffc04 	addi	sp,sp,-16
 8002a80:	dc400115 	stw	r17,4(sp)
 8002a84:	dc000015 	stw	r16,0(sp)
 8002a88:	dfc00315 	stw	ra,12(sp)
 8002a8c:	dc800215 	stw	r18,8(sp)
 8002a90:	2023883a 	mov	r17,r4
 8002a94:	2821883a 	mov	r16,r5
 8002a98:	20000226 	beq	r4,zero,8002aa4 <__srefill_r+0x28>
 8002a9c:	20800e17 	ldw	r2,56(r4)
 8002aa0:	10003c26 	beq	r2,zero,8002b94 <__srefill_r+0x118>
 8002aa4:	80c0030b 	ldhu	r3,12(r16)
 8002aa8:	1908000c 	andi	r4,r3,8192
 8002aac:	1805883a 	mov	r2,r3
 8002ab0:	2000071e 	bne	r4,zero,8002ad0 <__srefill_r+0x54>
 8002ab4:	81001917 	ldw	r4,100(r16)
 8002ab8:	18880014 	ori	r2,r3,8192
 8002abc:	00f7ffc4 	movi	r3,-8193
 8002ac0:	20c8703a 	and	r4,r4,r3
 8002ac4:	8080030d 	sth	r2,12(r16)
 8002ac8:	1007883a 	mov	r3,r2
 8002acc:	81001915 	stw	r4,100(r16)
 8002ad0:	80000115 	stw	zero,4(r16)
 8002ad4:	1100080c 	andi	r4,r2,32
 8002ad8:	2000571e 	bne	r4,zero,8002c38 <__srefill_r+0x1bc>
 8002adc:	1100010c 	andi	r4,r2,4
 8002ae0:	20001f26 	beq	r4,zero,8002b60 <__srefill_r+0xe4>
 8002ae4:	81400c17 	ldw	r5,48(r16)
 8002ae8:	28000826 	beq	r5,zero,8002b0c <__srefill_r+0x90>
 8002aec:	80801004 	addi	r2,r16,64
 8002af0:	28800226 	beq	r5,r2,8002afc <__srefill_r+0x80>
 8002af4:	8809883a 	mov	r4,r17
 8002af8:	80012600 	call	8001260 <_free_r>
 8002afc:	80800f17 	ldw	r2,60(r16)
 8002b00:	80000c15 	stw	zero,48(r16)
 8002b04:	80800115 	stw	r2,4(r16)
 8002b08:	1000391e 	bne	r2,zero,8002bf0 <__srefill_r+0x174>
 8002b0c:	80800417 	ldw	r2,16(r16)
 8002b10:	10004b26 	beq	r2,zero,8002c40 <__srefill_r+0x1c4>
 8002b14:	8480030b 	ldhu	r18,12(r16)
 8002b18:	908000cc 	andi	r2,r18,3
 8002b1c:	10001f1e 	bne	r2,zero,8002b9c <__srefill_r+0x120>
 8002b20:	81800417 	ldw	r6,16(r16)
 8002b24:	80800817 	ldw	r2,32(r16)
 8002b28:	81c00517 	ldw	r7,20(r16)
 8002b2c:	81400717 	ldw	r5,28(r16)
 8002b30:	81800015 	stw	r6,0(r16)
 8002b34:	8809883a 	mov	r4,r17
 8002b38:	103ee83a 	callr	r2
 8002b3c:	80800115 	stw	r2,4(r16)
 8002b40:	00800e0e 	bge	zero,r2,8002b7c <__srefill_r+0x100>
 8002b44:	0005883a 	mov	r2,zero
 8002b48:	dfc00317 	ldw	ra,12(sp)
 8002b4c:	dc800217 	ldw	r18,8(sp)
 8002b50:	dc400117 	ldw	r17,4(sp)
 8002b54:	dc000017 	ldw	r16,0(sp)
 8002b58:	dec00404 	addi	sp,sp,16
 8002b5c:	f800283a 	ret
 8002b60:	1100040c 	andi	r4,r2,16
 8002b64:	20003026 	beq	r4,zero,8002c28 <__srefill_r+0x1ac>
 8002b68:	1080020c 	andi	r2,r2,8
 8002b6c:	1000241e 	bne	r2,zero,8002c00 <__srefill_r+0x184>
 8002b70:	18c00114 	ori	r3,r3,4
 8002b74:	80c0030d 	sth	r3,12(r16)
 8002b78:	003fe406 	br	8002b0c <__alt_data_end+0xf8002b0c>
 8002b7c:	80c0030b 	ldhu	r3,12(r16)
 8002b80:	1000161e 	bne	r2,zero,8002bdc <__srefill_r+0x160>
 8002b84:	18c00814 	ori	r3,r3,32
 8002b88:	00bfffc4 	movi	r2,-1
 8002b8c:	80c0030d 	sth	r3,12(r16)
 8002b90:	003fed06 	br	8002b48 <__alt_data_end+0xf8002b48>
 8002b94:	8000d800 	call	8000d80 <__sinit>
 8002b98:	003fc206 	br	8002aa4 <__alt_data_end+0xf8002aa4>
 8002b9c:	00820074 	movhi	r2,2049
 8002ba0:	109ecb04 	addi	r2,r2,31532
 8002ba4:	11000017 	ldw	r4,0(r2)
 8002ba8:	01420034 	movhi	r5,2048
 8002bac:	00800044 	movi	r2,1
 8002bb0:	294a9804 	addi	r5,r5,10848
 8002bb4:	8080030d 	sth	r2,12(r16)
 8002bb8:	8001a4c0 	call	8001a4c <_fwalk>
 8002bbc:	00800244 	movi	r2,9
 8002bc0:	8480030d 	sth	r18,12(r16)
 8002bc4:	9480024c 	andi	r18,r18,9
 8002bc8:	90bfd51e 	bne	r18,r2,8002b20 <__alt_data_end+0xf8002b20>
 8002bcc:	800b883a 	mov	r5,r16
 8002bd0:	8809883a 	mov	r4,r17
 8002bd4:	80007880 	call	8000788 <__sflush_r>
 8002bd8:	003fd106 	br	8002b20 <__alt_data_end+0xf8002b20>
 8002bdc:	18c01014 	ori	r3,r3,64
 8002be0:	80000115 	stw	zero,4(r16)
 8002be4:	00bfffc4 	movi	r2,-1
 8002be8:	80c0030d 	sth	r3,12(r16)
 8002bec:	003fd606 	br	8002b48 <__alt_data_end+0xf8002b48>
 8002bf0:	80c00e17 	ldw	r3,56(r16)
 8002bf4:	0005883a 	mov	r2,zero
 8002bf8:	80c00015 	stw	r3,0(r16)
 8002bfc:	003fd206 	br	8002b48 <__alt_data_end+0xf8002b48>
 8002c00:	800b883a 	mov	r5,r16
 8002c04:	8809883a 	mov	r4,r17
 8002c08:	80009a40 	call	80009a4 <_fflush_r>
 8002c0c:	10000a1e 	bne	r2,zero,8002c38 <__srefill_r+0x1bc>
 8002c10:	8080030b 	ldhu	r2,12(r16)
 8002c14:	00fffdc4 	movi	r3,-9
 8002c18:	80000215 	stw	zero,8(r16)
 8002c1c:	1886703a 	and	r3,r3,r2
 8002c20:	80000615 	stw	zero,24(r16)
 8002c24:	003fd206 	br	8002b70 <__alt_data_end+0xf8002b70>
 8002c28:	00800244 	movi	r2,9
 8002c2c:	88800015 	stw	r2,0(r17)
 8002c30:	18c01014 	ori	r3,r3,64
 8002c34:	80c0030d 	sth	r3,12(r16)
 8002c38:	00bfffc4 	movi	r2,-1
 8002c3c:	003fc206 	br	8002b48 <__alt_data_end+0xf8002b48>
 8002c40:	800b883a 	mov	r5,r16
 8002c44:	8809883a 	mov	r4,r17
 8002c48:	8001bd40 	call	8001bd4 <__smakebuf_r>
 8002c4c:	003fb106 	br	8002b14 <__alt_data_end+0xf8002b14>

08002c50 <_sbrk_r>:
 8002c50:	defffd04 	addi	sp,sp,-12
 8002c54:	dc000015 	stw	r16,0(sp)
 8002c58:	040200b4 	movhi	r16,2050
 8002c5c:	dc400115 	stw	r17,4(sp)
 8002c60:	8425ad04 	addi	r16,r16,-26956
 8002c64:	2023883a 	mov	r17,r4
 8002c68:	2809883a 	mov	r4,r5
 8002c6c:	dfc00215 	stw	ra,8(sp)
 8002c70:	80000015 	stw	zero,0(r16)
 8002c74:	800ee300 	call	800ee30 <sbrk>
 8002c78:	00ffffc4 	movi	r3,-1
 8002c7c:	10c00526 	beq	r2,r3,8002c94 <_sbrk_r+0x44>
 8002c80:	dfc00217 	ldw	ra,8(sp)
 8002c84:	dc400117 	ldw	r17,4(sp)
 8002c88:	dc000017 	ldw	r16,0(sp)
 8002c8c:	dec00304 	addi	sp,sp,12
 8002c90:	f800283a 	ret
 8002c94:	80c00017 	ldw	r3,0(r16)
 8002c98:	183ff926 	beq	r3,zero,8002c80 <__alt_data_end+0xf8002c80>
 8002c9c:	88c00015 	stw	r3,0(r17)
 8002ca0:	003ff706 	br	8002c80 <__alt_data_end+0xf8002c80>

08002ca4 <__sread>:
 8002ca4:	defffe04 	addi	sp,sp,-8
 8002ca8:	dc000015 	stw	r16,0(sp)
 8002cac:	2821883a 	mov	r16,r5
 8002cb0:	2940038f 	ldh	r5,14(r5)
 8002cb4:	dfc00115 	stw	ra,4(sp)
 8002cb8:	8008e480 	call	8008e48 <_read_r>
 8002cbc:	10000716 	blt	r2,zero,8002cdc <__sread+0x38>
 8002cc0:	80c01417 	ldw	r3,80(r16)
 8002cc4:	1887883a 	add	r3,r3,r2
 8002cc8:	80c01415 	stw	r3,80(r16)
 8002ccc:	dfc00117 	ldw	ra,4(sp)
 8002cd0:	dc000017 	ldw	r16,0(sp)
 8002cd4:	dec00204 	addi	sp,sp,8
 8002cd8:	f800283a 	ret
 8002cdc:	80c0030b 	ldhu	r3,12(r16)
 8002ce0:	18fbffcc 	andi	r3,r3,61439
 8002ce4:	80c0030d 	sth	r3,12(r16)
 8002ce8:	dfc00117 	ldw	ra,4(sp)
 8002cec:	dc000017 	ldw	r16,0(sp)
 8002cf0:	dec00204 	addi	sp,sp,8
 8002cf4:	f800283a 	ret

08002cf8 <__seofread>:
 8002cf8:	0005883a 	mov	r2,zero
 8002cfc:	f800283a 	ret

08002d00 <__swrite>:
 8002d00:	2880030b 	ldhu	r2,12(r5)
 8002d04:	defffb04 	addi	sp,sp,-20
 8002d08:	dcc00315 	stw	r19,12(sp)
 8002d0c:	dc800215 	stw	r18,8(sp)
 8002d10:	dc400115 	stw	r17,4(sp)
 8002d14:	dc000015 	stw	r16,0(sp)
 8002d18:	dfc00415 	stw	ra,16(sp)
 8002d1c:	10c0400c 	andi	r3,r2,256
 8002d20:	2821883a 	mov	r16,r5
 8002d24:	2023883a 	mov	r17,r4
 8002d28:	3025883a 	mov	r18,r6
 8002d2c:	3827883a 	mov	r19,r7
 8002d30:	18000526 	beq	r3,zero,8002d48 <__swrite+0x48>
 8002d34:	2940038f 	ldh	r5,14(r5)
 8002d38:	01c00084 	movi	r7,2
 8002d3c:	000d883a 	mov	r6,zero
 8002d40:	8007a440 	call	8007a44 <_lseek_r>
 8002d44:	8080030b 	ldhu	r2,12(r16)
 8002d48:	8140038f 	ldh	r5,14(r16)
 8002d4c:	10bbffcc 	andi	r2,r2,61439
 8002d50:	980f883a 	mov	r7,r19
 8002d54:	900d883a 	mov	r6,r18
 8002d58:	8809883a 	mov	r4,r17
 8002d5c:	8080030d 	sth	r2,12(r16)
 8002d60:	dfc00417 	ldw	ra,16(sp)
 8002d64:	dcc00317 	ldw	r19,12(sp)
 8002d68:	dc800217 	ldw	r18,8(sp)
 8002d6c:	dc400117 	ldw	r17,4(sp)
 8002d70:	dc000017 	ldw	r16,0(sp)
 8002d74:	dec00504 	addi	sp,sp,20
 8002d78:	80057c81 	jmpi	80057c8 <_write_r>

08002d7c <__sseek>:
 8002d7c:	defffe04 	addi	sp,sp,-8
 8002d80:	dc000015 	stw	r16,0(sp)
 8002d84:	2821883a 	mov	r16,r5
 8002d88:	2940038f 	ldh	r5,14(r5)
 8002d8c:	dfc00115 	stw	ra,4(sp)
 8002d90:	8007a440 	call	8007a44 <_lseek_r>
 8002d94:	00ffffc4 	movi	r3,-1
 8002d98:	10c00826 	beq	r2,r3,8002dbc <__sseek+0x40>
 8002d9c:	80c0030b 	ldhu	r3,12(r16)
 8002da0:	80801415 	stw	r2,80(r16)
 8002da4:	18c40014 	ori	r3,r3,4096
 8002da8:	80c0030d 	sth	r3,12(r16)
 8002dac:	dfc00117 	ldw	ra,4(sp)
 8002db0:	dc000017 	ldw	r16,0(sp)
 8002db4:	dec00204 	addi	sp,sp,8
 8002db8:	f800283a 	ret
 8002dbc:	80c0030b 	ldhu	r3,12(r16)
 8002dc0:	18fbffcc 	andi	r3,r3,61439
 8002dc4:	80c0030d 	sth	r3,12(r16)
 8002dc8:	dfc00117 	ldw	ra,4(sp)
 8002dcc:	dc000017 	ldw	r16,0(sp)
 8002dd0:	dec00204 	addi	sp,sp,8
 8002dd4:	f800283a 	ret

08002dd8 <__sclose>:
 8002dd8:	2940038f 	ldh	r5,14(r5)
 8002ddc:	800597c1 	jmpi	800597c <_close_r>

08002de0 <_strerror_r>:
 8002de0:	deffff04 	addi	sp,sp,-4
 8002de4:	2807883a 	mov	r3,r5
 8002de8:	dfc00015 	stw	ra,0(sp)
 8002dec:	00802384 	movi	r2,142
 8002df0:	300b883a 	mov	r5,r6
 8002df4:	10c18736 	bltu	r2,r3,8003414 <_strerror_r+0x634>
 8002df8:	181090ba 	slli	r8,r3,2
 8002dfc:	00820034 	movhi	r2,2048
 8002e00:	108b8404 	addi	r2,r2,11792
 8002e04:	4085883a 	add	r2,r8,r2
 8002e08:	10800017 	ldw	r2,0(r2)
 8002e0c:	1000683a 	jmp	r2
 8002e10:	0800304c 	andi	zero,at,193
 8002e14:	08003408 	cmpgei	zero,at,208
 8002e18:	080033fc 	xorhi	zero,at,207
 8002e1c:	080033f0 	cmpltui	zero,at,207
 8002e20:	080033e4 	muli	zero,at,207
 8002e24:	080033d8 	cmpnei	zero,at,207
 8002e28:	080033cc 	andi	zero,at,207
 8002e2c:	080033c0 	call	80033c <__alt_mem_onchip_memory2_0+0x60033c>
 8002e30:	080033b4 	orhi	zero,at,206
 8002e34:	080033a8 	cmpgeui	zero,at,206
 8002e38:	0800339c 	xori	zero,at,206
 8002e3c:	08003390 	cmplti	zero,at,206
 8002e40:	08003384 	addi	zero,at,206
 8002e44:	08003378 	rdprs	zero,at,205
 8002e48:	0800336c 	andhi	zero,at,205
 8002e4c:	08003414 	ori	zero,at,208
 8002e50:	08003360 	cmpeqi	zero,at,205
 8002e54:	08003354 	ori	zero,at,205
 8002e58:	08003348 	cmpgei	zero,at,205
 8002e5c:	0800333c 	xorhi	zero,at,204
 8002e60:	08003330 	cmpltui	zero,at,204
 8002e64:	08003324 	muli	zero,at,204
 8002e68:	08003318 	cmpnei	zero,at,204
 8002e6c:	0800330c 	andi	zero,at,204
 8002e70:	08003300 	call	800330 <__alt_mem_onchip_memory2_0+0x600330>
 8002e74:	080032f4 	orhi	zero,at,203
 8002e78:	080032e8 	cmpgeui	zero,at,203
 8002e7c:	080032dc 	xori	zero,at,203
 8002e80:	080032d0 	cmplti	zero,at,203
 8002e84:	080032c4 	addi	zero,at,203
 8002e88:	080032b8 	rdprs	zero,at,202
 8002e8c:	080032ac 	andhi	zero,at,202
 8002e90:	080032a0 	cmpeqi	zero,at,202
 8002e94:	08003294 	ori	zero,at,202
 8002e98:	08003288 	cmpgei	zero,at,202
 8002e9c:	0800327c 	xorhi	zero,at,201
 8002ea0:	08003270 	cmpltui	zero,at,201
 8002ea4:	08003414 	ori	zero,at,208
 8002ea8:	08003414 	ori	zero,at,208
 8002eac:	08003414 	ori	zero,at,208
 8002eb0:	08003414 	ori	zero,at,208
 8002eb4:	08003414 	ori	zero,at,208
 8002eb8:	08003414 	ori	zero,at,208
 8002ebc:	08003414 	ori	zero,at,208
 8002ec0:	08003414 	ori	zero,at,208
 8002ec4:	08003264 	muli	zero,at,201
 8002ec8:	08003258 	cmpnei	zero,at,201
 8002ecc:	08003414 	ori	zero,at,208
 8002ed0:	08003414 	ori	zero,at,208
 8002ed4:	08003414 	ori	zero,at,208
 8002ed8:	08003414 	ori	zero,at,208
 8002edc:	08003414 	ori	zero,at,208
 8002ee0:	08003414 	ori	zero,at,208
 8002ee4:	08003414 	ori	zero,at,208
 8002ee8:	08003414 	ori	zero,at,208
 8002eec:	08003414 	ori	zero,at,208
 8002ef0:	08003414 	ori	zero,at,208
 8002ef4:	08003414 	ori	zero,at,208
 8002ef8:	08003414 	ori	zero,at,208
 8002efc:	08003414 	ori	zero,at,208
 8002f00:	0800324c 	andi	zero,at,201
 8002f04:	08003240 	call	800324 <__alt_mem_onchip_memory2_0+0x600324>
 8002f08:	08003234 	orhi	zero,at,200
 8002f0c:	08003228 	cmpgeui	zero,at,200
 8002f10:	08003414 	ori	zero,at,208
 8002f14:	08003414 	ori	zero,at,208
 8002f18:	08003414 	ori	zero,at,208
 8002f1c:	0800321c 	xori	zero,at,200
 8002f20:	08003414 	ori	zero,at,208
 8002f24:	08003414 	ori	zero,at,208
 8002f28:	08003414 	ori	zero,at,208
 8002f2c:	08003210 	cmplti	zero,at,200
 8002f30:	08003414 	ori	zero,at,208
 8002f34:	08003414 	ori	zero,at,208
 8002f38:	08003204 	addi	zero,at,200
 8002f3c:	08003414 	ori	zero,at,208
 8002f40:	08003414 	ori	zero,at,208
 8002f44:	080031f8 	rdprs	zero,at,199
 8002f48:	08003414 	ori	zero,at,208
 8002f4c:	08003414 	ori	zero,at,208
 8002f50:	08003414 	ori	zero,at,208
 8002f54:	08003414 	ori	zero,at,208
 8002f58:	08003414 	ori	zero,at,208
 8002f5c:	08003414 	ori	zero,at,208
 8002f60:	08003414 	ori	zero,at,208
 8002f64:	08003414 	ori	zero,at,208
 8002f68:	08003414 	ori	zero,at,208
 8002f6c:	08003414 	ori	zero,at,208
 8002f70:	080031ec 	andhi	zero,at,199
 8002f74:	08003414 	ori	zero,at,208
 8002f78:	080031e0 	cmpeqi	zero,at,199
 8002f7c:	080031d4 	ori	zero,at,199
 8002f80:	080031c8 	cmpgei	zero,at,199
 8002f84:	08003414 	ori	zero,at,208
 8002f88:	08003414 	ori	zero,at,208
 8002f8c:	080031bc 	xorhi	zero,at,198
 8002f90:	08003414 	ori	zero,at,208
 8002f94:	08003414 	ori	zero,at,208
 8002f98:	08003414 	ori	zero,at,208
 8002f9c:	08003414 	ori	zero,at,208
 8002fa0:	08003414 	ori	zero,at,208
 8002fa4:	08003414 	ori	zero,at,208
 8002fa8:	08003414 	ori	zero,at,208
 8002fac:	08003414 	ori	zero,at,208
 8002fb0:	080031b0 	cmpltui	zero,at,198
 8002fb4:	080031a4 	muli	zero,at,198
 8002fb8:	08003198 	cmpnei	zero,at,198
 8002fbc:	0800318c 	andi	zero,at,198
 8002fc0:	08003180 	call	800318 <__alt_mem_onchip_memory2_0+0x600318>
 8002fc4:	08003174 	orhi	zero,at,197
 8002fc8:	08003414 	ori	zero,at,208
 8002fcc:	08003168 	cmpgeui	zero,at,197
 8002fd0:	0800315c 	xori	zero,at,197
 8002fd4:	08003150 	cmplti	zero,at,197
 8002fd8:	08003144 	addi	zero,at,197
 8002fdc:	08003138 	rdprs	zero,at,196
 8002fe0:	0800312c 	andhi	zero,at,196
 8002fe4:	08003120 	cmpeqi	zero,at,196
 8002fe8:	08003114 	ori	zero,at,196
 8002fec:	08003108 	cmpgei	zero,at,196
 8002ff0:	080030fc 	xorhi	zero,at,195
 8002ff4:	080030f0 	cmpltui	zero,at,195
 8002ff8:	080030e4 	muli	zero,at,195
 8002ffc:	080030d8 	cmpnei	zero,at,195
 8003000:	08003414 	ori	zero,at,208
 8003004:	080030cc 	andi	zero,at,195
 8003008:	080030c0 	call	80030c <__alt_mem_onchip_memory2_0+0x60030c>
 800300c:	080030b4 	orhi	zero,at,194
 8003010:	080030a8 	cmpgeui	zero,at,194
 8003014:	08003414 	ori	zero,at,208
 8003018:	08003414 	ori	zero,at,208
 800301c:	08003414 	ori	zero,at,208
 8003020:	08003414 	ori	zero,at,208
 8003024:	08003414 	ori	zero,at,208
 8003028:	0800309c 	xori	zero,at,194
 800302c:	08003414 	ori	zero,at,208
 8003030:	08003414 	ori	zero,at,208
 8003034:	08003414 	ori	zero,at,208
 8003038:	08003090 	cmplti	zero,at,194
 800303c:	08003084 	addi	zero,at,194
 8003040:	08003078 	rdprs	zero,at,193
 8003044:	0800306c 	andhi	zero,at,193
 8003048:	08003060 	cmpeqi	zero,at,193
 800304c:	00820074 	movhi	r2,2049
 8003050:	10958504 	addi	r2,r2,22036
 8003054:	dfc00017 	ldw	ra,0(sp)
 8003058:	dec00104 	addi	sp,sp,4
 800305c:	f800283a 	ret
 8003060:	00820074 	movhi	r2,2049
 8003064:	10972204 	addi	r2,r2,23688
 8003068:	003ffa06 	br	8003054 <__alt_data_end+0xf8003054>
 800306c:	00820074 	movhi	r2,2049
 8003070:	10971c04 	addi	r2,r2,23664
 8003074:	003ff706 	br	8003054 <__alt_data_end+0xf8003054>
 8003078:	00820074 	movhi	r2,2049
 800307c:	10971704 	addi	r2,r2,23644
 8003080:	003ff406 	br	8003054 <__alt_data_end+0xf8003054>
 8003084:	00820074 	movhi	r2,2049
 8003088:	10973004 	addi	r2,r2,23744
 800308c:	003ff106 	br	8003054 <__alt_data_end+0xf8003054>
 8003090:	00820074 	movhi	r2,2049
 8003094:	10966e04 	addi	r2,r2,22968
 8003098:	003fee06 	br	8003054 <__alt_data_end+0xf8003054>
 800309c:	00820074 	movhi	r2,2049
 80030a0:	10963c04 	addi	r2,r2,22768
 80030a4:	003feb06 	br	8003054 <__alt_data_end+0xf8003054>
 80030a8:	00820074 	movhi	r2,2049
 80030ac:	10970a04 	addi	r2,r2,23592
 80030b0:	003fe806 	br	8003054 <__alt_data_end+0xf8003054>
 80030b4:	00820074 	movhi	r2,2049
 80030b8:	10971004 	addi	r2,r2,23616
 80030bc:	003fe506 	br	8003054 <__alt_data_end+0xf8003054>
 80030c0:	00820074 	movhi	r2,2049
 80030c4:	10960b04 	addi	r2,r2,22572
 80030c8:	003fe206 	br	8003054 <__alt_data_end+0xf8003054>
 80030cc:	00820074 	movhi	r2,2049
 80030d0:	1096fb04 	addi	r2,r2,23532
 80030d4:	003fdf06 	br	8003054 <__alt_data_end+0xf8003054>
 80030d8:	00820074 	movhi	r2,2049
 80030dc:	10969804 	addi	r2,r2,23136
 80030e0:	003fdc06 	br	8003054 <__alt_data_end+0xf8003054>
 80030e4:	00820074 	movhi	r2,2049
 80030e8:	10973a04 	addi	r2,r2,23784
 80030ec:	003fd906 	br	8003054 <__alt_data_end+0xf8003054>
 80030f0:	00820074 	movhi	r2,2049
 80030f4:	1095bd04 	addi	r2,r2,22260
 80030f8:	003fd606 	br	8003054 <__alt_data_end+0xf8003054>
 80030fc:	00820074 	movhi	r2,2049
 8003100:	1095af04 	addi	r2,r2,22204
 8003104:	003fd306 	br	8003054 <__alt_data_end+0xf8003054>
 8003108:	00820074 	movhi	r2,2049
 800310c:	1095f104 	addi	r2,r2,22468
 8003110:	003fd006 	br	8003054 <__alt_data_end+0xf8003054>
 8003114:	00820074 	movhi	r2,2049
 8003118:	10963104 	addi	r2,r2,22724
 800311c:	003fcd06 	br	8003054 <__alt_data_end+0xf8003054>
 8003120:	00820074 	movhi	r2,2049
 8003124:	1095ed04 	addi	r2,r2,22452
 8003128:	003fca06 	br	8003054 <__alt_data_end+0xf8003054>
 800312c:	00820074 	movhi	r2,2049
 8003130:	10973f04 	addi	r2,r2,23804
 8003134:	003fc706 	br	8003054 <__alt_data_end+0xf8003054>
 8003138:	00820074 	movhi	r2,2049
 800313c:	10960204 	addi	r2,r2,22536
 8003140:	003fc406 	br	8003054 <__alt_data_end+0xf8003054>
 8003144:	00820074 	movhi	r2,2049
 8003148:	10967704 	addi	r2,r2,23004
 800314c:	003fc106 	br	8003054 <__alt_data_end+0xf8003054>
 8003150:	00820074 	movhi	r2,2049
 8003154:	10970104 	addi	r2,r2,23556
 8003158:	003fbe06 	br	8003054 <__alt_data_end+0xf8003054>
 800315c:	00820074 	movhi	r2,2049
 8003160:	1096f504 	addi	r2,r2,23508
 8003164:	003fbb06 	br	8003054 <__alt_data_end+0xf8003054>
 8003168:	00820074 	movhi	r2,2049
 800316c:	1096e904 	addi	r2,r2,23460
 8003170:	003fb806 	br	8003054 <__alt_data_end+0xf8003054>
 8003174:	00820074 	movhi	r2,2049
 8003178:	1096e304 	addi	r2,r2,23436
 800317c:	003fb506 	br	8003054 <__alt_data_end+0xf8003054>
 8003180:	00820074 	movhi	r2,2049
 8003184:	1096db04 	addi	r2,r2,23404
 8003188:	003fb206 	br	8003054 <__alt_data_end+0xf8003054>
 800318c:	00820074 	movhi	r2,2049
 8003190:	1096d304 	addi	r2,r2,23372
 8003194:	003faf06 	br	8003054 <__alt_data_end+0xf8003054>
 8003198:	00820074 	movhi	r2,2049
 800319c:	1096c704 	addi	r2,r2,23324
 80031a0:	003fac06 	br	8003054 <__alt_data_end+0xf8003054>
 80031a4:	00820074 	movhi	r2,2049
 80031a8:	1096be04 	addi	r2,r2,23288
 80031ac:	003fa906 	br	8003054 <__alt_data_end+0xf8003054>
 80031b0:	00820074 	movhi	r2,2049
 80031b4:	1096ee04 	addi	r2,r2,23480
 80031b8:	003fa606 	br	8003054 <__alt_data_end+0xf8003054>
 80031bc:	00820074 	movhi	r2,2049
 80031c0:	10972704 	addi	r2,r2,23708
 80031c4:	003fa306 	br	8003054 <__alt_data_end+0xf8003054>
 80031c8:	00820074 	movhi	r2,2049
 80031cc:	1096b804 	addi	r2,r2,23264
 80031d0:	003fa006 	br	8003054 <__alt_data_end+0xf8003054>
 80031d4:	00820074 	movhi	r2,2049
 80031d8:	1096b104 	addi	r2,r2,23236
 80031dc:	003f9d06 	br	8003054 <__alt_data_end+0xf8003054>
 80031e0:	00820074 	movhi	r2,2049
 80031e4:	1096ac04 	addi	r2,r2,23216
 80031e8:	003f9a06 	br	8003054 <__alt_data_end+0xf8003054>
 80031ec:	00820074 	movhi	r2,2049
 80031f0:	1096a504 	addi	r2,r2,23188
 80031f4:	003f9706 	br	8003054 <__alt_data_end+0xf8003054>
 80031f8:	00820074 	movhi	r2,2049
 80031fc:	1096a204 	addi	r2,r2,23176
 8003200:	003f9406 	br	8003054 <__alt_data_end+0xf8003054>
 8003204:	00820074 	movhi	r2,2049
 8003208:	10969d04 	addi	r2,r2,23156
 800320c:	003f9106 	br	8003054 <__alt_data_end+0xf8003054>
 8003210:	00820074 	movhi	r2,2049
 8003214:	10969404 	addi	r2,r2,23120
 8003218:	003f8e06 	br	8003054 <__alt_data_end+0xf8003054>
 800321c:	00820074 	movhi	r2,2049
 8003220:	10968e04 	addi	r2,r2,23096
 8003224:	003f8b06 	br	8003054 <__alt_data_end+0xf8003054>
 8003228:	00820074 	movhi	r2,2049
 800322c:	10968904 	addi	r2,r2,23076
 8003230:	003f8806 	br	8003054 <__alt_data_end+0xf8003054>
 8003234:	00820074 	movhi	r2,2049
 8003238:	10968304 	addi	r2,r2,23052
 800323c:	003f8506 	br	8003054 <__alt_data_end+0xf8003054>
 8003240:	00820074 	movhi	r2,2049
 8003244:	1096c504 	addi	r2,r2,23316
 8003248:	003f8206 	br	8003054 <__alt_data_end+0xf8003054>
 800324c:	00820074 	movhi	r2,2049
 8003250:	10967f04 	addi	r2,r2,23036
 8003254:	003f7f06 	br	8003054 <__alt_data_end+0xf8003054>
 8003258:	00820074 	movhi	r2,2049
 800325c:	10967d04 	addi	r2,r2,23028
 8003260:	003f7c06 	br	8003054 <__alt_data_end+0xf8003054>
 8003264:	00820074 	movhi	r2,2049
 8003268:	10967404 	addi	r2,r2,22992
 800326c:	003f7906 	br	8003054 <__alt_data_end+0xf8003054>
 8003270:	00820074 	movhi	r2,2049
 8003274:	10966904 	addi	r2,r2,22948
 8003278:	003f7606 	br	8003054 <__alt_data_end+0xf8003054>
 800327c:	00820074 	movhi	r2,2049
 8003280:	10966204 	addi	r2,r2,22920
 8003284:	003f7306 	br	8003054 <__alt_data_end+0xf8003054>
 8003288:	00820074 	movhi	r2,2049
 800328c:	10965d04 	addi	r2,r2,22900
 8003290:	003f7006 	br	8003054 <__alt_data_end+0xf8003054>
 8003294:	00820074 	movhi	r2,2049
 8003298:	10965104 	addi	r2,r2,22852
 800329c:	003f6d06 	br	8003054 <__alt_data_end+0xf8003054>
 80032a0:	00820074 	movhi	r2,2049
 80032a4:	10964e04 	addi	r2,r2,22840
 80032a8:	003f6a06 	br	8003054 <__alt_data_end+0xf8003054>
 80032ac:	00820074 	movhi	r2,2049
 80032b0:	10964a04 	addi	r2,r2,22824
 80032b4:	003f6706 	br	8003054 <__alt_data_end+0xf8003054>
 80032b8:	00820074 	movhi	r2,2049
 80032bc:	10964404 	addi	r2,r2,22800
 80032c0:	003f6406 	br	8003054 <__alt_data_end+0xf8003054>
 80032c4:	00820074 	movhi	r2,2049
 80032c8:	10964004 	addi	r2,r2,22784
 80032cc:	003f6106 	br	8003054 <__alt_data_end+0xf8003054>
 80032d0:	00820074 	movhi	r2,2049
 80032d4:	10963604 	addi	r2,r2,22744
 80032d8:	003f5e06 	br	8003054 <__alt_data_end+0xf8003054>
 80032dc:	00820074 	movhi	r2,2049
 80032e0:	10962d04 	addi	r2,r2,22708
 80032e4:	003f5b06 	br	8003054 <__alt_data_end+0xf8003054>
 80032e8:	00820074 	movhi	r2,2049
 80032ec:	10962904 	addi	r2,r2,22692
 80032f0:	003f5806 	br	8003054 <__alt_data_end+0xf8003054>
 80032f4:	00820074 	movhi	r2,2049
 80032f8:	10962304 	addi	r2,r2,22668
 80032fc:	003f5506 	br	8003054 <__alt_data_end+0xf8003054>
 8003300:	00820074 	movhi	r2,2049
 8003304:	10961b04 	addi	r2,r2,22636
 8003308:	003f5206 	br	8003054 <__alt_data_end+0xf8003054>
 800330c:	00820074 	movhi	r2,2049
 8003310:	10961304 	addi	r2,r2,22604
 8003314:	003f4f06 	br	8003054 <__alt_data_end+0xf8003054>
 8003318:	00820074 	movhi	r2,2049
 800331c:	1095fd04 	addi	r2,r2,22516
 8003320:	003f4c06 	br	8003054 <__alt_data_end+0xf8003054>
 8003324:	00820074 	movhi	r2,2049
 8003328:	1095f904 	addi	r2,r2,22500
 800332c:	003f4906 	br	8003054 <__alt_data_end+0xf8003054>
 8003330:	00820074 	movhi	r2,2049
 8003334:	1095e904 	addi	r2,r2,22436
 8003338:	003f4606 	br	8003054 <__alt_data_end+0xf8003054>
 800333c:	00820074 	movhi	r2,2049
 8003340:	1095e504 	addi	r2,r2,22420
 8003344:	003f4306 	br	8003054 <__alt_data_end+0xf8003054>
 8003348:	00820074 	movhi	r2,2049
 800334c:	1095e004 	addi	r2,r2,22400
 8003350:	003f4006 	br	8003054 <__alt_data_end+0xf8003054>
 8003354:	00820074 	movhi	r2,2049
 8003358:	1095dd04 	addi	r2,r2,22388
 800335c:	003f3d06 	br	8003054 <__alt_data_end+0xf8003054>
 8003360:	00820074 	movhi	r2,2049
 8003364:	1095d704 	addi	r2,r2,22364
 8003368:	003f3a06 	br	8003054 <__alt_data_end+0xf8003054>
 800336c:	00820074 	movhi	r2,2049
 8003370:	1095d404 	addi	r2,r2,22352
 8003374:	003f3706 	br	8003054 <__alt_data_end+0xf8003054>
 8003378:	00820074 	movhi	r2,2049
 800337c:	1095cf04 	addi	r2,r2,22332
 8003380:	003f3406 	br	8003054 <__alt_data_end+0xf8003054>
 8003384:	00820074 	movhi	r2,2049
 8003388:	1095ca04 	addi	r2,r2,22312
 800338c:	003f3106 	br	8003054 <__alt_data_end+0xf8003054>
 8003390:	00820074 	movhi	r2,2049
 8003394:	1095c504 	addi	r2,r2,22292
 8003398:	003f2e06 	br	8003054 <__alt_data_end+0xf8003054>
 800339c:	00820074 	movhi	r2,2049
 80033a0:	1095ba04 	addi	r2,r2,22248
 80033a4:	003f2b06 	br	8003054 <__alt_data_end+0xf8003054>
 80033a8:	00820074 	movhi	r2,2049
 80033ac:	1095b604 	addi	r2,r2,22232
 80033b0:	003f2806 	br	8003054 <__alt_data_end+0xf8003054>
 80033b4:	00820074 	movhi	r2,2049
 80033b8:	1095aa04 	addi	r2,r2,22184
 80033bc:	003f2506 	br	8003054 <__alt_data_end+0xf8003054>
 80033c0:	00820074 	movhi	r2,2049
 80033c4:	1095a504 	addi	r2,r2,22164
 80033c8:	003f2206 	br	8003054 <__alt_data_end+0xf8003054>
 80033cc:	00820074 	movhi	r2,2049
 80033d0:	10959e04 	addi	r2,r2,22136
 80033d4:	003f1f06 	br	8003054 <__alt_data_end+0xf8003054>
 80033d8:	00820074 	movhi	r2,2049
 80033dc:	10959b04 	addi	r2,r2,22124
 80033e0:	003f1c06 	br	8003054 <__alt_data_end+0xf8003054>
 80033e4:	00820074 	movhi	r2,2049
 80033e8:	10959504 	addi	r2,r2,22100
 80033ec:	003f1906 	br	8003054 <__alt_data_end+0xf8003054>
 80033f0:	00820074 	movhi	r2,2049
 80033f4:	10959104 	addi	r2,r2,22084
 80033f8:	003f1606 	br	8003054 <__alt_data_end+0xf8003054>
 80033fc:	00820074 	movhi	r2,2049
 8003400:	10958a04 	addi	r2,r2,22056
 8003404:	003f1306 	br	8003054 <__alt_data_end+0xf8003054>
 8003408:	00820074 	movhi	r2,2049
 800340c:	10958704 	addi	r2,r2,22044
 8003410:	003f1006 	br	8003054 <__alt_data_end+0xf8003054>
 8003414:	38000726 	beq	r7,zero,8003434 <_strerror_r+0x654>
 8003418:	380d883a 	mov	r6,r7
 800341c:	1809883a 	mov	r4,r3
 8003420:	80034f00 	call	80034f0 <_user_strerror>
 8003424:	103f0b1e 	bne	r2,zero,8003054 <__alt_data_end+0xf8003054>
 8003428:	00820074 	movhi	r2,2049
 800342c:	10974d04 	addi	r2,r2,23860
 8003430:	003f0806 	br	8003054 <__alt_data_end+0xf8003054>
 8003434:	200f883a 	mov	r7,r4
 8003438:	003ff706 	br	8003418 <__alt_data_end+0xf8003418>

0800343c <strerror>:
 800343c:	00820074 	movhi	r2,2049
 8003440:	109ecc04 	addi	r2,r2,31536
 8003444:	200b883a 	mov	r5,r4
 8003448:	11000017 	ldw	r4,0(r2)
 800344c:	000f883a 	mov	r7,zero
 8003450:	000d883a 	mov	r6,zero
 8003454:	8002de01 	jmpi	8002de0 <_strerror_r>

08003458 <strlen>:
 8003458:	208000cc 	andi	r2,r4,3
 800345c:	10002026 	beq	r2,zero,80034e0 <strlen+0x88>
 8003460:	20800007 	ldb	r2,0(r4)
 8003464:	10002026 	beq	r2,zero,80034e8 <strlen+0x90>
 8003468:	2005883a 	mov	r2,r4
 800346c:	00000206 	br	8003478 <strlen+0x20>
 8003470:	10c00007 	ldb	r3,0(r2)
 8003474:	18001826 	beq	r3,zero,80034d8 <strlen+0x80>
 8003478:	10800044 	addi	r2,r2,1
 800347c:	10c000cc 	andi	r3,r2,3
 8003480:	183ffb1e 	bne	r3,zero,8003470 <__alt_data_end+0xf8003470>
 8003484:	10c00017 	ldw	r3,0(r2)
 8003488:	01ffbff4 	movhi	r7,65279
 800348c:	39ffbfc4 	addi	r7,r7,-257
 8003490:	00ca303a 	nor	r5,zero,r3
 8003494:	01a02074 	movhi	r6,32897
 8003498:	19c7883a 	add	r3,r3,r7
 800349c:	31a02004 	addi	r6,r6,-32640
 80034a0:	1946703a 	and	r3,r3,r5
 80034a4:	1986703a 	and	r3,r3,r6
 80034a8:	1800091e 	bne	r3,zero,80034d0 <strlen+0x78>
 80034ac:	10800104 	addi	r2,r2,4
 80034b0:	10c00017 	ldw	r3,0(r2)
 80034b4:	19cb883a 	add	r5,r3,r7
 80034b8:	00c6303a 	nor	r3,zero,r3
 80034bc:	28c6703a 	and	r3,r5,r3
 80034c0:	1986703a 	and	r3,r3,r6
 80034c4:	183ff926 	beq	r3,zero,80034ac <__alt_data_end+0xf80034ac>
 80034c8:	00000106 	br	80034d0 <strlen+0x78>
 80034cc:	10800044 	addi	r2,r2,1
 80034d0:	10c00007 	ldb	r3,0(r2)
 80034d4:	183ffd1e 	bne	r3,zero,80034cc <__alt_data_end+0xf80034cc>
 80034d8:	1105c83a 	sub	r2,r2,r4
 80034dc:	f800283a 	ret
 80034e0:	2005883a 	mov	r2,r4
 80034e4:	003fe706 	br	8003484 <__alt_data_end+0xf8003484>
 80034e8:	0005883a 	mov	r2,zero
 80034ec:	f800283a 	ret

080034f0 <_user_strerror>:
 80034f0:	0005883a 	mov	r2,zero
 80034f4:	f800283a 	ret

080034f8 <___vfprintf_internal_r>:
 80034f8:	deffb804 	addi	sp,sp,-288
 80034fc:	dfc04715 	stw	ra,284(sp)
 8003500:	ddc04515 	stw	r23,276(sp)
 8003504:	dd404315 	stw	r21,268(sp)
 8003508:	d9002c15 	stw	r4,176(sp)
 800350c:	282f883a 	mov	r23,r5
 8003510:	302b883a 	mov	r21,r6
 8003514:	d9c02d15 	stw	r7,180(sp)
 8003518:	df004615 	stw	fp,280(sp)
 800351c:	dd804415 	stw	r22,272(sp)
 8003520:	dd004215 	stw	r20,264(sp)
 8003524:	dcc04115 	stw	r19,260(sp)
 8003528:	dc804015 	stw	r18,256(sp)
 800352c:	dc403f15 	stw	r17,252(sp)
 8003530:	dc003e15 	stw	r16,248(sp)
 8003534:	8007a140 	call	8007a14 <_localeconv_r>
 8003538:	10800017 	ldw	r2,0(r2)
 800353c:	1009883a 	mov	r4,r2
 8003540:	d8803415 	stw	r2,208(sp)
 8003544:	80034580 	call	8003458 <strlen>
 8003548:	d8803715 	stw	r2,220(sp)
 800354c:	d8802c17 	ldw	r2,176(sp)
 8003550:	10000226 	beq	r2,zero,800355c <___vfprintf_internal_r+0x64>
 8003554:	10800e17 	ldw	r2,56(r2)
 8003558:	1000f926 	beq	r2,zero,8003940 <___vfprintf_internal_r+0x448>
 800355c:	b880030b 	ldhu	r2,12(r23)
 8003560:	10c8000c 	andi	r3,r2,8192
 8003564:	1800061e 	bne	r3,zero,8003580 <___vfprintf_internal_r+0x88>
 8003568:	b9001917 	ldw	r4,100(r23)
 800356c:	00f7ffc4 	movi	r3,-8193
 8003570:	10880014 	ori	r2,r2,8192
 8003574:	20c6703a 	and	r3,r4,r3
 8003578:	b880030d 	sth	r2,12(r23)
 800357c:	b8c01915 	stw	r3,100(r23)
 8003580:	10c0020c 	andi	r3,r2,8
 8003584:	1800c126 	beq	r3,zero,800388c <___vfprintf_internal_r+0x394>
 8003588:	b8c00417 	ldw	r3,16(r23)
 800358c:	1800bf26 	beq	r3,zero,800388c <___vfprintf_internal_r+0x394>
 8003590:	1080068c 	andi	r2,r2,26
 8003594:	00c00284 	movi	r3,10
 8003598:	10c0c426 	beq	r2,r3,80038ac <___vfprintf_internal_r+0x3b4>
 800359c:	d8c00404 	addi	r3,sp,16
 80035a0:	05020074 	movhi	r20,2049
 80035a4:	d9001e04 	addi	r4,sp,120
 80035a8:	a5175584 	addi	r20,r20,23894
 80035ac:	d8c01e15 	stw	r3,120(sp)
 80035b0:	d8002015 	stw	zero,128(sp)
 80035b4:	d8001f15 	stw	zero,124(sp)
 80035b8:	d8003315 	stw	zero,204(sp)
 80035bc:	d8003615 	stw	zero,216(sp)
 80035c0:	d8003815 	stw	zero,224(sp)
 80035c4:	1811883a 	mov	r8,r3
 80035c8:	d8003915 	stw	zero,228(sp)
 80035cc:	d8003a15 	stw	zero,232(sp)
 80035d0:	d8002f15 	stw	zero,188(sp)
 80035d4:	d9002815 	stw	r4,160(sp)
 80035d8:	a8800007 	ldb	r2,0(r21)
 80035dc:	10027b26 	beq	r2,zero,8003fcc <___vfprintf_internal_r+0xad4>
 80035e0:	00c00944 	movi	r3,37
 80035e4:	a821883a 	mov	r16,r21
 80035e8:	10c0021e 	bne	r2,r3,80035f4 <___vfprintf_internal_r+0xfc>
 80035ec:	00001406 	br	8003640 <___vfprintf_internal_r+0x148>
 80035f0:	10c00326 	beq	r2,r3,8003600 <___vfprintf_internal_r+0x108>
 80035f4:	84000044 	addi	r16,r16,1
 80035f8:	80800007 	ldb	r2,0(r16)
 80035fc:	103ffc1e 	bne	r2,zero,80035f0 <__alt_data_end+0xf80035f0>
 8003600:	8563c83a 	sub	r17,r16,r21
 8003604:	88000e26 	beq	r17,zero,8003640 <___vfprintf_internal_r+0x148>
 8003608:	d8c02017 	ldw	r3,128(sp)
 800360c:	d8801f17 	ldw	r2,124(sp)
 8003610:	45400015 	stw	r21,0(r8)
 8003614:	1c47883a 	add	r3,r3,r17
 8003618:	10800044 	addi	r2,r2,1
 800361c:	d8c02015 	stw	r3,128(sp)
 8003620:	44400115 	stw	r17,4(r8)
 8003624:	d8801f15 	stw	r2,124(sp)
 8003628:	00c001c4 	movi	r3,7
 800362c:	1880a716 	blt	r3,r2,80038cc <___vfprintf_internal_r+0x3d4>
 8003630:	42000204 	addi	r8,r8,8
 8003634:	d9402f17 	ldw	r5,188(sp)
 8003638:	2c4b883a 	add	r5,r5,r17
 800363c:	d9402f15 	stw	r5,188(sp)
 8003640:	80800007 	ldb	r2,0(r16)
 8003644:	1000a826 	beq	r2,zero,80038e8 <___vfprintf_internal_r+0x3f0>
 8003648:	84400047 	ldb	r17,1(r16)
 800364c:	00bfffc4 	movi	r2,-1
 8003650:	85400044 	addi	r21,r16,1
 8003654:	d8002785 	stb	zero,158(sp)
 8003658:	0007883a 	mov	r3,zero
 800365c:	000f883a 	mov	r7,zero
 8003660:	d8802915 	stw	r2,164(sp)
 8003664:	d8003115 	stw	zero,196(sp)
 8003668:	0025883a 	mov	r18,zero
 800366c:	01401604 	movi	r5,88
 8003670:	01800244 	movi	r6,9
 8003674:	02800a84 	movi	r10,42
 8003678:	02401b04 	movi	r9,108
 800367c:	ad400044 	addi	r21,r21,1
 8003680:	88bff804 	addi	r2,r17,-32
 8003684:	28830436 	bltu	r5,r2,8004298 <___vfprintf_internal_r+0xda0>
 8003688:	100490ba 	slli	r2,r2,2
 800368c:	01020034 	movhi	r4,2048
 8003690:	210da804 	addi	r4,r4,13984
 8003694:	1105883a 	add	r2,r2,r4
 8003698:	10800017 	ldw	r2,0(r2)
 800369c:	1000683a 	jmp	r2
 80036a0:	080041b8 	rdprs	zero,at,262
 80036a4:	08004298 	cmpnei	zero,at,266
 80036a8:	08004298 	cmpnei	zero,at,266
 80036ac:	080041d8 	cmpnei	zero,at,263
 80036b0:	08004298 	cmpnei	zero,at,266
 80036b4:	08004298 	cmpnei	zero,at,266
 80036b8:	08004298 	cmpnei	zero,at,266
 80036bc:	08004298 	cmpnei	zero,at,266
 80036c0:	08004298 	cmpnei	zero,at,266
 80036c4:	08004298 	cmpnei	zero,at,266
 80036c8:	0800394c 	andi	zero,at,229
 80036cc:	080040f4 	orhi	zero,at,259
 80036d0:	08004298 	cmpnei	zero,at,266
 80036d4:	08003814 	ori	zero,at,224
 80036d8:	08003974 	orhi	zero,at,229
 80036dc:	08004298 	cmpnei	zero,at,266
 80036e0:	080039b4 	orhi	zero,at,230
 80036e4:	080039c0 	call	80039c <__alt_mem_onchip_memory2_0+0x60039c>
 80036e8:	080039c0 	call	80039c <__alt_mem_onchip_memory2_0+0x60039c>
 80036ec:	080039c0 	call	80039c <__alt_mem_onchip_memory2_0+0x60039c>
 80036f0:	080039c0 	call	80039c <__alt_mem_onchip_memory2_0+0x60039c>
 80036f4:	080039c0 	call	80039c <__alt_mem_onchip_memory2_0+0x60039c>
 80036f8:	080039c0 	call	80039c <__alt_mem_onchip_memory2_0+0x60039c>
 80036fc:	080039c0 	call	80039c <__alt_mem_onchip_memory2_0+0x60039c>
 8003700:	080039c0 	call	80039c <__alt_mem_onchip_memory2_0+0x60039c>
 8003704:	080039c0 	call	80039c <__alt_mem_onchip_memory2_0+0x60039c>
 8003708:	08004298 	cmpnei	zero,at,266
 800370c:	08004298 	cmpnei	zero,at,266
 8003710:	08004298 	cmpnei	zero,at,266
 8003714:	08004298 	cmpnei	zero,at,266
 8003718:	08004298 	cmpnei	zero,at,266
 800371c:	08004298 	cmpnei	zero,at,266
 8003720:	08004298 	cmpnei	zero,at,266
 8003724:	08004298 	cmpnei	zero,at,266
 8003728:	08004298 	cmpnei	zero,at,266
 800372c:	08004298 	cmpnei	zero,at,266
 8003730:	080039f4 	orhi	zero,at,231
 8003734:	08003ab0 	cmpltui	zero,at,234
 8003738:	08004298 	cmpnei	zero,at,266
 800373c:	08003ab0 	cmpltui	zero,at,234
 8003740:	08004298 	cmpnei	zero,at,266
 8003744:	08004298 	cmpnei	zero,at,266
 8003748:	08004298 	cmpnei	zero,at,266
 800374c:	08004298 	cmpnei	zero,at,266
 8003750:	08003b50 	cmplti	zero,at,237
 8003754:	08004298 	cmpnei	zero,at,266
 8003758:	08004298 	cmpnei	zero,at,266
 800375c:	08003b5c 	xori	zero,at,237
 8003760:	08004298 	cmpnei	zero,at,266
 8003764:	08004298 	cmpnei	zero,at,266
 8003768:	08004298 	cmpnei	zero,at,266
 800376c:	08004298 	cmpnei	zero,at,266
 8003770:	08004298 	cmpnei	zero,at,266
 8003774:	08003fd4 	ori	zero,at,255
 8003778:	08004298 	cmpnei	zero,at,266
 800377c:	08004298 	cmpnei	zero,at,266
 8003780:	08004034 	orhi	zero,at,256
 8003784:	08004298 	cmpnei	zero,at,266
 8003788:	08004298 	cmpnei	zero,at,266
 800378c:	08004298 	cmpnei	zero,at,266
 8003790:	08004298 	cmpnei	zero,at,266
 8003794:	08004298 	cmpnei	zero,at,266
 8003798:	08004298 	cmpnei	zero,at,266
 800379c:	08004298 	cmpnei	zero,at,266
 80037a0:	08004298 	cmpnei	zero,at,266
 80037a4:	08004298 	cmpnei	zero,at,266
 80037a8:	08004298 	cmpnei	zero,at,266
 80037ac:	08004244 	addi	zero,at,265
 80037b0:	080041e4 	muli	zero,at,263
 80037b4:	08003ab0 	cmpltui	zero,at,234
 80037b8:	08003ab0 	cmpltui	zero,at,234
 80037bc:	08003ab0 	cmpltui	zero,at,234
 80037c0:	080041f4 	orhi	zero,at,263
 80037c4:	080041e4 	muli	zero,at,263
 80037c8:	08004298 	cmpnei	zero,at,266
 80037cc:	08004298 	cmpnei	zero,at,266
 80037d0:	08004200 	call	800420 <__alt_mem_onchip_memory2_0+0x600420>
 80037d4:	08004298 	cmpnei	zero,at,266
 80037d8:	08004210 	cmplti	zero,at,264
 80037dc:	080040e4 	muli	zero,at,259
 80037e0:	08003820 	cmpeqi	zero,at,224
 80037e4:	08004104 	addi	zero,at,260
 80037e8:	08004298 	cmpnei	zero,at,266
 80037ec:	08004110 	cmplti	zero,at,260
 80037f0:	08004298 	cmpnei	zero,at,266
 80037f4:	0800416c 	andhi	zero,at,261
 80037f8:	08004298 	cmpnei	zero,at,266
 80037fc:	08004298 	cmpnei	zero,at,266
 8003800:	0800417c 	xorhi	zero,at,261
 8003804:	d9003117 	ldw	r4,196(sp)
 8003808:	d8802d15 	stw	r2,180(sp)
 800380c:	0109c83a 	sub	r4,zero,r4
 8003810:	d9003115 	stw	r4,196(sp)
 8003814:	94800114 	ori	r18,r18,4
 8003818:	ac400007 	ldb	r17,0(r21)
 800381c:	003f9706 	br	800367c <__alt_data_end+0xf800367c>
 8003820:	00800c04 	movi	r2,48
 8003824:	d9002d17 	ldw	r4,180(sp)
 8003828:	d9402917 	ldw	r5,164(sp)
 800382c:	d8802705 	stb	r2,156(sp)
 8003830:	00801e04 	movi	r2,120
 8003834:	d8802745 	stb	r2,157(sp)
 8003838:	d8002785 	stb	zero,158(sp)
 800383c:	20c00104 	addi	r3,r4,4
 8003840:	24c00017 	ldw	r19,0(r4)
 8003844:	002d883a 	mov	r22,zero
 8003848:	90800094 	ori	r2,r18,2
 800384c:	28029a16 	blt	r5,zero,80042b8 <___vfprintf_internal_r+0xdc0>
 8003850:	00bfdfc4 	movi	r2,-129
 8003854:	90a4703a 	and	r18,r18,r2
 8003858:	d8c02d15 	stw	r3,180(sp)
 800385c:	94800094 	ori	r18,r18,2
 8003860:	9802871e 	bne	r19,zero,8004280 <___vfprintf_internal_r+0xd88>
 8003864:	00820074 	movhi	r2,2049
 8003868:	10974e04 	addi	r2,r2,23864
 800386c:	d8803915 	stw	r2,228(sp)
 8003870:	04401e04 	movi	r17,120
 8003874:	d8802917 	ldw	r2,164(sp)
 8003878:	0039883a 	mov	fp,zero
 800387c:	1001e926 	beq	r2,zero,8004024 <___vfprintf_internal_r+0xb2c>
 8003880:	0027883a 	mov	r19,zero
 8003884:	002d883a 	mov	r22,zero
 8003888:	00020506 	br	80040a0 <___vfprintf_internal_r+0xba8>
 800388c:	d9002c17 	ldw	r4,176(sp)
 8003890:	b80b883a 	mov	r5,r23
 8003894:	80058280 	call	8005828 <__swsetup_r>
 8003898:	1005ac1e 	bne	r2,zero,8004f4c <___vfprintf_internal_r+0x1a54>
 800389c:	b880030b 	ldhu	r2,12(r23)
 80038a0:	00c00284 	movi	r3,10
 80038a4:	1080068c 	andi	r2,r2,26
 80038a8:	10ff3c1e 	bne	r2,r3,800359c <__alt_data_end+0xf800359c>
 80038ac:	b880038f 	ldh	r2,14(r23)
 80038b0:	103f3a16 	blt	r2,zero,800359c <__alt_data_end+0xf800359c>
 80038b4:	d9c02d17 	ldw	r7,180(sp)
 80038b8:	d9002c17 	ldw	r4,176(sp)
 80038bc:	a80d883a 	mov	r6,r21
 80038c0:	b80b883a 	mov	r5,r23
 80038c4:	800570c0 	call	800570c <__sbprintf>
 80038c8:	00001106 	br	8003910 <___vfprintf_internal_r+0x418>
 80038cc:	d9002c17 	ldw	r4,176(sp)
 80038d0:	d9801e04 	addi	r6,sp,120
 80038d4:	b80b883a 	mov	r5,r23
 80038d8:	80096580 	call	8009658 <__sprint_r>
 80038dc:	1000081e 	bne	r2,zero,8003900 <___vfprintf_internal_r+0x408>
 80038e0:	da000404 	addi	r8,sp,16
 80038e4:	003f5306 	br	8003634 <__alt_data_end+0xf8003634>
 80038e8:	d8802017 	ldw	r2,128(sp)
 80038ec:	10000426 	beq	r2,zero,8003900 <___vfprintf_internal_r+0x408>
 80038f0:	d9002c17 	ldw	r4,176(sp)
 80038f4:	d9801e04 	addi	r6,sp,120
 80038f8:	b80b883a 	mov	r5,r23
 80038fc:	80096580 	call	8009658 <__sprint_r>
 8003900:	b880030b 	ldhu	r2,12(r23)
 8003904:	1080100c 	andi	r2,r2,64
 8003908:	1005901e 	bne	r2,zero,8004f4c <___vfprintf_internal_r+0x1a54>
 800390c:	d8802f17 	ldw	r2,188(sp)
 8003910:	dfc04717 	ldw	ra,284(sp)
 8003914:	df004617 	ldw	fp,280(sp)
 8003918:	ddc04517 	ldw	r23,276(sp)
 800391c:	dd804417 	ldw	r22,272(sp)
 8003920:	dd404317 	ldw	r21,268(sp)
 8003924:	dd004217 	ldw	r20,264(sp)
 8003928:	dcc04117 	ldw	r19,260(sp)
 800392c:	dc804017 	ldw	r18,256(sp)
 8003930:	dc403f17 	ldw	r17,252(sp)
 8003934:	dc003e17 	ldw	r16,248(sp)
 8003938:	dec04804 	addi	sp,sp,288
 800393c:	f800283a 	ret
 8003940:	d9002c17 	ldw	r4,176(sp)
 8003944:	8000d800 	call	8000d80 <__sinit>
 8003948:	003f0406 	br	800355c <__alt_data_end+0xf800355c>
 800394c:	d8802d17 	ldw	r2,180(sp)
 8003950:	d9002d17 	ldw	r4,180(sp)
 8003954:	10800017 	ldw	r2,0(r2)
 8003958:	d8803115 	stw	r2,196(sp)
 800395c:	20800104 	addi	r2,r4,4
 8003960:	d9003117 	ldw	r4,196(sp)
 8003964:	203fa716 	blt	r4,zero,8003804 <__alt_data_end+0xf8003804>
 8003968:	d8802d15 	stw	r2,180(sp)
 800396c:	ac400007 	ldb	r17,0(r21)
 8003970:	003f4206 	br	800367c <__alt_data_end+0xf800367c>
 8003974:	ac400007 	ldb	r17,0(r21)
 8003978:	aac00044 	addi	r11,r21,1
 800397c:	8a872826 	beq	r17,r10,8005620 <___vfprintf_internal_r+0x2128>
 8003980:	88bff404 	addi	r2,r17,-48
 8003984:	0009883a 	mov	r4,zero
 8003988:	30867d36 	bltu	r6,r2,8005380 <___vfprintf_internal_r+0x1e88>
 800398c:	5c400007 	ldb	r17,0(r11)
 8003990:	210002a4 	muli	r4,r4,10
 8003994:	5d400044 	addi	r21,r11,1
 8003998:	a817883a 	mov	r11,r21
 800399c:	2089883a 	add	r4,r4,r2
 80039a0:	88bff404 	addi	r2,r17,-48
 80039a4:	30bff92e 	bgeu	r6,r2,800398c <__alt_data_end+0xf800398c>
 80039a8:	2005c916 	blt	r4,zero,80050d0 <___vfprintf_internal_r+0x1bd8>
 80039ac:	d9002915 	stw	r4,164(sp)
 80039b0:	003f3306 	br	8003680 <__alt_data_end+0xf8003680>
 80039b4:	94802014 	ori	r18,r18,128
 80039b8:	ac400007 	ldb	r17,0(r21)
 80039bc:	003f2f06 	br	800367c <__alt_data_end+0xf800367c>
 80039c0:	a809883a 	mov	r4,r21
 80039c4:	d8003115 	stw	zero,196(sp)
 80039c8:	88bff404 	addi	r2,r17,-48
 80039cc:	0017883a 	mov	r11,zero
 80039d0:	24400007 	ldb	r17,0(r4)
 80039d4:	5ac002a4 	muli	r11,r11,10
 80039d8:	ad400044 	addi	r21,r21,1
 80039dc:	a809883a 	mov	r4,r21
 80039e0:	12d7883a 	add	r11,r2,r11
 80039e4:	88bff404 	addi	r2,r17,-48
 80039e8:	30bff92e 	bgeu	r6,r2,80039d0 <__alt_data_end+0xf80039d0>
 80039ec:	dac03115 	stw	r11,196(sp)
 80039f0:	003f2306 	br	8003680 <__alt_data_end+0xf8003680>
 80039f4:	18c03fcc 	andi	r3,r3,255
 80039f8:	18072b1e 	bne	r3,zero,80056a8 <___vfprintf_internal_r+0x21b0>
 80039fc:	94800414 	ori	r18,r18,16
 8003a00:	9080080c 	andi	r2,r18,32
 8003a04:	10037b26 	beq	r2,zero,80047f4 <___vfprintf_internal_r+0x12fc>
 8003a08:	d9402d17 	ldw	r5,180(sp)
 8003a0c:	28800117 	ldw	r2,4(r5)
 8003a10:	2cc00017 	ldw	r19,0(r5)
 8003a14:	29400204 	addi	r5,r5,8
 8003a18:	d9402d15 	stw	r5,180(sp)
 8003a1c:	102d883a 	mov	r22,r2
 8003a20:	10044b16 	blt	r2,zero,8004b50 <___vfprintf_internal_r+0x1658>
 8003a24:	d9402917 	ldw	r5,164(sp)
 8003a28:	df002783 	ldbu	fp,158(sp)
 8003a2c:	2803bc16 	blt	r5,zero,8004920 <___vfprintf_internal_r+0x1428>
 8003a30:	00ffdfc4 	movi	r3,-129
 8003a34:	9d84b03a 	or	r2,r19,r22
 8003a38:	90e4703a 	and	r18,r18,r3
 8003a3c:	10017726 	beq	r2,zero,800401c <___vfprintf_internal_r+0xb24>
 8003a40:	b0038326 	beq	r22,zero,8004850 <___vfprintf_internal_r+0x1358>
 8003a44:	dc402a15 	stw	r17,168(sp)
 8003a48:	dc001e04 	addi	r16,sp,120
 8003a4c:	b023883a 	mov	r17,r22
 8003a50:	402d883a 	mov	r22,r8
 8003a54:	9809883a 	mov	r4,r19
 8003a58:	880b883a 	mov	r5,r17
 8003a5c:	01800284 	movi	r6,10
 8003a60:	000f883a 	mov	r7,zero
 8003a64:	800b7280 	call	800b728 <__umoddi3>
 8003a68:	10800c04 	addi	r2,r2,48
 8003a6c:	843fffc4 	addi	r16,r16,-1
 8003a70:	9809883a 	mov	r4,r19
 8003a74:	880b883a 	mov	r5,r17
 8003a78:	80800005 	stb	r2,0(r16)
 8003a7c:	01800284 	movi	r6,10
 8003a80:	000f883a 	mov	r7,zero
 8003a84:	800b1b00 	call	800b1b0 <__udivdi3>
 8003a88:	1027883a 	mov	r19,r2
 8003a8c:	10c4b03a 	or	r2,r2,r3
 8003a90:	1823883a 	mov	r17,r3
 8003a94:	103fef1e 	bne	r2,zero,8003a54 <__alt_data_end+0xf8003a54>
 8003a98:	d8c02817 	ldw	r3,160(sp)
 8003a9c:	dc402a17 	ldw	r17,168(sp)
 8003aa0:	b011883a 	mov	r8,r22
 8003aa4:	1c07c83a 	sub	r3,r3,r16
 8003aa8:	d8c02e15 	stw	r3,184(sp)
 8003aac:	00005906 	br	8003c14 <___vfprintf_internal_r+0x71c>
 8003ab0:	18c03fcc 	andi	r3,r3,255
 8003ab4:	1806fa1e 	bne	r3,zero,80056a0 <___vfprintf_internal_r+0x21a8>
 8003ab8:	9080020c 	andi	r2,r18,8
 8003abc:	10048a26 	beq	r2,zero,8004ce8 <___vfprintf_internal_r+0x17f0>
 8003ac0:	d8c02d17 	ldw	r3,180(sp)
 8003ac4:	d9002d17 	ldw	r4,180(sp)
 8003ac8:	d9402d17 	ldw	r5,180(sp)
 8003acc:	18c00017 	ldw	r3,0(r3)
 8003ad0:	21000117 	ldw	r4,4(r4)
 8003ad4:	29400204 	addi	r5,r5,8
 8003ad8:	d8c03615 	stw	r3,216(sp)
 8003adc:	d9003815 	stw	r4,224(sp)
 8003ae0:	d9402d15 	stw	r5,180(sp)
 8003ae4:	d9003617 	ldw	r4,216(sp)
 8003ae8:	d9403817 	ldw	r5,224(sp)
 8003aec:	da003d15 	stw	r8,244(sp)
 8003af0:	04000044 	movi	r16,1
 8003af4:	800940c0 	call	800940c <__fpclassifyd>
 8003af8:	da003d17 	ldw	r8,244(sp)
 8003afc:	14041f1e 	bne	r2,r16,8004b7c <___vfprintf_internal_r+0x1684>
 8003b00:	d9003617 	ldw	r4,216(sp)
 8003b04:	d9403817 	ldw	r5,224(sp)
 8003b08:	000d883a 	mov	r6,zero
 8003b0c:	000f883a 	mov	r7,zero
 8003b10:	800d10c0 	call	800d10c <__ledf2>
 8003b14:	da003d17 	ldw	r8,244(sp)
 8003b18:	1005be16 	blt	r2,zero,8005214 <___vfprintf_internal_r+0x1d1c>
 8003b1c:	df002783 	ldbu	fp,158(sp)
 8003b20:	008011c4 	movi	r2,71
 8003b24:	1445330e 	bge	r2,r17,8004ff4 <___vfprintf_internal_r+0x1afc>
 8003b28:	04020074 	movhi	r16,2049
 8003b2c:	84174604 	addi	r16,r16,23832
 8003b30:	00c000c4 	movi	r3,3
 8003b34:	00bfdfc4 	movi	r2,-129
 8003b38:	d8c02a15 	stw	r3,168(sp)
 8003b3c:	90a4703a 	and	r18,r18,r2
 8003b40:	d8c02e15 	stw	r3,184(sp)
 8003b44:	d8002915 	stw	zero,164(sp)
 8003b48:	d8003215 	stw	zero,200(sp)
 8003b4c:	00003706 	br	8003c2c <___vfprintf_internal_r+0x734>
 8003b50:	94800214 	ori	r18,r18,8
 8003b54:	ac400007 	ldb	r17,0(r21)
 8003b58:	003ec806 	br	800367c <__alt_data_end+0xf800367c>
 8003b5c:	18c03fcc 	andi	r3,r3,255
 8003b60:	1806db1e 	bne	r3,zero,80056d0 <___vfprintf_internal_r+0x21d8>
 8003b64:	94800414 	ori	r18,r18,16
 8003b68:	9080080c 	andi	r2,r18,32
 8003b6c:	1002d826 	beq	r2,zero,80046d0 <___vfprintf_internal_r+0x11d8>
 8003b70:	d9402d17 	ldw	r5,180(sp)
 8003b74:	d8c02917 	ldw	r3,164(sp)
 8003b78:	d8002785 	stb	zero,158(sp)
 8003b7c:	28800204 	addi	r2,r5,8
 8003b80:	2cc00017 	ldw	r19,0(r5)
 8003b84:	2d800117 	ldw	r22,4(r5)
 8003b88:	18048f16 	blt	r3,zero,8004dc8 <___vfprintf_internal_r+0x18d0>
 8003b8c:	013fdfc4 	movi	r4,-129
 8003b90:	9d86b03a 	or	r3,r19,r22
 8003b94:	d8802d15 	stw	r2,180(sp)
 8003b98:	9124703a 	and	r18,r18,r4
 8003b9c:	1802d91e 	bne	r3,zero,8004704 <___vfprintf_internal_r+0x120c>
 8003ba0:	d8c02917 	ldw	r3,164(sp)
 8003ba4:	0039883a 	mov	fp,zero
 8003ba8:	1805c326 	beq	r3,zero,80052b8 <___vfprintf_internal_r+0x1dc0>
 8003bac:	0027883a 	mov	r19,zero
 8003bb0:	002d883a 	mov	r22,zero
 8003bb4:	dc001e04 	addi	r16,sp,120
 8003bb8:	9806d0fa 	srli	r3,r19,3
 8003bbc:	b008977a 	slli	r4,r22,29
 8003bc0:	b02cd0fa 	srli	r22,r22,3
 8003bc4:	9cc001cc 	andi	r19,r19,7
 8003bc8:	98800c04 	addi	r2,r19,48
 8003bcc:	843fffc4 	addi	r16,r16,-1
 8003bd0:	20e6b03a 	or	r19,r4,r3
 8003bd4:	80800005 	stb	r2,0(r16)
 8003bd8:	9d86b03a 	or	r3,r19,r22
 8003bdc:	183ff61e 	bne	r3,zero,8003bb8 <__alt_data_end+0xf8003bb8>
 8003be0:	90c0004c 	andi	r3,r18,1
 8003be4:	18013b26 	beq	r3,zero,80040d4 <___vfprintf_internal_r+0xbdc>
 8003be8:	10803fcc 	andi	r2,r2,255
 8003bec:	1080201c 	xori	r2,r2,128
 8003bf0:	10bfe004 	addi	r2,r2,-128
 8003bf4:	00c00c04 	movi	r3,48
 8003bf8:	10c13626 	beq	r2,r3,80040d4 <___vfprintf_internal_r+0xbdc>
 8003bfc:	80ffffc5 	stb	r3,-1(r16)
 8003c00:	d8c02817 	ldw	r3,160(sp)
 8003c04:	80bfffc4 	addi	r2,r16,-1
 8003c08:	1021883a 	mov	r16,r2
 8003c0c:	1887c83a 	sub	r3,r3,r2
 8003c10:	d8c02e15 	stw	r3,184(sp)
 8003c14:	d8802e17 	ldw	r2,184(sp)
 8003c18:	d9002917 	ldw	r4,164(sp)
 8003c1c:	1100010e 	bge	r2,r4,8003c24 <___vfprintf_internal_r+0x72c>
 8003c20:	2005883a 	mov	r2,r4
 8003c24:	d8802a15 	stw	r2,168(sp)
 8003c28:	d8003215 	stw	zero,200(sp)
 8003c2c:	e7003fcc 	andi	fp,fp,255
 8003c30:	e700201c 	xori	fp,fp,128
 8003c34:	e73fe004 	addi	fp,fp,-128
 8003c38:	e0000326 	beq	fp,zero,8003c48 <___vfprintf_internal_r+0x750>
 8003c3c:	d8c02a17 	ldw	r3,168(sp)
 8003c40:	18c00044 	addi	r3,r3,1
 8003c44:	d8c02a15 	stw	r3,168(sp)
 8003c48:	90c0008c 	andi	r3,r18,2
 8003c4c:	d8c02b15 	stw	r3,172(sp)
 8003c50:	18000326 	beq	r3,zero,8003c60 <___vfprintf_internal_r+0x768>
 8003c54:	d8c02a17 	ldw	r3,168(sp)
 8003c58:	18c00084 	addi	r3,r3,2
 8003c5c:	d8c02a15 	stw	r3,168(sp)
 8003c60:	90c0210c 	andi	r3,r18,132
 8003c64:	d8c03015 	stw	r3,192(sp)
 8003c68:	1801a31e 	bne	r3,zero,80042f8 <___vfprintf_internal_r+0xe00>
 8003c6c:	d9003117 	ldw	r4,196(sp)
 8003c70:	d8c02a17 	ldw	r3,168(sp)
 8003c74:	20e7c83a 	sub	r19,r4,r3
 8003c78:	04c19f0e 	bge	zero,r19,80042f8 <___vfprintf_internal_r+0xe00>
 8003c7c:	02400404 	movi	r9,16
 8003c80:	d8c02017 	ldw	r3,128(sp)
 8003c84:	d8801f17 	ldw	r2,124(sp)
 8003c88:	4cc50d0e 	bge	r9,r19,80050c0 <___vfprintf_internal_r+0x1bc8>
 8003c8c:	01420074 	movhi	r5,2049
 8003c90:	29575984 	addi	r5,r5,23910
 8003c94:	dc403b15 	stw	r17,236(sp)
 8003c98:	d9403515 	stw	r5,212(sp)
 8003c9c:	9823883a 	mov	r17,r19
 8003ca0:	482d883a 	mov	r22,r9
 8003ca4:	9027883a 	mov	r19,r18
 8003ca8:	070001c4 	movi	fp,7
 8003cac:	8025883a 	mov	r18,r16
 8003cb0:	dc002c17 	ldw	r16,176(sp)
 8003cb4:	00000306 	br	8003cc4 <___vfprintf_internal_r+0x7cc>
 8003cb8:	8c7ffc04 	addi	r17,r17,-16
 8003cbc:	42000204 	addi	r8,r8,8
 8003cc0:	b440130e 	bge	r22,r17,8003d10 <___vfprintf_internal_r+0x818>
 8003cc4:	01020074 	movhi	r4,2049
 8003cc8:	18c00404 	addi	r3,r3,16
 8003ccc:	10800044 	addi	r2,r2,1
 8003cd0:	21175984 	addi	r4,r4,23910
 8003cd4:	41000015 	stw	r4,0(r8)
 8003cd8:	45800115 	stw	r22,4(r8)
 8003cdc:	d8c02015 	stw	r3,128(sp)
 8003ce0:	d8801f15 	stw	r2,124(sp)
 8003ce4:	e0bff40e 	bge	fp,r2,8003cb8 <__alt_data_end+0xf8003cb8>
 8003ce8:	d9801e04 	addi	r6,sp,120
 8003cec:	b80b883a 	mov	r5,r23
 8003cf0:	8009883a 	mov	r4,r16
 8003cf4:	80096580 	call	8009658 <__sprint_r>
 8003cf8:	103f011e 	bne	r2,zero,8003900 <__alt_data_end+0xf8003900>
 8003cfc:	8c7ffc04 	addi	r17,r17,-16
 8003d00:	d8c02017 	ldw	r3,128(sp)
 8003d04:	d8801f17 	ldw	r2,124(sp)
 8003d08:	da000404 	addi	r8,sp,16
 8003d0c:	b47fed16 	blt	r22,r17,8003cc4 <__alt_data_end+0xf8003cc4>
 8003d10:	9021883a 	mov	r16,r18
 8003d14:	9825883a 	mov	r18,r19
 8003d18:	8827883a 	mov	r19,r17
 8003d1c:	dc403b17 	ldw	r17,236(sp)
 8003d20:	d9403517 	ldw	r5,212(sp)
 8003d24:	98c7883a 	add	r3,r19,r3
 8003d28:	10800044 	addi	r2,r2,1
 8003d2c:	41400015 	stw	r5,0(r8)
 8003d30:	44c00115 	stw	r19,4(r8)
 8003d34:	d8c02015 	stw	r3,128(sp)
 8003d38:	d8801f15 	stw	r2,124(sp)
 8003d3c:	010001c4 	movi	r4,7
 8003d40:	2082a316 	blt	r4,r2,80047d0 <___vfprintf_internal_r+0x12d8>
 8003d44:	df002787 	ldb	fp,158(sp)
 8003d48:	42000204 	addi	r8,r8,8
 8003d4c:	e0000c26 	beq	fp,zero,8003d80 <___vfprintf_internal_r+0x888>
 8003d50:	d8801f17 	ldw	r2,124(sp)
 8003d54:	d9002784 	addi	r4,sp,158
 8003d58:	18c00044 	addi	r3,r3,1
 8003d5c:	10800044 	addi	r2,r2,1
 8003d60:	41000015 	stw	r4,0(r8)
 8003d64:	01000044 	movi	r4,1
 8003d68:	41000115 	stw	r4,4(r8)
 8003d6c:	d8c02015 	stw	r3,128(sp)
 8003d70:	d8801f15 	stw	r2,124(sp)
 8003d74:	010001c4 	movi	r4,7
 8003d78:	20823c16 	blt	r4,r2,800466c <___vfprintf_internal_r+0x1174>
 8003d7c:	42000204 	addi	r8,r8,8
 8003d80:	d8802b17 	ldw	r2,172(sp)
 8003d84:	10000c26 	beq	r2,zero,8003db8 <___vfprintf_internal_r+0x8c0>
 8003d88:	d8801f17 	ldw	r2,124(sp)
 8003d8c:	d9002704 	addi	r4,sp,156
 8003d90:	18c00084 	addi	r3,r3,2
 8003d94:	10800044 	addi	r2,r2,1
 8003d98:	41000015 	stw	r4,0(r8)
 8003d9c:	01000084 	movi	r4,2
 8003da0:	41000115 	stw	r4,4(r8)
 8003da4:	d8c02015 	stw	r3,128(sp)
 8003da8:	d8801f15 	stw	r2,124(sp)
 8003dac:	010001c4 	movi	r4,7
 8003db0:	20823616 	blt	r4,r2,800468c <___vfprintf_internal_r+0x1194>
 8003db4:	42000204 	addi	r8,r8,8
 8003db8:	d9003017 	ldw	r4,192(sp)
 8003dbc:	00802004 	movi	r2,128
 8003dc0:	20819926 	beq	r4,r2,8004428 <___vfprintf_internal_r+0xf30>
 8003dc4:	d9402917 	ldw	r5,164(sp)
 8003dc8:	d8802e17 	ldw	r2,184(sp)
 8003dcc:	28adc83a 	sub	r22,r5,r2
 8003dd0:	0580310e 	bge	zero,r22,8003e98 <___vfprintf_internal_r+0x9a0>
 8003dd4:	07000404 	movi	fp,16
 8003dd8:	d8801f17 	ldw	r2,124(sp)
 8003ddc:	e584140e 	bge	fp,r22,8004e30 <___vfprintf_internal_r+0x1938>
 8003de0:	01420074 	movhi	r5,2049
 8003de4:	29575584 	addi	r5,r5,23894
 8003de8:	dc402915 	stw	r17,164(sp)
 8003dec:	d9402b15 	stw	r5,172(sp)
 8003df0:	b023883a 	mov	r17,r22
 8003df4:	04c001c4 	movi	r19,7
 8003df8:	a82d883a 	mov	r22,r21
 8003dfc:	902b883a 	mov	r21,r18
 8003e00:	8025883a 	mov	r18,r16
 8003e04:	dc002c17 	ldw	r16,176(sp)
 8003e08:	00000306 	br	8003e18 <___vfprintf_internal_r+0x920>
 8003e0c:	8c7ffc04 	addi	r17,r17,-16
 8003e10:	42000204 	addi	r8,r8,8
 8003e14:	e440110e 	bge	fp,r17,8003e5c <___vfprintf_internal_r+0x964>
 8003e18:	18c00404 	addi	r3,r3,16
 8003e1c:	10800044 	addi	r2,r2,1
 8003e20:	45000015 	stw	r20,0(r8)
 8003e24:	47000115 	stw	fp,4(r8)
 8003e28:	d8c02015 	stw	r3,128(sp)
 8003e2c:	d8801f15 	stw	r2,124(sp)
 8003e30:	98bff60e 	bge	r19,r2,8003e0c <__alt_data_end+0xf8003e0c>
 8003e34:	d9801e04 	addi	r6,sp,120
 8003e38:	b80b883a 	mov	r5,r23
 8003e3c:	8009883a 	mov	r4,r16
 8003e40:	80096580 	call	8009658 <__sprint_r>
 8003e44:	103eae1e 	bne	r2,zero,8003900 <__alt_data_end+0xf8003900>
 8003e48:	8c7ffc04 	addi	r17,r17,-16
 8003e4c:	d8c02017 	ldw	r3,128(sp)
 8003e50:	d8801f17 	ldw	r2,124(sp)
 8003e54:	da000404 	addi	r8,sp,16
 8003e58:	e47fef16 	blt	fp,r17,8003e18 <__alt_data_end+0xf8003e18>
 8003e5c:	9021883a 	mov	r16,r18
 8003e60:	a825883a 	mov	r18,r21
 8003e64:	b02b883a 	mov	r21,r22
 8003e68:	882d883a 	mov	r22,r17
 8003e6c:	dc402917 	ldw	r17,164(sp)
 8003e70:	d9002b17 	ldw	r4,172(sp)
 8003e74:	1d87883a 	add	r3,r3,r22
 8003e78:	10800044 	addi	r2,r2,1
 8003e7c:	41000015 	stw	r4,0(r8)
 8003e80:	45800115 	stw	r22,4(r8)
 8003e84:	d8c02015 	stw	r3,128(sp)
 8003e88:	d8801f15 	stw	r2,124(sp)
 8003e8c:	010001c4 	movi	r4,7
 8003e90:	2081ee16 	blt	r4,r2,800464c <___vfprintf_internal_r+0x1154>
 8003e94:	42000204 	addi	r8,r8,8
 8003e98:	9080400c 	andi	r2,r18,256
 8003e9c:	1001181e 	bne	r2,zero,8004300 <___vfprintf_internal_r+0xe08>
 8003ea0:	d9402e17 	ldw	r5,184(sp)
 8003ea4:	d8801f17 	ldw	r2,124(sp)
 8003ea8:	44000015 	stw	r16,0(r8)
 8003eac:	1947883a 	add	r3,r3,r5
 8003eb0:	10800044 	addi	r2,r2,1
 8003eb4:	41400115 	stw	r5,4(r8)
 8003eb8:	d8c02015 	stw	r3,128(sp)
 8003ebc:	d8801f15 	stw	r2,124(sp)
 8003ec0:	010001c4 	movi	r4,7
 8003ec4:	2081d316 	blt	r4,r2,8004614 <___vfprintf_internal_r+0x111c>
 8003ec8:	42000204 	addi	r8,r8,8
 8003ecc:	9480010c 	andi	r18,r18,4
 8003ed0:	90003226 	beq	r18,zero,8003f9c <___vfprintf_internal_r+0xaa4>
 8003ed4:	d9403117 	ldw	r5,196(sp)
 8003ed8:	d8802a17 	ldw	r2,168(sp)
 8003edc:	28a1c83a 	sub	r16,r5,r2
 8003ee0:	04002e0e 	bge	zero,r16,8003f9c <___vfprintf_internal_r+0xaa4>
 8003ee4:	04400404 	movi	r17,16
 8003ee8:	d8801f17 	ldw	r2,124(sp)
 8003eec:	8c04a20e 	bge	r17,r16,8005178 <___vfprintf_internal_r+0x1c80>
 8003ef0:	01420074 	movhi	r5,2049
 8003ef4:	29575984 	addi	r5,r5,23910
 8003ef8:	d9403515 	stw	r5,212(sp)
 8003efc:	048001c4 	movi	r18,7
 8003f00:	dcc02c17 	ldw	r19,176(sp)
 8003f04:	00000306 	br	8003f14 <___vfprintf_internal_r+0xa1c>
 8003f08:	843ffc04 	addi	r16,r16,-16
 8003f0c:	42000204 	addi	r8,r8,8
 8003f10:	8c00130e 	bge	r17,r16,8003f60 <___vfprintf_internal_r+0xa68>
 8003f14:	01020074 	movhi	r4,2049
 8003f18:	18c00404 	addi	r3,r3,16
 8003f1c:	10800044 	addi	r2,r2,1
 8003f20:	21175984 	addi	r4,r4,23910
 8003f24:	41000015 	stw	r4,0(r8)
 8003f28:	44400115 	stw	r17,4(r8)
 8003f2c:	d8c02015 	stw	r3,128(sp)
 8003f30:	d8801f15 	stw	r2,124(sp)
 8003f34:	90bff40e 	bge	r18,r2,8003f08 <__alt_data_end+0xf8003f08>
 8003f38:	d9801e04 	addi	r6,sp,120
 8003f3c:	b80b883a 	mov	r5,r23
 8003f40:	9809883a 	mov	r4,r19
 8003f44:	80096580 	call	8009658 <__sprint_r>
 8003f48:	103e6d1e 	bne	r2,zero,8003900 <__alt_data_end+0xf8003900>
 8003f4c:	843ffc04 	addi	r16,r16,-16
 8003f50:	d8c02017 	ldw	r3,128(sp)
 8003f54:	d8801f17 	ldw	r2,124(sp)
 8003f58:	da000404 	addi	r8,sp,16
 8003f5c:	8c3fed16 	blt	r17,r16,8003f14 <__alt_data_end+0xf8003f14>
 8003f60:	d9403517 	ldw	r5,212(sp)
 8003f64:	1c07883a 	add	r3,r3,r16
 8003f68:	10800044 	addi	r2,r2,1
 8003f6c:	41400015 	stw	r5,0(r8)
 8003f70:	44000115 	stw	r16,4(r8)
 8003f74:	d8c02015 	stw	r3,128(sp)
 8003f78:	d8801f15 	stw	r2,124(sp)
 8003f7c:	010001c4 	movi	r4,7
 8003f80:	2080060e 	bge	r4,r2,8003f9c <___vfprintf_internal_r+0xaa4>
 8003f84:	d9002c17 	ldw	r4,176(sp)
 8003f88:	d9801e04 	addi	r6,sp,120
 8003f8c:	b80b883a 	mov	r5,r23
 8003f90:	80096580 	call	8009658 <__sprint_r>
 8003f94:	103e5a1e 	bne	r2,zero,8003900 <__alt_data_end+0xf8003900>
 8003f98:	d8c02017 	ldw	r3,128(sp)
 8003f9c:	d8803117 	ldw	r2,196(sp)
 8003fa0:	d9002a17 	ldw	r4,168(sp)
 8003fa4:	1100010e 	bge	r2,r4,8003fac <___vfprintf_internal_r+0xab4>
 8003fa8:	2005883a 	mov	r2,r4
 8003fac:	d9402f17 	ldw	r5,188(sp)
 8003fb0:	288b883a 	add	r5,r5,r2
 8003fb4:	d9402f15 	stw	r5,188(sp)
 8003fb8:	18019e1e 	bne	r3,zero,8004634 <___vfprintf_internal_r+0x113c>
 8003fbc:	a8800007 	ldb	r2,0(r21)
 8003fc0:	d8001f15 	stw	zero,124(sp)
 8003fc4:	da000404 	addi	r8,sp,16
 8003fc8:	103d851e 	bne	r2,zero,80035e0 <__alt_data_end+0xf80035e0>
 8003fcc:	a821883a 	mov	r16,r21
 8003fd0:	003d9b06 	br	8003640 <__alt_data_end+0xf8003640>
 8003fd4:	18c03fcc 	andi	r3,r3,255
 8003fd8:	1805c11e 	bne	r3,zero,80056e0 <___vfprintf_internal_r+0x21e8>
 8003fdc:	94800414 	ori	r18,r18,16
 8003fe0:	9080080c 	andi	r2,r18,32
 8003fe4:	10020c26 	beq	r2,zero,8004818 <___vfprintf_internal_r+0x1320>
 8003fe8:	d8802d17 	ldw	r2,180(sp)
 8003fec:	d9002917 	ldw	r4,164(sp)
 8003ff0:	d8002785 	stb	zero,158(sp)
 8003ff4:	10c00204 	addi	r3,r2,8
 8003ff8:	14c00017 	ldw	r19,0(r2)
 8003ffc:	15800117 	ldw	r22,4(r2)
 8004000:	20040f16 	blt	r4,zero,8005040 <___vfprintf_internal_r+0x1b48>
 8004004:	013fdfc4 	movi	r4,-129
 8004008:	9d84b03a 	or	r2,r19,r22
 800400c:	d8c02d15 	stw	r3,180(sp)
 8004010:	9124703a 	and	r18,r18,r4
 8004014:	0039883a 	mov	fp,zero
 8004018:	103e891e 	bne	r2,zero,8003a40 <__alt_data_end+0xf8003a40>
 800401c:	d9002917 	ldw	r4,164(sp)
 8004020:	2002c11e 	bne	r4,zero,8004b28 <___vfprintf_internal_r+0x1630>
 8004024:	d8002915 	stw	zero,164(sp)
 8004028:	d8002e15 	stw	zero,184(sp)
 800402c:	dc001e04 	addi	r16,sp,120
 8004030:	003ef806 	br	8003c14 <__alt_data_end+0xf8003c14>
 8004034:	18c03fcc 	andi	r3,r3,255
 8004038:	18059d1e 	bne	r3,zero,80056b0 <___vfprintf_internal_r+0x21b8>
 800403c:	01420074 	movhi	r5,2049
 8004040:	29574904 	addi	r5,r5,23844
 8004044:	d9403915 	stw	r5,228(sp)
 8004048:	9080080c 	andi	r2,r18,32
 800404c:	10005226 	beq	r2,zero,8004198 <___vfprintf_internal_r+0xca0>
 8004050:	d8802d17 	ldw	r2,180(sp)
 8004054:	14c00017 	ldw	r19,0(r2)
 8004058:	15800117 	ldw	r22,4(r2)
 800405c:	10800204 	addi	r2,r2,8
 8004060:	d8802d15 	stw	r2,180(sp)
 8004064:	9080004c 	andi	r2,r18,1
 8004068:	10019026 	beq	r2,zero,80046ac <___vfprintf_internal_r+0x11b4>
 800406c:	9d84b03a 	or	r2,r19,r22
 8004070:	10036926 	beq	r2,zero,8004e18 <___vfprintf_internal_r+0x1920>
 8004074:	d8c02917 	ldw	r3,164(sp)
 8004078:	00800c04 	movi	r2,48
 800407c:	d8802705 	stb	r2,156(sp)
 8004080:	dc402745 	stb	r17,157(sp)
 8004084:	d8002785 	stb	zero,158(sp)
 8004088:	90800094 	ori	r2,r18,2
 800408c:	18045d16 	blt	r3,zero,8005204 <___vfprintf_internal_r+0x1d0c>
 8004090:	00bfdfc4 	movi	r2,-129
 8004094:	90a4703a 	and	r18,r18,r2
 8004098:	94800094 	ori	r18,r18,2
 800409c:	0039883a 	mov	fp,zero
 80040a0:	d9003917 	ldw	r4,228(sp)
 80040a4:	dc001e04 	addi	r16,sp,120
 80040a8:	988003cc 	andi	r2,r19,15
 80040ac:	b006973a 	slli	r3,r22,28
 80040b0:	2085883a 	add	r2,r4,r2
 80040b4:	9826d13a 	srli	r19,r19,4
 80040b8:	10800003 	ldbu	r2,0(r2)
 80040bc:	b02cd13a 	srli	r22,r22,4
 80040c0:	843fffc4 	addi	r16,r16,-1
 80040c4:	1ce6b03a 	or	r19,r3,r19
 80040c8:	80800005 	stb	r2,0(r16)
 80040cc:	9d84b03a 	or	r2,r19,r22
 80040d0:	103ff51e 	bne	r2,zero,80040a8 <__alt_data_end+0xf80040a8>
 80040d4:	d8c02817 	ldw	r3,160(sp)
 80040d8:	1c07c83a 	sub	r3,r3,r16
 80040dc:	d8c02e15 	stw	r3,184(sp)
 80040e0:	003ecc06 	br	8003c14 <__alt_data_end+0xf8003c14>
 80040e4:	18c03fcc 	andi	r3,r3,255
 80040e8:	183e9f26 	beq	r3,zero,8003b68 <__alt_data_end+0xf8003b68>
 80040ec:	d9c02785 	stb	r7,158(sp)
 80040f0:	003e9d06 	br	8003b68 <__alt_data_end+0xf8003b68>
 80040f4:	00c00044 	movi	r3,1
 80040f8:	01c00ac4 	movi	r7,43
 80040fc:	ac400007 	ldb	r17,0(r21)
 8004100:	003d5e06 	br	800367c <__alt_data_end+0xf800367c>
 8004104:	94800814 	ori	r18,r18,32
 8004108:	ac400007 	ldb	r17,0(r21)
 800410c:	003d5b06 	br	800367c <__alt_data_end+0xf800367c>
 8004110:	d8c02d17 	ldw	r3,180(sp)
 8004114:	d8002785 	stb	zero,158(sp)
 8004118:	1c000017 	ldw	r16,0(r3)
 800411c:	1cc00104 	addi	r19,r3,4
 8004120:	80041926 	beq	r16,zero,8005188 <___vfprintf_internal_r+0x1c90>
 8004124:	d9002917 	ldw	r4,164(sp)
 8004128:	2003d016 	blt	r4,zero,800506c <___vfprintf_internal_r+0x1b74>
 800412c:	200d883a 	mov	r6,r4
 8004130:	000b883a 	mov	r5,zero
 8004134:	8009883a 	mov	r4,r16
 8004138:	da003d15 	stw	r8,244(sp)
 800413c:	8007aa40 	call	8007aa4 <memchr>
 8004140:	da003d17 	ldw	r8,244(sp)
 8004144:	10045426 	beq	r2,zero,8005298 <___vfprintf_internal_r+0x1da0>
 8004148:	1405c83a 	sub	r2,r2,r16
 800414c:	d8802e15 	stw	r2,184(sp)
 8004150:	1003cc16 	blt	r2,zero,8005084 <___vfprintf_internal_r+0x1b8c>
 8004154:	df002783 	ldbu	fp,158(sp)
 8004158:	d8802a15 	stw	r2,168(sp)
 800415c:	dcc02d15 	stw	r19,180(sp)
 8004160:	d8002915 	stw	zero,164(sp)
 8004164:	d8003215 	stw	zero,200(sp)
 8004168:	003eb006 	br	8003c2c <__alt_data_end+0xf8003c2c>
 800416c:	18c03fcc 	andi	r3,r3,255
 8004170:	183f9b26 	beq	r3,zero,8003fe0 <__alt_data_end+0xf8003fe0>
 8004174:	d9c02785 	stb	r7,158(sp)
 8004178:	003f9906 	br	8003fe0 <__alt_data_end+0xf8003fe0>
 800417c:	18c03fcc 	andi	r3,r3,255
 8004180:	1805551e 	bne	r3,zero,80056d8 <___vfprintf_internal_r+0x21e0>
 8004184:	01420074 	movhi	r5,2049
 8004188:	29574e04 	addi	r5,r5,23864
 800418c:	d9403915 	stw	r5,228(sp)
 8004190:	9080080c 	andi	r2,r18,32
 8004194:	103fae1e 	bne	r2,zero,8004050 <__alt_data_end+0xf8004050>
 8004198:	9080040c 	andi	r2,r18,16
 800419c:	1002de26 	beq	r2,zero,8004d18 <___vfprintf_internal_r+0x1820>
 80041a0:	d8c02d17 	ldw	r3,180(sp)
 80041a4:	002d883a 	mov	r22,zero
 80041a8:	1cc00017 	ldw	r19,0(r3)
 80041ac:	18c00104 	addi	r3,r3,4
 80041b0:	d8c02d15 	stw	r3,180(sp)
 80041b4:	003fab06 	br	8004064 <__alt_data_end+0xf8004064>
 80041b8:	38803fcc 	andi	r2,r7,255
 80041bc:	1080201c 	xori	r2,r2,128
 80041c0:	10bfe004 	addi	r2,r2,-128
 80041c4:	1002d21e 	bne	r2,zero,8004d10 <___vfprintf_internal_r+0x1818>
 80041c8:	00c00044 	movi	r3,1
 80041cc:	01c00804 	movi	r7,32
 80041d0:	ac400007 	ldb	r17,0(r21)
 80041d4:	003d2906 	br	800367c <__alt_data_end+0xf800367c>
 80041d8:	94800054 	ori	r18,r18,1
 80041dc:	ac400007 	ldb	r17,0(r21)
 80041e0:	003d2606 	br	800367c <__alt_data_end+0xf800367c>
 80041e4:	18c03fcc 	andi	r3,r3,255
 80041e8:	183e0526 	beq	r3,zero,8003a00 <__alt_data_end+0xf8003a00>
 80041ec:	d9c02785 	stb	r7,158(sp)
 80041f0:	003e0306 	br	8003a00 <__alt_data_end+0xf8003a00>
 80041f4:	94801014 	ori	r18,r18,64
 80041f8:	ac400007 	ldb	r17,0(r21)
 80041fc:	003d1f06 	br	800367c <__alt_data_end+0xf800367c>
 8004200:	ac400007 	ldb	r17,0(r21)
 8004204:	8a438726 	beq	r17,r9,8005024 <___vfprintf_internal_r+0x1b2c>
 8004208:	94800414 	ori	r18,r18,16
 800420c:	003d1b06 	br	800367c <__alt_data_end+0xf800367c>
 8004210:	18c03fcc 	andi	r3,r3,255
 8004214:	1805341e 	bne	r3,zero,80056e8 <___vfprintf_internal_r+0x21f0>
 8004218:	9080080c 	andi	r2,r18,32
 800421c:	1002cd26 	beq	r2,zero,8004d54 <___vfprintf_internal_r+0x185c>
 8004220:	d9402d17 	ldw	r5,180(sp)
 8004224:	d9002f17 	ldw	r4,188(sp)
 8004228:	28800017 	ldw	r2,0(r5)
 800422c:	2007d7fa 	srai	r3,r4,31
 8004230:	29400104 	addi	r5,r5,4
 8004234:	d9402d15 	stw	r5,180(sp)
 8004238:	11000015 	stw	r4,0(r2)
 800423c:	10c00115 	stw	r3,4(r2)
 8004240:	003ce506 	br	80035d8 <__alt_data_end+0xf80035d8>
 8004244:	d8c02d17 	ldw	r3,180(sp)
 8004248:	d9002d17 	ldw	r4,180(sp)
 800424c:	d8002785 	stb	zero,158(sp)
 8004250:	18800017 	ldw	r2,0(r3)
 8004254:	21000104 	addi	r4,r4,4
 8004258:	00c00044 	movi	r3,1
 800425c:	d8c02a15 	stw	r3,168(sp)
 8004260:	d8801405 	stb	r2,80(sp)
 8004264:	d9002d15 	stw	r4,180(sp)
 8004268:	d8c02e15 	stw	r3,184(sp)
 800426c:	d8002915 	stw	zero,164(sp)
 8004270:	d8003215 	stw	zero,200(sp)
 8004274:	dc001404 	addi	r16,sp,80
 8004278:	0039883a 	mov	fp,zero
 800427c:	003e7206 	br	8003c48 <__alt_data_end+0xf8003c48>
 8004280:	01020074 	movhi	r4,2049
 8004284:	21174e04 	addi	r4,r4,23864
 8004288:	0039883a 	mov	fp,zero
 800428c:	d9003915 	stw	r4,228(sp)
 8004290:	04401e04 	movi	r17,120
 8004294:	003f8206 	br	80040a0 <__alt_data_end+0xf80040a0>
 8004298:	18c03fcc 	andi	r3,r3,255
 800429c:	1805061e 	bne	r3,zero,80056b8 <___vfprintf_internal_r+0x21c0>
 80042a0:	883d9126 	beq	r17,zero,80038e8 <__alt_data_end+0xf80038e8>
 80042a4:	00c00044 	movi	r3,1
 80042a8:	d8c02a15 	stw	r3,168(sp)
 80042ac:	dc401405 	stb	r17,80(sp)
 80042b0:	d8002785 	stb	zero,158(sp)
 80042b4:	003fec06 	br	8004268 <__alt_data_end+0xf8004268>
 80042b8:	01420074 	movhi	r5,2049
 80042bc:	29574e04 	addi	r5,r5,23864
 80042c0:	d9403915 	stw	r5,228(sp)
 80042c4:	d8c02d15 	stw	r3,180(sp)
 80042c8:	1025883a 	mov	r18,r2
 80042cc:	04401e04 	movi	r17,120
 80042d0:	9d84b03a 	or	r2,r19,r22
 80042d4:	1000fc1e 	bne	r2,zero,80046c8 <___vfprintf_internal_r+0x11d0>
 80042d8:	0039883a 	mov	fp,zero
 80042dc:	00800084 	movi	r2,2
 80042e0:	10803fcc 	andi	r2,r2,255
 80042e4:	00c00044 	movi	r3,1
 80042e8:	10c20f26 	beq	r2,r3,8004b28 <___vfprintf_internal_r+0x1630>
 80042ec:	00c00084 	movi	r3,2
 80042f0:	10fd6326 	beq	r2,r3,8003880 <__alt_data_end+0xf8003880>
 80042f4:	003e2d06 	br	8003bac <__alt_data_end+0xf8003bac>
 80042f8:	d8c02017 	ldw	r3,128(sp)
 80042fc:	003e9306 	br	8003d4c <__alt_data_end+0xf8003d4c>
 8004300:	00801944 	movi	r2,101
 8004304:	14407e0e 	bge	r2,r17,8004500 <___vfprintf_internal_r+0x1008>
 8004308:	d9003617 	ldw	r4,216(sp)
 800430c:	d9403817 	ldw	r5,224(sp)
 8004310:	000d883a 	mov	r6,zero
 8004314:	000f883a 	mov	r7,zero
 8004318:	d8c03c15 	stw	r3,240(sp)
 800431c:	da003d15 	stw	r8,244(sp)
 8004320:	800cfa80 	call	800cfa8 <__eqdf2>
 8004324:	d8c03c17 	ldw	r3,240(sp)
 8004328:	da003d17 	ldw	r8,244(sp)
 800432c:	1000f71e 	bne	r2,zero,800470c <___vfprintf_internal_r+0x1214>
 8004330:	d8801f17 	ldw	r2,124(sp)
 8004334:	01020074 	movhi	r4,2049
 8004338:	21175504 	addi	r4,r4,23892
 800433c:	18c00044 	addi	r3,r3,1
 8004340:	10800044 	addi	r2,r2,1
 8004344:	41000015 	stw	r4,0(r8)
 8004348:	01000044 	movi	r4,1
 800434c:	41000115 	stw	r4,4(r8)
 8004350:	d8c02015 	stw	r3,128(sp)
 8004354:	d8801f15 	stw	r2,124(sp)
 8004358:	010001c4 	movi	r4,7
 800435c:	2082b816 	blt	r4,r2,8004e40 <___vfprintf_internal_r+0x1948>
 8004360:	42000204 	addi	r8,r8,8
 8004364:	d8802617 	ldw	r2,152(sp)
 8004368:	d9403317 	ldw	r5,204(sp)
 800436c:	11400216 	blt	r2,r5,8004378 <___vfprintf_internal_r+0xe80>
 8004370:	9080004c 	andi	r2,r18,1
 8004374:	103ed526 	beq	r2,zero,8003ecc <__alt_data_end+0xf8003ecc>
 8004378:	d8803717 	ldw	r2,220(sp)
 800437c:	d9003417 	ldw	r4,208(sp)
 8004380:	d9403717 	ldw	r5,220(sp)
 8004384:	1887883a 	add	r3,r3,r2
 8004388:	d8801f17 	ldw	r2,124(sp)
 800438c:	41000015 	stw	r4,0(r8)
 8004390:	41400115 	stw	r5,4(r8)
 8004394:	10800044 	addi	r2,r2,1
 8004398:	d8c02015 	stw	r3,128(sp)
 800439c:	d8801f15 	stw	r2,124(sp)
 80043a0:	010001c4 	movi	r4,7
 80043a4:	20832916 	blt	r4,r2,800504c <___vfprintf_internal_r+0x1b54>
 80043a8:	42000204 	addi	r8,r8,8
 80043ac:	d8803317 	ldw	r2,204(sp)
 80043b0:	143fffc4 	addi	r16,r2,-1
 80043b4:	043ec50e 	bge	zero,r16,8003ecc <__alt_data_end+0xf8003ecc>
 80043b8:	04400404 	movi	r17,16
 80043bc:	d8801f17 	ldw	r2,124(sp)
 80043c0:	8c00880e 	bge	r17,r16,80045e4 <___vfprintf_internal_r+0x10ec>
 80043c4:	01420074 	movhi	r5,2049
 80043c8:	29575584 	addi	r5,r5,23894
 80043cc:	d9402b15 	stw	r5,172(sp)
 80043d0:	058001c4 	movi	r22,7
 80043d4:	dcc02c17 	ldw	r19,176(sp)
 80043d8:	00000306 	br	80043e8 <___vfprintf_internal_r+0xef0>
 80043dc:	42000204 	addi	r8,r8,8
 80043e0:	843ffc04 	addi	r16,r16,-16
 80043e4:	8c00820e 	bge	r17,r16,80045f0 <___vfprintf_internal_r+0x10f8>
 80043e8:	18c00404 	addi	r3,r3,16
 80043ec:	10800044 	addi	r2,r2,1
 80043f0:	45000015 	stw	r20,0(r8)
 80043f4:	44400115 	stw	r17,4(r8)
 80043f8:	d8c02015 	stw	r3,128(sp)
 80043fc:	d8801f15 	stw	r2,124(sp)
 8004400:	b0bff60e 	bge	r22,r2,80043dc <__alt_data_end+0xf80043dc>
 8004404:	d9801e04 	addi	r6,sp,120
 8004408:	b80b883a 	mov	r5,r23
 800440c:	9809883a 	mov	r4,r19
 8004410:	80096580 	call	8009658 <__sprint_r>
 8004414:	103d3a1e 	bne	r2,zero,8003900 <__alt_data_end+0xf8003900>
 8004418:	d8c02017 	ldw	r3,128(sp)
 800441c:	d8801f17 	ldw	r2,124(sp)
 8004420:	da000404 	addi	r8,sp,16
 8004424:	003fee06 	br	80043e0 <__alt_data_end+0xf80043e0>
 8004428:	d9403117 	ldw	r5,196(sp)
 800442c:	d8802a17 	ldw	r2,168(sp)
 8004430:	28adc83a 	sub	r22,r5,r2
 8004434:	05be630e 	bge	zero,r22,8003dc4 <__alt_data_end+0xf8003dc4>
 8004438:	07000404 	movi	fp,16
 800443c:	d8801f17 	ldw	r2,124(sp)
 8004440:	e5838f0e 	bge	fp,r22,8005280 <___vfprintf_internal_r+0x1d88>
 8004444:	01420074 	movhi	r5,2049
 8004448:	29575584 	addi	r5,r5,23894
 800444c:	dc403015 	stw	r17,192(sp)
 8004450:	d9402b15 	stw	r5,172(sp)
 8004454:	b023883a 	mov	r17,r22
 8004458:	04c001c4 	movi	r19,7
 800445c:	a82d883a 	mov	r22,r21
 8004460:	902b883a 	mov	r21,r18
 8004464:	8025883a 	mov	r18,r16
 8004468:	dc002c17 	ldw	r16,176(sp)
 800446c:	00000306 	br	800447c <___vfprintf_internal_r+0xf84>
 8004470:	8c7ffc04 	addi	r17,r17,-16
 8004474:	42000204 	addi	r8,r8,8
 8004478:	e440110e 	bge	fp,r17,80044c0 <___vfprintf_internal_r+0xfc8>
 800447c:	18c00404 	addi	r3,r3,16
 8004480:	10800044 	addi	r2,r2,1
 8004484:	45000015 	stw	r20,0(r8)
 8004488:	47000115 	stw	fp,4(r8)
 800448c:	d8c02015 	stw	r3,128(sp)
 8004490:	d8801f15 	stw	r2,124(sp)
 8004494:	98bff60e 	bge	r19,r2,8004470 <__alt_data_end+0xf8004470>
 8004498:	d9801e04 	addi	r6,sp,120
 800449c:	b80b883a 	mov	r5,r23
 80044a0:	8009883a 	mov	r4,r16
 80044a4:	80096580 	call	8009658 <__sprint_r>
 80044a8:	103d151e 	bne	r2,zero,8003900 <__alt_data_end+0xf8003900>
 80044ac:	8c7ffc04 	addi	r17,r17,-16
 80044b0:	d8c02017 	ldw	r3,128(sp)
 80044b4:	d8801f17 	ldw	r2,124(sp)
 80044b8:	da000404 	addi	r8,sp,16
 80044bc:	e47fef16 	blt	fp,r17,800447c <__alt_data_end+0xf800447c>
 80044c0:	9021883a 	mov	r16,r18
 80044c4:	a825883a 	mov	r18,r21
 80044c8:	b02b883a 	mov	r21,r22
 80044cc:	882d883a 	mov	r22,r17
 80044d0:	dc403017 	ldw	r17,192(sp)
 80044d4:	d9002b17 	ldw	r4,172(sp)
 80044d8:	1d87883a 	add	r3,r3,r22
 80044dc:	10800044 	addi	r2,r2,1
 80044e0:	41000015 	stw	r4,0(r8)
 80044e4:	45800115 	stw	r22,4(r8)
 80044e8:	d8c02015 	stw	r3,128(sp)
 80044ec:	d8801f15 	stw	r2,124(sp)
 80044f0:	010001c4 	movi	r4,7
 80044f4:	20818e16 	blt	r4,r2,8004b30 <___vfprintf_internal_r+0x1638>
 80044f8:	42000204 	addi	r8,r8,8
 80044fc:	003e3106 	br	8003dc4 <__alt_data_end+0xf8003dc4>
 8004500:	d9403317 	ldw	r5,204(sp)
 8004504:	00800044 	movi	r2,1
 8004508:	18c00044 	addi	r3,r3,1
 800450c:	1141530e 	bge	r2,r5,8004a5c <___vfprintf_internal_r+0x1564>
 8004510:	dc401f17 	ldw	r17,124(sp)
 8004514:	00800044 	movi	r2,1
 8004518:	40800115 	stw	r2,4(r8)
 800451c:	8c400044 	addi	r17,r17,1
 8004520:	44000015 	stw	r16,0(r8)
 8004524:	d8c02015 	stw	r3,128(sp)
 8004528:	dc401f15 	stw	r17,124(sp)
 800452c:	008001c4 	movi	r2,7
 8004530:	14416b16 	blt	r2,r17,8004ae0 <___vfprintf_internal_r+0x15e8>
 8004534:	42000204 	addi	r8,r8,8
 8004538:	d8803717 	ldw	r2,220(sp)
 800453c:	d9003417 	ldw	r4,208(sp)
 8004540:	8c400044 	addi	r17,r17,1
 8004544:	10c7883a 	add	r3,r2,r3
 8004548:	40800115 	stw	r2,4(r8)
 800454c:	41000015 	stw	r4,0(r8)
 8004550:	d8c02015 	stw	r3,128(sp)
 8004554:	dc401f15 	stw	r17,124(sp)
 8004558:	008001c4 	movi	r2,7
 800455c:	14416916 	blt	r2,r17,8004b04 <___vfprintf_internal_r+0x160c>
 8004560:	45800204 	addi	r22,r8,8
 8004564:	d9003617 	ldw	r4,216(sp)
 8004568:	d9403817 	ldw	r5,224(sp)
 800456c:	000d883a 	mov	r6,zero
 8004570:	000f883a 	mov	r7,zero
 8004574:	d8c03c15 	stw	r3,240(sp)
 8004578:	800cfa80 	call	800cfa8 <__eqdf2>
 800457c:	d8c03c17 	ldw	r3,240(sp)
 8004580:	1000bc26 	beq	r2,zero,8004874 <___vfprintf_internal_r+0x137c>
 8004584:	d9403317 	ldw	r5,204(sp)
 8004588:	84000044 	addi	r16,r16,1
 800458c:	8c400044 	addi	r17,r17,1
 8004590:	28bfffc4 	addi	r2,r5,-1
 8004594:	1887883a 	add	r3,r3,r2
 8004598:	b0800115 	stw	r2,4(r22)
 800459c:	b4000015 	stw	r16,0(r22)
 80045a0:	d8c02015 	stw	r3,128(sp)
 80045a4:	dc401f15 	stw	r17,124(sp)
 80045a8:	008001c4 	movi	r2,7
 80045ac:	14414316 	blt	r2,r17,8004abc <___vfprintf_internal_r+0x15c4>
 80045b0:	b5800204 	addi	r22,r22,8
 80045b4:	d9003a17 	ldw	r4,232(sp)
 80045b8:	df0022c4 	addi	fp,sp,139
 80045bc:	8c400044 	addi	r17,r17,1
 80045c0:	20c7883a 	add	r3,r4,r3
 80045c4:	b7000015 	stw	fp,0(r22)
 80045c8:	b1000115 	stw	r4,4(r22)
 80045cc:	d8c02015 	stw	r3,128(sp)
 80045d0:	dc401f15 	stw	r17,124(sp)
 80045d4:	008001c4 	movi	r2,7
 80045d8:	14400e16 	blt	r2,r17,8004614 <___vfprintf_internal_r+0x111c>
 80045dc:	b2000204 	addi	r8,r22,8
 80045e0:	003e3a06 	br	8003ecc <__alt_data_end+0xf8003ecc>
 80045e4:	01020074 	movhi	r4,2049
 80045e8:	21175584 	addi	r4,r4,23894
 80045ec:	d9002b15 	stw	r4,172(sp)
 80045f0:	d9002b17 	ldw	r4,172(sp)
 80045f4:	1c07883a 	add	r3,r3,r16
 80045f8:	44000115 	stw	r16,4(r8)
 80045fc:	41000015 	stw	r4,0(r8)
 8004600:	10800044 	addi	r2,r2,1
 8004604:	d8c02015 	stw	r3,128(sp)
 8004608:	d8801f15 	stw	r2,124(sp)
 800460c:	010001c4 	movi	r4,7
 8004610:	20be2d0e 	bge	r4,r2,8003ec8 <__alt_data_end+0xf8003ec8>
 8004614:	d9002c17 	ldw	r4,176(sp)
 8004618:	d9801e04 	addi	r6,sp,120
 800461c:	b80b883a 	mov	r5,r23
 8004620:	80096580 	call	8009658 <__sprint_r>
 8004624:	103cb61e 	bne	r2,zero,8003900 <__alt_data_end+0xf8003900>
 8004628:	d8c02017 	ldw	r3,128(sp)
 800462c:	da000404 	addi	r8,sp,16
 8004630:	003e2606 	br	8003ecc <__alt_data_end+0xf8003ecc>
 8004634:	d9002c17 	ldw	r4,176(sp)
 8004638:	d9801e04 	addi	r6,sp,120
 800463c:	b80b883a 	mov	r5,r23
 8004640:	80096580 	call	8009658 <__sprint_r>
 8004644:	103e5d26 	beq	r2,zero,8003fbc <__alt_data_end+0xf8003fbc>
 8004648:	003cad06 	br	8003900 <__alt_data_end+0xf8003900>
 800464c:	d9002c17 	ldw	r4,176(sp)
 8004650:	d9801e04 	addi	r6,sp,120
 8004654:	b80b883a 	mov	r5,r23
 8004658:	80096580 	call	8009658 <__sprint_r>
 800465c:	103ca81e 	bne	r2,zero,8003900 <__alt_data_end+0xf8003900>
 8004660:	d8c02017 	ldw	r3,128(sp)
 8004664:	da000404 	addi	r8,sp,16
 8004668:	003e0b06 	br	8003e98 <__alt_data_end+0xf8003e98>
 800466c:	d9002c17 	ldw	r4,176(sp)
 8004670:	d9801e04 	addi	r6,sp,120
 8004674:	b80b883a 	mov	r5,r23
 8004678:	80096580 	call	8009658 <__sprint_r>
 800467c:	103ca01e 	bne	r2,zero,8003900 <__alt_data_end+0xf8003900>
 8004680:	d8c02017 	ldw	r3,128(sp)
 8004684:	da000404 	addi	r8,sp,16
 8004688:	003dbd06 	br	8003d80 <__alt_data_end+0xf8003d80>
 800468c:	d9002c17 	ldw	r4,176(sp)
 8004690:	d9801e04 	addi	r6,sp,120
 8004694:	b80b883a 	mov	r5,r23
 8004698:	80096580 	call	8009658 <__sprint_r>
 800469c:	103c981e 	bne	r2,zero,8003900 <__alt_data_end+0xf8003900>
 80046a0:	d8c02017 	ldw	r3,128(sp)
 80046a4:	da000404 	addi	r8,sp,16
 80046a8:	003dc306 	br	8003db8 <__alt_data_end+0xf8003db8>
 80046ac:	d8802917 	ldw	r2,164(sp)
 80046b0:	d8002785 	stb	zero,158(sp)
 80046b4:	103f0616 	blt	r2,zero,80042d0 <__alt_data_end+0xf80042d0>
 80046b8:	00ffdfc4 	movi	r3,-129
 80046bc:	9d84b03a 	or	r2,r19,r22
 80046c0:	90e4703a 	and	r18,r18,r3
 80046c4:	103c6b26 	beq	r2,zero,8003874 <__alt_data_end+0xf8003874>
 80046c8:	0039883a 	mov	fp,zero
 80046cc:	003e7406 	br	80040a0 <__alt_data_end+0xf80040a0>
 80046d0:	9080040c 	andi	r2,r18,16
 80046d4:	1001b326 	beq	r2,zero,8004da4 <___vfprintf_internal_r+0x18ac>
 80046d8:	d9002d17 	ldw	r4,180(sp)
 80046dc:	d9402917 	ldw	r5,164(sp)
 80046e0:	d8002785 	stb	zero,158(sp)
 80046e4:	20800104 	addi	r2,r4,4
 80046e8:	24c00017 	ldw	r19,0(r4)
 80046ec:	002d883a 	mov	r22,zero
 80046f0:	2801b516 	blt	r5,zero,8004dc8 <___vfprintf_internal_r+0x18d0>
 80046f4:	00ffdfc4 	movi	r3,-129
 80046f8:	d8802d15 	stw	r2,180(sp)
 80046fc:	90e4703a 	and	r18,r18,r3
 8004700:	983d2726 	beq	r19,zero,8003ba0 <__alt_data_end+0xf8003ba0>
 8004704:	0039883a 	mov	fp,zero
 8004708:	003d2a06 	br	8003bb4 <__alt_data_end+0xf8003bb4>
 800470c:	dc402617 	ldw	r17,152(sp)
 8004710:	0441d30e 	bge	zero,r17,8004e60 <___vfprintf_internal_r+0x1968>
 8004714:	dc403217 	ldw	r17,200(sp)
 8004718:	d8803317 	ldw	r2,204(sp)
 800471c:	1440010e 	bge	r2,r17,8004724 <___vfprintf_internal_r+0x122c>
 8004720:	1023883a 	mov	r17,r2
 8004724:	04400a0e 	bge	zero,r17,8004750 <___vfprintf_internal_r+0x1258>
 8004728:	d8801f17 	ldw	r2,124(sp)
 800472c:	1c47883a 	add	r3,r3,r17
 8004730:	44000015 	stw	r16,0(r8)
 8004734:	10800044 	addi	r2,r2,1
 8004738:	44400115 	stw	r17,4(r8)
 800473c:	d8c02015 	stw	r3,128(sp)
 8004740:	d8801f15 	stw	r2,124(sp)
 8004744:	010001c4 	movi	r4,7
 8004748:	20826516 	blt	r4,r2,80050e0 <___vfprintf_internal_r+0x1be8>
 800474c:	42000204 	addi	r8,r8,8
 8004750:	88026116 	blt	r17,zero,80050d8 <___vfprintf_internal_r+0x1be0>
 8004754:	d9003217 	ldw	r4,200(sp)
 8004758:	2463c83a 	sub	r17,r4,r17
 800475c:	04407b0e 	bge	zero,r17,800494c <___vfprintf_internal_r+0x1454>
 8004760:	05800404 	movi	r22,16
 8004764:	d8801f17 	ldw	r2,124(sp)
 8004768:	b4419d0e 	bge	r22,r17,8004de0 <___vfprintf_internal_r+0x18e8>
 800476c:	01020074 	movhi	r4,2049
 8004770:	21175584 	addi	r4,r4,23894
 8004774:	d9002b15 	stw	r4,172(sp)
 8004778:	070001c4 	movi	fp,7
 800477c:	dcc02c17 	ldw	r19,176(sp)
 8004780:	00000306 	br	8004790 <___vfprintf_internal_r+0x1298>
 8004784:	42000204 	addi	r8,r8,8
 8004788:	8c7ffc04 	addi	r17,r17,-16
 800478c:	b441970e 	bge	r22,r17,8004dec <___vfprintf_internal_r+0x18f4>
 8004790:	18c00404 	addi	r3,r3,16
 8004794:	10800044 	addi	r2,r2,1
 8004798:	45000015 	stw	r20,0(r8)
 800479c:	45800115 	stw	r22,4(r8)
 80047a0:	d8c02015 	stw	r3,128(sp)
 80047a4:	d8801f15 	stw	r2,124(sp)
 80047a8:	e0bff60e 	bge	fp,r2,8004784 <__alt_data_end+0xf8004784>
 80047ac:	d9801e04 	addi	r6,sp,120
 80047b0:	b80b883a 	mov	r5,r23
 80047b4:	9809883a 	mov	r4,r19
 80047b8:	80096580 	call	8009658 <__sprint_r>
 80047bc:	103c501e 	bne	r2,zero,8003900 <__alt_data_end+0xf8003900>
 80047c0:	d8c02017 	ldw	r3,128(sp)
 80047c4:	d8801f17 	ldw	r2,124(sp)
 80047c8:	da000404 	addi	r8,sp,16
 80047cc:	003fee06 	br	8004788 <__alt_data_end+0xf8004788>
 80047d0:	d9002c17 	ldw	r4,176(sp)
 80047d4:	d9801e04 	addi	r6,sp,120
 80047d8:	b80b883a 	mov	r5,r23
 80047dc:	80096580 	call	8009658 <__sprint_r>
 80047e0:	103c471e 	bne	r2,zero,8003900 <__alt_data_end+0xf8003900>
 80047e4:	d8c02017 	ldw	r3,128(sp)
 80047e8:	df002787 	ldb	fp,158(sp)
 80047ec:	da000404 	addi	r8,sp,16
 80047f0:	003d5606 	br	8003d4c <__alt_data_end+0xf8003d4c>
 80047f4:	9080040c 	andi	r2,r18,16
 80047f8:	10016126 	beq	r2,zero,8004d80 <___vfprintf_internal_r+0x1888>
 80047fc:	d8802d17 	ldw	r2,180(sp)
 8004800:	14c00017 	ldw	r19,0(r2)
 8004804:	10800104 	addi	r2,r2,4
 8004808:	d8802d15 	stw	r2,180(sp)
 800480c:	982dd7fa 	srai	r22,r19,31
 8004810:	b005883a 	mov	r2,r22
 8004814:	003c8206 	br	8003a20 <__alt_data_end+0xf8003a20>
 8004818:	9080040c 	andi	r2,r18,16
 800481c:	10003526 	beq	r2,zero,80048f4 <___vfprintf_internal_r+0x13fc>
 8004820:	d9402d17 	ldw	r5,180(sp)
 8004824:	d8c02917 	ldw	r3,164(sp)
 8004828:	d8002785 	stb	zero,158(sp)
 800482c:	28800104 	addi	r2,r5,4
 8004830:	2cc00017 	ldw	r19,0(r5)
 8004834:	002d883a 	mov	r22,zero
 8004838:	18003716 	blt	r3,zero,8004918 <___vfprintf_internal_r+0x1420>
 800483c:	00ffdfc4 	movi	r3,-129
 8004840:	d8802d15 	stw	r2,180(sp)
 8004844:	90e4703a 	and	r18,r18,r3
 8004848:	0039883a 	mov	fp,zero
 800484c:	983df326 	beq	r19,zero,800401c <__alt_data_end+0xf800401c>
 8004850:	00800244 	movi	r2,9
 8004854:	14fc7b36 	bltu	r2,r19,8003a44 <__alt_data_end+0xf8003a44>
 8004858:	d8c02817 	ldw	r3,160(sp)
 800485c:	dc001dc4 	addi	r16,sp,119
 8004860:	9cc00c04 	addi	r19,r19,48
 8004864:	1c07c83a 	sub	r3,r3,r16
 8004868:	dcc01dc5 	stb	r19,119(sp)
 800486c:	d8c02e15 	stw	r3,184(sp)
 8004870:	003ce806 	br	8003c14 <__alt_data_end+0xf8003c14>
 8004874:	d8803317 	ldw	r2,204(sp)
 8004878:	143fffc4 	addi	r16,r2,-1
 800487c:	043f4d0e 	bge	zero,r16,80045b4 <__alt_data_end+0xf80045b4>
 8004880:	07000404 	movi	fp,16
 8004884:	e400810e 	bge	fp,r16,8004a8c <___vfprintf_internal_r+0x1594>
 8004888:	01420074 	movhi	r5,2049
 800488c:	29575584 	addi	r5,r5,23894
 8004890:	d9402b15 	stw	r5,172(sp)
 8004894:	01c001c4 	movi	r7,7
 8004898:	dcc02c17 	ldw	r19,176(sp)
 800489c:	00000306 	br	80048ac <___vfprintf_internal_r+0x13b4>
 80048a0:	b5800204 	addi	r22,r22,8
 80048a4:	843ffc04 	addi	r16,r16,-16
 80048a8:	e4007b0e 	bge	fp,r16,8004a98 <___vfprintf_internal_r+0x15a0>
 80048ac:	18c00404 	addi	r3,r3,16
 80048b0:	8c400044 	addi	r17,r17,1
 80048b4:	b5000015 	stw	r20,0(r22)
 80048b8:	b7000115 	stw	fp,4(r22)
 80048bc:	d8c02015 	stw	r3,128(sp)
 80048c0:	dc401f15 	stw	r17,124(sp)
 80048c4:	3c7ff60e 	bge	r7,r17,80048a0 <__alt_data_end+0xf80048a0>
 80048c8:	d9801e04 	addi	r6,sp,120
 80048cc:	b80b883a 	mov	r5,r23
 80048d0:	9809883a 	mov	r4,r19
 80048d4:	d9c03c15 	stw	r7,240(sp)
 80048d8:	80096580 	call	8009658 <__sprint_r>
 80048dc:	d9c03c17 	ldw	r7,240(sp)
 80048e0:	103c071e 	bne	r2,zero,8003900 <__alt_data_end+0xf8003900>
 80048e4:	d8c02017 	ldw	r3,128(sp)
 80048e8:	dc401f17 	ldw	r17,124(sp)
 80048ec:	dd800404 	addi	r22,sp,16
 80048f0:	003fec06 	br	80048a4 <__alt_data_end+0xf80048a4>
 80048f4:	9080100c 	andi	r2,r18,64
 80048f8:	d8002785 	stb	zero,158(sp)
 80048fc:	10010e26 	beq	r2,zero,8004d38 <___vfprintf_internal_r+0x1840>
 8004900:	d9002d17 	ldw	r4,180(sp)
 8004904:	d9402917 	ldw	r5,164(sp)
 8004908:	002d883a 	mov	r22,zero
 800490c:	20800104 	addi	r2,r4,4
 8004910:	24c0000b 	ldhu	r19,0(r4)
 8004914:	283fc90e 	bge	r5,zero,800483c <__alt_data_end+0xf800483c>
 8004918:	d8802d15 	stw	r2,180(sp)
 800491c:	0039883a 	mov	fp,zero
 8004920:	9d84b03a 	or	r2,r19,r22
 8004924:	103c461e 	bne	r2,zero,8003a40 <__alt_data_end+0xf8003a40>
 8004928:	00800044 	movi	r2,1
 800492c:	003e6c06 	br	80042e0 <__alt_data_end+0xf80042e0>
 8004930:	d9002c17 	ldw	r4,176(sp)
 8004934:	d9801e04 	addi	r6,sp,120
 8004938:	b80b883a 	mov	r5,r23
 800493c:	80096580 	call	8009658 <__sprint_r>
 8004940:	103bef1e 	bne	r2,zero,8003900 <__alt_data_end+0xf8003900>
 8004944:	d8c02017 	ldw	r3,128(sp)
 8004948:	da000404 	addi	r8,sp,16
 800494c:	d9003217 	ldw	r4,200(sp)
 8004950:	d8802617 	ldw	r2,152(sp)
 8004954:	d9403317 	ldw	r5,204(sp)
 8004958:	8123883a 	add	r17,r16,r4
 800495c:	11400216 	blt	r2,r5,8004968 <___vfprintf_internal_r+0x1470>
 8004960:	9100004c 	andi	r4,r18,1
 8004964:	20000d26 	beq	r4,zero,800499c <___vfprintf_internal_r+0x14a4>
 8004968:	d9003717 	ldw	r4,220(sp)
 800496c:	d9403417 	ldw	r5,208(sp)
 8004970:	1907883a 	add	r3,r3,r4
 8004974:	d9001f17 	ldw	r4,124(sp)
 8004978:	41400015 	stw	r5,0(r8)
 800497c:	d9403717 	ldw	r5,220(sp)
 8004980:	21000044 	addi	r4,r4,1
 8004984:	d8c02015 	stw	r3,128(sp)
 8004988:	41400115 	stw	r5,4(r8)
 800498c:	d9001f15 	stw	r4,124(sp)
 8004990:	014001c4 	movi	r5,7
 8004994:	2901e816 	blt	r5,r4,8005138 <___vfprintf_internal_r+0x1c40>
 8004998:	42000204 	addi	r8,r8,8
 800499c:	d9003317 	ldw	r4,204(sp)
 80049a0:	8121883a 	add	r16,r16,r4
 80049a4:	2085c83a 	sub	r2,r4,r2
 80049a8:	8461c83a 	sub	r16,r16,r17
 80049ac:	1400010e 	bge	r2,r16,80049b4 <___vfprintf_internal_r+0x14bc>
 80049b0:	1021883a 	mov	r16,r2
 80049b4:	04000a0e 	bge	zero,r16,80049e0 <___vfprintf_internal_r+0x14e8>
 80049b8:	d9001f17 	ldw	r4,124(sp)
 80049bc:	1c07883a 	add	r3,r3,r16
 80049c0:	44400015 	stw	r17,0(r8)
 80049c4:	21000044 	addi	r4,r4,1
 80049c8:	44000115 	stw	r16,4(r8)
 80049cc:	d8c02015 	stw	r3,128(sp)
 80049d0:	d9001f15 	stw	r4,124(sp)
 80049d4:	014001c4 	movi	r5,7
 80049d8:	2901fb16 	blt	r5,r4,80051c8 <___vfprintf_internal_r+0x1cd0>
 80049dc:	42000204 	addi	r8,r8,8
 80049e0:	8001f716 	blt	r16,zero,80051c0 <___vfprintf_internal_r+0x1cc8>
 80049e4:	1421c83a 	sub	r16,r2,r16
 80049e8:	043d380e 	bge	zero,r16,8003ecc <__alt_data_end+0xf8003ecc>
 80049ec:	04400404 	movi	r17,16
 80049f0:	d8801f17 	ldw	r2,124(sp)
 80049f4:	8c3efb0e 	bge	r17,r16,80045e4 <__alt_data_end+0xf80045e4>
 80049f8:	01420074 	movhi	r5,2049
 80049fc:	29575584 	addi	r5,r5,23894
 8004a00:	d9402b15 	stw	r5,172(sp)
 8004a04:	058001c4 	movi	r22,7
 8004a08:	dcc02c17 	ldw	r19,176(sp)
 8004a0c:	00000306 	br	8004a1c <___vfprintf_internal_r+0x1524>
 8004a10:	42000204 	addi	r8,r8,8
 8004a14:	843ffc04 	addi	r16,r16,-16
 8004a18:	8c3ef50e 	bge	r17,r16,80045f0 <__alt_data_end+0xf80045f0>
 8004a1c:	18c00404 	addi	r3,r3,16
 8004a20:	10800044 	addi	r2,r2,1
 8004a24:	45000015 	stw	r20,0(r8)
 8004a28:	44400115 	stw	r17,4(r8)
 8004a2c:	d8c02015 	stw	r3,128(sp)
 8004a30:	d8801f15 	stw	r2,124(sp)
 8004a34:	b0bff60e 	bge	r22,r2,8004a10 <__alt_data_end+0xf8004a10>
 8004a38:	d9801e04 	addi	r6,sp,120
 8004a3c:	b80b883a 	mov	r5,r23
 8004a40:	9809883a 	mov	r4,r19
 8004a44:	80096580 	call	8009658 <__sprint_r>
 8004a48:	103bad1e 	bne	r2,zero,8003900 <__alt_data_end+0xf8003900>
 8004a4c:	d8c02017 	ldw	r3,128(sp)
 8004a50:	d8801f17 	ldw	r2,124(sp)
 8004a54:	da000404 	addi	r8,sp,16
 8004a58:	003fee06 	br	8004a14 <__alt_data_end+0xf8004a14>
 8004a5c:	9088703a 	and	r4,r18,r2
 8004a60:	203eab1e 	bne	r4,zero,8004510 <__alt_data_end+0xf8004510>
 8004a64:	dc401f17 	ldw	r17,124(sp)
 8004a68:	40800115 	stw	r2,4(r8)
 8004a6c:	44000015 	stw	r16,0(r8)
 8004a70:	8c400044 	addi	r17,r17,1
 8004a74:	d8c02015 	stw	r3,128(sp)
 8004a78:	dc401f15 	stw	r17,124(sp)
 8004a7c:	008001c4 	movi	r2,7
 8004a80:	14400e16 	blt	r2,r17,8004abc <___vfprintf_internal_r+0x15c4>
 8004a84:	45800204 	addi	r22,r8,8
 8004a88:	003eca06 	br	80045b4 <__alt_data_end+0xf80045b4>
 8004a8c:	01020074 	movhi	r4,2049
 8004a90:	21175584 	addi	r4,r4,23894
 8004a94:	d9002b15 	stw	r4,172(sp)
 8004a98:	d8802b17 	ldw	r2,172(sp)
 8004a9c:	1c07883a 	add	r3,r3,r16
 8004aa0:	8c400044 	addi	r17,r17,1
 8004aa4:	b0800015 	stw	r2,0(r22)
 8004aa8:	b4000115 	stw	r16,4(r22)
 8004aac:	d8c02015 	stw	r3,128(sp)
 8004ab0:	dc401f15 	stw	r17,124(sp)
 8004ab4:	008001c4 	movi	r2,7
 8004ab8:	147ebd0e 	bge	r2,r17,80045b0 <__alt_data_end+0xf80045b0>
 8004abc:	d9002c17 	ldw	r4,176(sp)
 8004ac0:	d9801e04 	addi	r6,sp,120
 8004ac4:	b80b883a 	mov	r5,r23
 8004ac8:	80096580 	call	8009658 <__sprint_r>
 8004acc:	103b8c1e 	bne	r2,zero,8003900 <__alt_data_end+0xf8003900>
 8004ad0:	d8c02017 	ldw	r3,128(sp)
 8004ad4:	dc401f17 	ldw	r17,124(sp)
 8004ad8:	dd800404 	addi	r22,sp,16
 8004adc:	003eb506 	br	80045b4 <__alt_data_end+0xf80045b4>
 8004ae0:	d9002c17 	ldw	r4,176(sp)
 8004ae4:	d9801e04 	addi	r6,sp,120
 8004ae8:	b80b883a 	mov	r5,r23
 8004aec:	80096580 	call	8009658 <__sprint_r>
 8004af0:	103b831e 	bne	r2,zero,8003900 <__alt_data_end+0xf8003900>
 8004af4:	d8c02017 	ldw	r3,128(sp)
 8004af8:	dc401f17 	ldw	r17,124(sp)
 8004afc:	da000404 	addi	r8,sp,16
 8004b00:	003e8d06 	br	8004538 <__alt_data_end+0xf8004538>
 8004b04:	d9002c17 	ldw	r4,176(sp)
 8004b08:	d9801e04 	addi	r6,sp,120
 8004b0c:	b80b883a 	mov	r5,r23
 8004b10:	80096580 	call	8009658 <__sprint_r>
 8004b14:	103b7a1e 	bne	r2,zero,8003900 <__alt_data_end+0xf8003900>
 8004b18:	d8c02017 	ldw	r3,128(sp)
 8004b1c:	dc401f17 	ldw	r17,124(sp)
 8004b20:	dd800404 	addi	r22,sp,16
 8004b24:	003e8f06 	br	8004564 <__alt_data_end+0xf8004564>
 8004b28:	0027883a 	mov	r19,zero
 8004b2c:	003f4a06 	br	8004858 <__alt_data_end+0xf8004858>
 8004b30:	d9002c17 	ldw	r4,176(sp)
 8004b34:	d9801e04 	addi	r6,sp,120
 8004b38:	b80b883a 	mov	r5,r23
 8004b3c:	80096580 	call	8009658 <__sprint_r>
 8004b40:	103b6f1e 	bne	r2,zero,8003900 <__alt_data_end+0xf8003900>
 8004b44:	d8c02017 	ldw	r3,128(sp)
 8004b48:	da000404 	addi	r8,sp,16
 8004b4c:	003c9d06 	br	8003dc4 <__alt_data_end+0xf8003dc4>
 8004b50:	04e7c83a 	sub	r19,zero,r19
 8004b54:	9804c03a 	cmpne	r2,r19,zero
 8004b58:	05adc83a 	sub	r22,zero,r22
 8004b5c:	b0adc83a 	sub	r22,r22,r2
 8004b60:	d8802917 	ldw	r2,164(sp)
 8004b64:	07000b44 	movi	fp,45
 8004b68:	df002785 	stb	fp,158(sp)
 8004b6c:	10017b16 	blt	r2,zero,800515c <___vfprintf_internal_r+0x1c64>
 8004b70:	00bfdfc4 	movi	r2,-129
 8004b74:	90a4703a 	and	r18,r18,r2
 8004b78:	003bb106 	br	8003a40 <__alt_data_end+0xf8003a40>
 8004b7c:	d9003617 	ldw	r4,216(sp)
 8004b80:	d9403817 	ldw	r5,224(sp)
 8004b84:	da003d15 	stw	r8,244(sp)
 8004b88:	800940c0 	call	800940c <__fpclassifyd>
 8004b8c:	da003d17 	ldw	r8,244(sp)
 8004b90:	1000f026 	beq	r2,zero,8004f54 <___vfprintf_internal_r+0x1a5c>
 8004b94:	d9002917 	ldw	r4,164(sp)
 8004b98:	05bff7c4 	movi	r22,-33
 8004b9c:	00bfffc4 	movi	r2,-1
 8004ba0:	8dac703a 	and	r22,r17,r22
 8004ba4:	20820026 	beq	r4,r2,80053a8 <___vfprintf_internal_r+0x1eb0>
 8004ba8:	008011c4 	movi	r2,71
 8004bac:	b081f726 	beq	r22,r2,800538c <___vfprintf_internal_r+0x1e94>
 8004bb0:	d9003817 	ldw	r4,224(sp)
 8004bb4:	90c04014 	ori	r3,r18,256
 8004bb8:	d8c02b15 	stw	r3,172(sp)
 8004bbc:	20021516 	blt	r4,zero,8005414 <___vfprintf_internal_r+0x1f1c>
 8004bc0:	dcc03817 	ldw	r19,224(sp)
 8004bc4:	d8002a05 	stb	zero,168(sp)
 8004bc8:	00801984 	movi	r2,102
 8004bcc:	8881f926 	beq	r17,r2,80053b4 <___vfprintf_internal_r+0x1ebc>
 8004bd0:	00801184 	movi	r2,70
 8004bd4:	88821c26 	beq	r17,r2,8005448 <___vfprintf_internal_r+0x1f50>
 8004bd8:	00801144 	movi	r2,69
 8004bdc:	b081ef26 	beq	r22,r2,800539c <___vfprintf_internal_r+0x1ea4>
 8004be0:	d8c02917 	ldw	r3,164(sp)
 8004be4:	d8802104 	addi	r2,sp,132
 8004be8:	d8800315 	stw	r2,12(sp)
 8004bec:	d9403617 	ldw	r5,216(sp)
 8004bf0:	d8802504 	addi	r2,sp,148
 8004bf4:	d9002c17 	ldw	r4,176(sp)
 8004bf8:	d8800215 	stw	r2,8(sp)
 8004bfc:	d8802604 	addi	r2,sp,152
 8004c00:	d8c00015 	stw	r3,0(sp)
 8004c04:	d8800115 	stw	r2,4(sp)
 8004c08:	01c00084 	movi	r7,2
 8004c0c:	980d883a 	mov	r6,r19
 8004c10:	d8c03c15 	stw	r3,240(sp)
 8004c14:	da003d15 	stw	r8,244(sp)
 8004c18:	8005bd00 	call	8005bd0 <_dtoa_r>
 8004c1c:	1021883a 	mov	r16,r2
 8004c20:	008019c4 	movi	r2,103
 8004c24:	d8c03c17 	ldw	r3,240(sp)
 8004c28:	da003d17 	ldw	r8,244(sp)
 8004c2c:	88817126 	beq	r17,r2,80051f4 <___vfprintf_internal_r+0x1cfc>
 8004c30:	008011c4 	movi	r2,71
 8004c34:	88829226 	beq	r17,r2,8005680 <___vfprintf_internal_r+0x2188>
 8004c38:	80f9883a 	add	fp,r16,r3
 8004c3c:	d9003617 	ldw	r4,216(sp)
 8004c40:	000d883a 	mov	r6,zero
 8004c44:	000f883a 	mov	r7,zero
 8004c48:	980b883a 	mov	r5,r19
 8004c4c:	da003d15 	stw	r8,244(sp)
 8004c50:	800cfa80 	call	800cfa8 <__eqdf2>
 8004c54:	da003d17 	ldw	r8,244(sp)
 8004c58:	10018d26 	beq	r2,zero,8005290 <___vfprintf_internal_r+0x1d98>
 8004c5c:	d8802117 	ldw	r2,132(sp)
 8004c60:	1700062e 	bgeu	r2,fp,8004c7c <___vfprintf_internal_r+0x1784>
 8004c64:	01000c04 	movi	r4,48
 8004c68:	10c00044 	addi	r3,r2,1
 8004c6c:	d8c02115 	stw	r3,132(sp)
 8004c70:	11000005 	stb	r4,0(r2)
 8004c74:	d8802117 	ldw	r2,132(sp)
 8004c78:	173ffb36 	bltu	r2,fp,8004c68 <__alt_data_end+0xf8004c68>
 8004c7c:	1405c83a 	sub	r2,r2,r16
 8004c80:	d8803315 	stw	r2,204(sp)
 8004c84:	008011c4 	movi	r2,71
 8004c88:	b0817626 	beq	r22,r2,8005264 <___vfprintf_internal_r+0x1d6c>
 8004c8c:	00801944 	movi	r2,101
 8004c90:	1442810e 	bge	r2,r17,8005698 <___vfprintf_internal_r+0x21a0>
 8004c94:	d8c02617 	ldw	r3,152(sp)
 8004c98:	00801984 	movi	r2,102
 8004c9c:	d8c03215 	stw	r3,200(sp)
 8004ca0:	8881fe26 	beq	r17,r2,800549c <___vfprintf_internal_r+0x1fa4>
 8004ca4:	d8c03217 	ldw	r3,200(sp)
 8004ca8:	d9003317 	ldw	r4,204(sp)
 8004cac:	1901dd16 	blt	r3,r4,8005424 <___vfprintf_internal_r+0x1f2c>
 8004cb0:	9480004c 	andi	r18,r18,1
 8004cb4:	90022b1e 	bne	r18,zero,8005564 <___vfprintf_internal_r+0x206c>
 8004cb8:	1805883a 	mov	r2,r3
 8004cbc:	18028016 	blt	r3,zero,80056c0 <___vfprintf_internal_r+0x21c8>
 8004cc0:	d8c03217 	ldw	r3,200(sp)
 8004cc4:	044019c4 	movi	r17,103
 8004cc8:	d8c02e15 	stw	r3,184(sp)
 8004ccc:	df002a07 	ldb	fp,168(sp)
 8004cd0:	e001531e 	bne	fp,zero,8005220 <___vfprintf_internal_r+0x1d28>
 8004cd4:	df002783 	ldbu	fp,158(sp)
 8004cd8:	d8802a15 	stw	r2,168(sp)
 8004cdc:	dc802b17 	ldw	r18,172(sp)
 8004ce0:	d8002915 	stw	zero,164(sp)
 8004ce4:	003bd106 	br	8003c2c <__alt_data_end+0xf8003c2c>
 8004ce8:	d8802d17 	ldw	r2,180(sp)
 8004cec:	d8c02d17 	ldw	r3,180(sp)
 8004cf0:	d9002d17 	ldw	r4,180(sp)
 8004cf4:	10800017 	ldw	r2,0(r2)
 8004cf8:	18c00117 	ldw	r3,4(r3)
 8004cfc:	21000204 	addi	r4,r4,8
 8004d00:	d8803615 	stw	r2,216(sp)
 8004d04:	d8c03815 	stw	r3,224(sp)
 8004d08:	d9002d15 	stw	r4,180(sp)
 8004d0c:	003b7506 	br	8003ae4 <__alt_data_end+0xf8003ae4>
 8004d10:	ac400007 	ldb	r17,0(r21)
 8004d14:	003a5906 	br	800367c <__alt_data_end+0xf800367c>
 8004d18:	9080100c 	andi	r2,r18,64
 8004d1c:	1000a826 	beq	r2,zero,8004fc0 <___vfprintf_internal_r+0x1ac8>
 8004d20:	d9002d17 	ldw	r4,180(sp)
 8004d24:	002d883a 	mov	r22,zero
 8004d28:	24c0000b 	ldhu	r19,0(r4)
 8004d2c:	21000104 	addi	r4,r4,4
 8004d30:	d9002d15 	stw	r4,180(sp)
 8004d34:	003ccb06 	br	8004064 <__alt_data_end+0xf8004064>
 8004d38:	d8c02d17 	ldw	r3,180(sp)
 8004d3c:	d9002917 	ldw	r4,164(sp)
 8004d40:	002d883a 	mov	r22,zero
 8004d44:	18800104 	addi	r2,r3,4
 8004d48:	1cc00017 	ldw	r19,0(r3)
 8004d4c:	203ebb0e 	bge	r4,zero,800483c <__alt_data_end+0xf800483c>
 8004d50:	003ef106 	br	8004918 <__alt_data_end+0xf8004918>
 8004d54:	9080040c 	andi	r2,r18,16
 8004d58:	1000921e 	bne	r2,zero,8004fa4 <___vfprintf_internal_r+0x1aac>
 8004d5c:	9480100c 	andi	r18,r18,64
 8004d60:	90013926 	beq	r18,zero,8005248 <___vfprintf_internal_r+0x1d50>
 8004d64:	d9002d17 	ldw	r4,180(sp)
 8004d68:	d9402f17 	ldw	r5,188(sp)
 8004d6c:	20800017 	ldw	r2,0(r4)
 8004d70:	21000104 	addi	r4,r4,4
 8004d74:	d9002d15 	stw	r4,180(sp)
 8004d78:	1140000d 	sth	r5,0(r2)
 8004d7c:	003a1606 	br	80035d8 <__alt_data_end+0xf80035d8>
 8004d80:	9080100c 	andi	r2,r18,64
 8004d84:	10008026 	beq	r2,zero,8004f88 <___vfprintf_internal_r+0x1a90>
 8004d88:	d8c02d17 	ldw	r3,180(sp)
 8004d8c:	1cc0000f 	ldh	r19,0(r3)
 8004d90:	18c00104 	addi	r3,r3,4
 8004d94:	d8c02d15 	stw	r3,180(sp)
 8004d98:	982dd7fa 	srai	r22,r19,31
 8004d9c:	b005883a 	mov	r2,r22
 8004da0:	003b1f06 	br	8003a20 <__alt_data_end+0xf8003a20>
 8004da4:	9080100c 	andi	r2,r18,64
 8004da8:	d8002785 	stb	zero,158(sp)
 8004dac:	10008a1e 	bne	r2,zero,8004fd8 <___vfprintf_internal_r+0x1ae0>
 8004db0:	d9402d17 	ldw	r5,180(sp)
 8004db4:	d8c02917 	ldw	r3,164(sp)
 8004db8:	002d883a 	mov	r22,zero
 8004dbc:	28800104 	addi	r2,r5,4
 8004dc0:	2cc00017 	ldw	r19,0(r5)
 8004dc4:	183e4b0e 	bge	r3,zero,80046f4 <__alt_data_end+0xf80046f4>
 8004dc8:	9d86b03a 	or	r3,r19,r22
 8004dcc:	d8802d15 	stw	r2,180(sp)
 8004dd0:	183e4c1e 	bne	r3,zero,8004704 <__alt_data_end+0xf8004704>
 8004dd4:	0039883a 	mov	fp,zero
 8004dd8:	0005883a 	mov	r2,zero
 8004ddc:	003d4006 	br	80042e0 <__alt_data_end+0xf80042e0>
 8004de0:	01420074 	movhi	r5,2049
 8004de4:	29575584 	addi	r5,r5,23894
 8004de8:	d9402b15 	stw	r5,172(sp)
 8004dec:	d9402b17 	ldw	r5,172(sp)
 8004df0:	1c47883a 	add	r3,r3,r17
 8004df4:	10800044 	addi	r2,r2,1
 8004df8:	41400015 	stw	r5,0(r8)
 8004dfc:	44400115 	stw	r17,4(r8)
 8004e00:	d8c02015 	stw	r3,128(sp)
 8004e04:	d8801f15 	stw	r2,124(sp)
 8004e08:	010001c4 	movi	r4,7
 8004e0c:	20bec816 	blt	r4,r2,8004930 <__alt_data_end+0xf8004930>
 8004e10:	42000204 	addi	r8,r8,8
 8004e14:	003ecd06 	br	800494c <__alt_data_end+0xf800494c>
 8004e18:	d9002917 	ldw	r4,164(sp)
 8004e1c:	d8002785 	stb	zero,158(sp)
 8004e20:	203d2d16 	blt	r4,zero,80042d8 <__alt_data_end+0xf80042d8>
 8004e24:	00bfdfc4 	movi	r2,-129
 8004e28:	90a4703a 	and	r18,r18,r2
 8004e2c:	003a9106 	br	8003874 <__alt_data_end+0xf8003874>
 8004e30:	01020074 	movhi	r4,2049
 8004e34:	21175584 	addi	r4,r4,23894
 8004e38:	d9002b15 	stw	r4,172(sp)
 8004e3c:	003c0c06 	br	8003e70 <__alt_data_end+0xf8003e70>
 8004e40:	d9002c17 	ldw	r4,176(sp)
 8004e44:	d9801e04 	addi	r6,sp,120
 8004e48:	b80b883a 	mov	r5,r23
 8004e4c:	80096580 	call	8009658 <__sprint_r>
 8004e50:	103aab1e 	bne	r2,zero,8003900 <__alt_data_end+0xf8003900>
 8004e54:	d8c02017 	ldw	r3,128(sp)
 8004e58:	da000404 	addi	r8,sp,16
 8004e5c:	003d4106 	br	8004364 <__alt_data_end+0xf8004364>
 8004e60:	d8801f17 	ldw	r2,124(sp)
 8004e64:	01420074 	movhi	r5,2049
 8004e68:	01000044 	movi	r4,1
 8004e6c:	18c00044 	addi	r3,r3,1
 8004e70:	10800044 	addi	r2,r2,1
 8004e74:	29575504 	addi	r5,r5,23892
 8004e78:	41000115 	stw	r4,4(r8)
 8004e7c:	41400015 	stw	r5,0(r8)
 8004e80:	d8c02015 	stw	r3,128(sp)
 8004e84:	d8801f15 	stw	r2,124(sp)
 8004e88:	010001c4 	movi	r4,7
 8004e8c:	20805c16 	blt	r4,r2,8005000 <___vfprintf_internal_r+0x1b08>
 8004e90:	42000204 	addi	r8,r8,8
 8004e94:	8800041e 	bne	r17,zero,8004ea8 <___vfprintf_internal_r+0x19b0>
 8004e98:	d8803317 	ldw	r2,204(sp)
 8004e9c:	1000021e 	bne	r2,zero,8004ea8 <___vfprintf_internal_r+0x19b0>
 8004ea0:	9080004c 	andi	r2,r18,1
 8004ea4:	103c0926 	beq	r2,zero,8003ecc <__alt_data_end+0xf8003ecc>
 8004ea8:	d9003717 	ldw	r4,220(sp)
 8004eac:	d8801f17 	ldw	r2,124(sp)
 8004eb0:	d9403417 	ldw	r5,208(sp)
 8004eb4:	20c7883a 	add	r3,r4,r3
 8004eb8:	10800044 	addi	r2,r2,1
 8004ebc:	41000115 	stw	r4,4(r8)
 8004ec0:	41400015 	stw	r5,0(r8)
 8004ec4:	d8c02015 	stw	r3,128(sp)
 8004ec8:	d8801f15 	stw	r2,124(sp)
 8004ecc:	010001c4 	movi	r4,7
 8004ed0:	20812116 	blt	r4,r2,8005358 <___vfprintf_internal_r+0x1e60>
 8004ed4:	42000204 	addi	r8,r8,8
 8004ed8:	0463c83a 	sub	r17,zero,r17
 8004edc:	0440730e 	bge	zero,r17,80050ac <___vfprintf_internal_r+0x1bb4>
 8004ee0:	05800404 	movi	r22,16
 8004ee4:	b440860e 	bge	r22,r17,8005100 <___vfprintf_internal_r+0x1c08>
 8004ee8:	01420074 	movhi	r5,2049
 8004eec:	29575584 	addi	r5,r5,23894
 8004ef0:	d9402b15 	stw	r5,172(sp)
 8004ef4:	070001c4 	movi	fp,7
 8004ef8:	dcc02c17 	ldw	r19,176(sp)
 8004efc:	00000306 	br	8004f0c <___vfprintf_internal_r+0x1a14>
 8004f00:	42000204 	addi	r8,r8,8
 8004f04:	8c7ffc04 	addi	r17,r17,-16
 8004f08:	b440800e 	bge	r22,r17,800510c <___vfprintf_internal_r+0x1c14>
 8004f0c:	18c00404 	addi	r3,r3,16
 8004f10:	10800044 	addi	r2,r2,1
 8004f14:	45000015 	stw	r20,0(r8)
 8004f18:	45800115 	stw	r22,4(r8)
 8004f1c:	d8c02015 	stw	r3,128(sp)
 8004f20:	d8801f15 	stw	r2,124(sp)
 8004f24:	e0bff60e 	bge	fp,r2,8004f00 <__alt_data_end+0xf8004f00>
 8004f28:	d9801e04 	addi	r6,sp,120
 8004f2c:	b80b883a 	mov	r5,r23
 8004f30:	9809883a 	mov	r4,r19
 8004f34:	80096580 	call	8009658 <__sprint_r>
 8004f38:	103a711e 	bne	r2,zero,8003900 <__alt_data_end+0xf8003900>
 8004f3c:	d8c02017 	ldw	r3,128(sp)
 8004f40:	d8801f17 	ldw	r2,124(sp)
 8004f44:	da000404 	addi	r8,sp,16
 8004f48:	003fee06 	br	8004f04 <__alt_data_end+0xf8004f04>
 8004f4c:	00bfffc4 	movi	r2,-1
 8004f50:	003a6f06 	br	8003910 <__alt_data_end+0xf8003910>
 8004f54:	008011c4 	movi	r2,71
 8004f58:	1440b816 	blt	r2,r17,800523c <___vfprintf_internal_r+0x1d44>
 8004f5c:	04020074 	movhi	r16,2049
 8004f60:	84174704 	addi	r16,r16,23836
 8004f64:	00c000c4 	movi	r3,3
 8004f68:	00bfdfc4 	movi	r2,-129
 8004f6c:	d8c02a15 	stw	r3,168(sp)
 8004f70:	90a4703a 	and	r18,r18,r2
 8004f74:	df002783 	ldbu	fp,158(sp)
 8004f78:	d8c02e15 	stw	r3,184(sp)
 8004f7c:	d8002915 	stw	zero,164(sp)
 8004f80:	d8003215 	stw	zero,200(sp)
 8004f84:	003b2906 	br	8003c2c <__alt_data_end+0xf8003c2c>
 8004f88:	d9002d17 	ldw	r4,180(sp)
 8004f8c:	24c00017 	ldw	r19,0(r4)
 8004f90:	21000104 	addi	r4,r4,4
 8004f94:	d9002d15 	stw	r4,180(sp)
 8004f98:	982dd7fa 	srai	r22,r19,31
 8004f9c:	b005883a 	mov	r2,r22
 8004fa0:	003a9f06 	br	8003a20 <__alt_data_end+0xf8003a20>
 8004fa4:	d9402d17 	ldw	r5,180(sp)
 8004fa8:	d8c02f17 	ldw	r3,188(sp)
 8004fac:	28800017 	ldw	r2,0(r5)
 8004fb0:	29400104 	addi	r5,r5,4
 8004fb4:	d9402d15 	stw	r5,180(sp)
 8004fb8:	10c00015 	stw	r3,0(r2)
 8004fbc:	00398606 	br	80035d8 <__alt_data_end+0xf80035d8>
 8004fc0:	d9402d17 	ldw	r5,180(sp)
 8004fc4:	002d883a 	mov	r22,zero
 8004fc8:	2cc00017 	ldw	r19,0(r5)
 8004fcc:	29400104 	addi	r5,r5,4
 8004fd0:	d9402d15 	stw	r5,180(sp)
 8004fd4:	003c2306 	br	8004064 <__alt_data_end+0xf8004064>
 8004fd8:	d8c02d17 	ldw	r3,180(sp)
 8004fdc:	d9002917 	ldw	r4,164(sp)
 8004fe0:	002d883a 	mov	r22,zero
 8004fe4:	18800104 	addi	r2,r3,4
 8004fe8:	1cc0000b 	ldhu	r19,0(r3)
 8004fec:	203dc10e 	bge	r4,zero,80046f4 <__alt_data_end+0xf80046f4>
 8004ff0:	003f7506 	br	8004dc8 <__alt_data_end+0xf8004dc8>
 8004ff4:	04020074 	movhi	r16,2049
 8004ff8:	84174504 	addi	r16,r16,23828
 8004ffc:	003acc06 	br	8003b30 <__alt_data_end+0xf8003b30>
 8005000:	d9002c17 	ldw	r4,176(sp)
 8005004:	d9801e04 	addi	r6,sp,120
 8005008:	b80b883a 	mov	r5,r23
 800500c:	80096580 	call	8009658 <__sprint_r>
 8005010:	103a3b1e 	bne	r2,zero,8003900 <__alt_data_end+0xf8003900>
 8005014:	dc402617 	ldw	r17,152(sp)
 8005018:	d8c02017 	ldw	r3,128(sp)
 800501c:	da000404 	addi	r8,sp,16
 8005020:	003f9c06 	br	8004e94 <__alt_data_end+0xf8004e94>
 8005024:	ac400043 	ldbu	r17,1(r21)
 8005028:	94800814 	ori	r18,r18,32
 800502c:	ad400044 	addi	r21,r21,1
 8005030:	8c403fcc 	andi	r17,r17,255
 8005034:	8c40201c 	xori	r17,r17,128
