
rtos.elf:     file format elf32-littlenios2
rtos.elf
architecture: nios2:r1, flags 0x00000112:
EXEC_P, HAS_SYMS, D_PAGED
start address 0x08000244

Program Header:
    LOAD off    0x00001000 vaddr 0x08000000 paddr 0x08000000 align 2**12
         filesz 0x00000020 memsz 0x00000020 flags r-x
    LOAD off    0x00001020 vaddr 0x08000020 paddr 0x08000020 align 2**12
         filesz 0x00019374 memsz 0x00019374 flags r-x
    LOAD off    0x0001a394 vaddr 0x08019394 paddr 0x0801af34 align 2**12
         filesz 0x00001ba0 memsz 0x00001ba0 flags rw-
    LOAD off    0x0001cad4 vaddr 0x0801cad4 paddr 0x0801cad4 align 2**12
         filesz 0x00000000 memsz 0x000073f0 flags rw-

Sections:
Idx Name          Size      VMA       LMA       File off  Algn
  0 .entry        00000020  08000000  08000000  00001000  2**5
                  CONTENTS, ALLOC, LOAD, READONLY, CODE
  1 .exceptions   00000224  08000020  08000020  00001020  2**2
                  CONTENTS, ALLOC, LOAD, READONLY, CODE
  2 .text         00018c78  08000244  08000244  00001244  2**2
                  CONTENTS, ALLOC, LOAD, READONLY, CODE
  3 .rodata       000004d8  08018ebc  08018ebc  00019ebc  2**2
                  CONTENTS, ALLOC, LOAD, READONLY, DATA
  4 .rwdata       00001ba0  08019394  0801af34  0001a394  2**2
                  CONTENTS, ALLOC, LOAD, DATA, SMALL_DATA
  5 .bss          000073f0  0801cad4  0801cad4  0001cad4  2**2
                  ALLOC, SMALL_DATA
  6 .onchip_memory2_0 00000000  00200000  00200000  0001bf34  2**0
                  CONTENTS
  7 .sdram        00000000  08023ec4  08023ec4  0001bf34  2**0
                  CONTENTS
  8 .comment      00000023  00000000  00000000  0001bf34  2**0
                  CONTENTS, READONLY
  9 .debug_aranges 00001058  00000000  00000000  0001bf58  2**3
                  CONTENTS, READONLY, DEBUGGING
 10 .debug_info   0002ddd6  00000000  00000000  0001cfb0  2**0
                  CONTENTS, READONLY, DEBUGGING
 11 .debug_abbrev 0000aeb8  00000000  00000000  0004ad86  2**0
                  CONTENTS, READONLY, DEBUGGING
 12 .debug_line   0000df12  00000000  00000000  00055c3e  2**0
                  CONTENTS, READONLY, DEBUGGING
 13 .debug_frame  000034c0  00000000  00000000  00063b50  2**2
                  CONTENTS, READONLY, DEBUGGING
 14 .debug_str    00004bae  00000000  00000000  00067010  2**0
                  CONTENTS, READONLY, DEBUGGING
 15 .debug_loc    00017868  00000000  00000000  0006bbbe  2**0
                  CONTENTS, READONLY, DEBUGGING
 16 .debug_alt_sim_info 00000030  00000000  00000000  00083428  2**2
                  CONTENTS, READONLY, DEBUGGING
 17 .debug_ranges 000018c0  00000000  00000000  00083458  2**3
                  CONTENTS, READONLY, DEBUGGING
 18 .thread_model 00000006  00000000  00000000  00089b26  2**0
                  CONTENTS, READONLY
 19 .cpu          0000000c  00000000  00000000  00089b2c  2**0
                  CONTENTS, READONLY
 20 .qsys         00000001  00000000  00000000  00089b38  2**0
                  CONTENTS, READONLY
 21 .simulation_enabled 00000001  00000000  00000000  00089b39  2**0
                  CONTENTS, READONLY
 22 .sysid_hash   00000004  00000000  00000000  00089b3a  2**0
                  CONTENTS, READONLY
 23 .sysid_base   00000004  00000000  00000000  00089b3e  2**0
                  CONTENTS, READONLY
 24 .sysid_time   00000004  00000000  00000000  00089b42  2**0
                  CONTENTS, READONLY
 25 .stderr_dev   0000000b  00000000  00000000  00089b46  2**0
                  CONTENTS, READONLY
 26 .stdin_dev    0000000b  00000000  00000000  00089b51  2**0
                  CONTENTS, READONLY
 27 .stdout_dev   0000000b  00000000  00000000  00089b5c  2**0
                  CONTENTS, READONLY
 28 .sopc_system_name 0000000a  00000000  00000000  00089b67  2**0
                  CONTENTS, READONLY
 29 .quartus_project_dir 00000014  00000000  00000000  00089b71  2**0
                  CONTENTS, READONLY
 30 .jdi          000048e1  00000000  00000000  00089b85  2**0
                  CONTENTS, READONLY
 31 .sopcinfo     0009522d  00000000  00000000  0008e466  2**0
                  CONTENTS, READONLY
SYMBOL TABLE:
08000000 l    d  .entry	00000000 .entry
08000020 l    d  .exceptions	00000000 .exceptions
08000244 l    d  .text	00000000 .text
08018ebc l    d  .rodata	00000000 .rodata
08019394 l    d  .rwdata	00000000 .rwdata
0801cad4 l    d  .bss	00000000 .bss
00200000 l    d  .onchip_memory2_0	00000000 .onchip_memory2_0
08023ec4 l    d  .sdram	00000000 .sdram
00000000 l    d  .comment	00000000 .comment
00000000 l    d  .debug_aranges	00000000 .debug_aranges
00000000 l    d  .debug_info	00000000 .debug_info
00000000 l    d  .debug_abbrev	00000000 .debug_abbrev
00000000 l    d  .debug_line	00000000 .debug_line
00000000 l    d  .debug_frame	00000000 .debug_frame
00000000 l    d  .debug_str	00000000 .debug_str
00000000 l    d  .debug_loc	00000000 .debug_loc
00000000 l    d  .debug_alt_sim_info	00000000 .debug_alt_sim_info
00000000 l    d  .debug_ranges	00000000 .debug_ranges
00000000 l    df *ABS*	00000000 ../rtos_bsp//obj/HAL/src/crt0.o
0800028c l       .text	00000000 alt_after_alt_main
00000000 l    df *ABS*	00000000 alt_irq_handler.c
00000000 l    df *ABS*	00000000 alt_instruction_exception_entry.c
00000000 l    df *ABS*	00000000 hello_ucosii.c
080003c8 l     F .text	0000006c pio_init
08000434 l     F .text	000000ac handle_key_interrupts
080004e0 l     F .text	00000050 key1_isr
08000530 l     F .text	00000050 key2_isr
08000580 l     F .text	00000050 key3_isr
00000000 l    df *ABS*	00000000 printf.c
00000000 l    df *ABS*	00000000 puts.c
00000000 l    df *ABS*	00000000 strlen.c
00000000 l    df *ABS*	00000000 vfprintf.c
08018faa l     O .rodata	00000010 zeroes.4404
08002a94 l     F .text	000000bc __sbprintf
08018fba l     O .rodata	00000010 blanks.4403
00000000 l    df *ABS*	00000000 wsetup.c
00000000 l    df *ABS*	00000000 dtoa.c
08002ca4 l     F .text	00000200 quorem
00000000 l    df *ABS*	00000000 fflush.c
00000000 l    df *ABS*	00000000 findfp.c
080047d4 l     F .text	00000008 __fp_unlock
080047e8 l     F .text	0000019c __sinit.part.1
08004984 l     F .text	00000008 __fp_lock
00000000 l    df *ABS*	00000000 mallocr.c
00000000 l    df *ABS*	00000000 fvwrite.c
00000000 l    df *ABS*	00000000 fwalk.c
00000000 l    df *ABS*	00000000 impure.c
08019394 l     O .rwdata	00000424 impure_data
00000000 l    df *ABS*	00000000 locale.c
080197d8 l     O .rwdata	00000020 lc_ctype_charset
080197b8 l     O .rwdata	00000020 lc_message_charset
080197f8 l     O .rwdata	00000038 lconv
00000000 l    df *ABS*	00000000 makebuf.c
00000000 l    df *ABS*	00000000 mallocr.c
00000000 l    df *ABS*	00000000 memchr.c
00000000 l    df *ABS*	00000000 memcpy.c
00000000 l    df *ABS*	00000000 memmove.c
00000000 l    df *ABS*	00000000 memset.c
00000000 l    df *ABS*	00000000 mprec.c
08018fec l     O .rodata	0000000c p05.2768
00000000 l    df *ABS*	00000000 mallocr.c
00000000 l    df *ABS*	00000000 s_fpclassify.c
00000000 l    df *ABS*	00000000 sbrkr.c
00000000 l    df *ABS*	00000000 stdio.c
00000000 l    df *ABS*	00000000 strcmp.c
00000000 l    df *ABS*	00000000 vfprintf.c
08007d80 l     F .text	000000fc __sprint_r.part.0
08019120 l     O .rodata	00000010 blanks.4348
08019110 l     O .rodata	00000010 zeroes.4349
0800930c l     F .text	000000bc __sbprintf
00000000 l    df *ABS*	00000000 writer.c
00000000 l    df *ABS*	00000000 closer.c
00000000 l    df *ABS*	00000000 mallocr.c
00000000 l    df *ABS*	00000000 fclose.c
00000000 l    df *ABS*	00000000 fputwc.c
00000000 l    df *ABS*	00000000 fstatr.c
00000000 l    df *ABS*	00000000 int_errno.c
00000000 l    df *ABS*	00000000 isattyr.c
00000000 l    df *ABS*	00000000 lseekr.c
00000000 l    df *ABS*	00000000 readr.c
00000000 l    df *ABS*	00000000 wbuf.c
00000000 l    df *ABS*	00000000 wcrtomb.c
00000000 l    df *ABS*	00000000 wctomb_r.c
00000000 l    df *ABS*	00000000 libgcc2.c
00000000 l    df *ABS*	00000000 libgcc2.c
00000000 l    df *ABS*	00000000 lib2-divmod.c
00000000 l    df *ABS*	00000000 adddf3.c
00000000 l    df *ABS*	00000000 divdf3.c
00000000 l    df *ABS*	00000000 eqdf2.c
00000000 l    df *ABS*	00000000 gedf2.c
00000000 l    df *ABS*	00000000 ledf2.c
00000000 l    df *ABS*	00000000 muldf3.c
00000000 l    df *ABS*	00000000 subdf3.c
00000000 l    df *ABS*	00000000 fixdfsi.c
00000000 l    df *ABS*	00000000 floatsidf.c
00000000 l    df *ABS*	00000000 floatunsidf.c
00000000 l    df *ABS*	00000000 libgcc2.c
00000000 l    df *ABS*	00000000 libgcc2.c
00000000 l    df *ABS*	00000000 alt_close.c
0800cfc8 l     F .text	0000003c alt_get_errno
00000000 l    df *ABS*	00000000 alt_dev.c
0800d0d4 l     F .text	0000002c alt_dev_null_write
00000000 l    df *ABS*	00000000 alt_errno.c
00000000 l    df *ABS*	00000000 alt_fstat.c
0800d100 l     F .text	0000003c alt_get_errno
00000000 l    df *ABS*	00000000 alt_iic.c
00000000 l    df *ABS*	00000000 alt_iic_isr_register.c
00000000 l    df *ABS*	00000000 alt_irq_vars.c
00000000 l    df *ABS*	00000000 alt_isatty.c
0800d48c l     F .text	0000003c alt_get_errno
00000000 l    df *ABS*	00000000 alt_load.c
0800d56c l     F .text	00000068 alt_load_section
00000000 l    df *ABS*	00000000 alt_lseek.c
0800d658 l     F .text	0000003c alt_get_errno
00000000 l    df *ABS*	00000000 alt_main.c
00000000 l    df *ABS*	00000000 alt_read.c
0800d824 l     F .text	0000003c alt_get_errno
00000000 l    df *ABS*	00000000 alt_release_fd.c
00000000 l    df *ABS*	00000000 alt_sbrk.c
0801aeac l     O .rwdata	00000004 heap_end
00000000 l    df *ABS*	00000000 alt_write.c
0800da70 l     F .text	0000003c alt_get_errno
00000000 l    df *ABS*	00000000 alt_env_lock.c
0801aeb0 l     O .rwdata	00000004 lockid
0801cb0c l     O .bss	00000004 locks
00000000 l    df *ABS*	00000000 alt_malloc_lock.c
0801aeb4 l     O .rwdata	00000004 lockid
0801cb14 l     O .bss	00000004 locks
00000000 l    df *ABS*	00000000 os_core.c
0800f4a0 l     F .text	00000048 OS_InitMisc
0800f4e8 l     F .text	0000006c OS_InitRdyList
0800f654 l     F .text	000000e4 OS_InitTCBList
0800f3c0 l     F .text	000000e0 OS_InitEventList
0800f554 l     F .text	00000080 OS_InitTaskIdle
0800f5d4 l     F .text	00000080 OS_InitTaskStat
0800f8c4 l     F .text	00000074 OS_SchedNew
00000000 l    df *ABS*	00000000 os_dbg.c
00000000 l    df *ABS*	00000000 os_flag.c
080115d4 l     F .text	000000f4 OS_FlagTaskRdy
08011394 l     F .text	00000160 OS_FlagBlock
00000000 l    df *ABS*	00000000 os_mem.c
00000000 l    df *ABS*	00000000 os_mutex.c
08012e48 l     F .text	00000190 OSMutex_RdyAtPrio
00000000 l    df *ABS*	00000000 os_q.c
00000000 l    df *ABS*	00000000 os_sem.c
00000000 l    df *ABS*	00000000 os_task.c
00000000 l    df *ABS*	00000000 os_time.c
00000000 l    df *ABS*	00000000 alt_sys_init.c
08016790 l     F .text	00000034 alt_dev_reg
08019de0 l     O .rwdata	0000106c jtag_uart_0
0801ae4c l     O .rwdata	0000002c lcd
00000000 l    df *ABS*	00000000 altera_avalon_jtag_uart_fd.c
00000000 l    df *ABS*	00000000 altera_avalon_jtag_uart_init.c
08016b24 l     F .text	000002a4 altera_avalon_jtag_uart_irq
08016dc8 l     F .text	00000104 altera_avalon_jtag_uart_timeout
00000000 l    df *ABS*	00000000 altera_avalon_jtag_uart_ioctl.c
00000000 l    df *ABS*	00000000 altera_avalon_jtag_uart_read.c
00000000 l    df *ABS*	00000000 altera_avalon_jtag_uart_write.c
00000000 l    df *ABS*	00000000 altera_avalon_timer_sc.c
080175a4 l     F .text	00000078 alt_avalon_timer_sc_irq
00000000 l    df *ABS*	00000000 altera_up_avalon_character_lcd.c
00000000 l    df *ABS*	00000000 alt_alarm_start.c
00000000 l    df *ABS*	00000000 alt_dcache_flush_all.c
00000000 l    df *ABS*	00000000 alt_dev_llist_insert.c
08017d00 l     F .text	0000003c alt_get_errno
00000000 l    df *ABS*	00000000 alt_do_ctors.c
00000000 l    df *ABS*	00000000 alt_do_dtors.c
00000000 l    df *ABS*	00000000 alt_find_dev.c
00000000 l    df *ABS*	00000000 alt_icache_flush_all.c
00000000 l    df *ABS*	00000000 alt_io_redirect.c
08018000 l     F .text	000000c4 alt_open_fd
00000000 l    df *ABS*	00000000 alt_open.c
08018140 l     F .text	0000003c alt_get_errno
0801817c l     F .text	000000c4 alt_file_locked
00000000 l    df *ABS*	00000000 alt_tick.c
00000000 l    df *ABS*	00000000 altera_nios2_gen2_irq.c
00000000 l    df *ABS*	00000000 os_cpu_a.o
00000040 l       *ABS*	00000000 OSCtxSw_SWITCH_PC
00000000 l    df *ABS*	00000000 os_cpu_c.c
00000014 l       *ABS*	00000000 OSTCBNext_OFFSET
00000032 l       *ABS*	00000000 OSTCBPrio_OFFSET
00000000 l       *ABS*	00000000 OSTCBStkPtr_OFFSET
00000000 l    df *ABS*	00000000 alt_find_file.c
00000000 l    df *ABS*	00000000 alt_get_fd.c
00000000 l    df *ABS*	00000000 alt_icache_flush.c
00000000 l    df *ABS*	00000000 atexit.c
00000000 l    df *ABS*	00000000 exit.c
00000000 l    df *ABS*	00000000 memcmp.c
00000000 l    df *ABS*	00000000 __atexit.c
00000000 l    df *ABS*	00000000 __call_atexit.c
00000000 l    df *ABS*	00000000 alt_exit.c
0801cb6c g     O .bss	00000004 alt_instruction_exception_handler
080073c4 g     F .text	00000074 _mprec_log10
0801af02 g     O .rwdata	00000002 OSTaskNameSize
080074b0 g     F .text	0000008c __any_on
080098a8 g     F .text	00000054 _isatty_r
08018ff8 g     O .rodata	00000028 __mprec_tinytens
0800d768 g     F .text	000000bc alt_main
08000714 g     F .text	000000c0 _puts_r
08020ba0 g     O .bss	00000100 alt_irq
080098fc g     F .text	00000060 _lseek_r
08011df4 g     F .text	000000cc OS_MemInit
0801af34 g       *ABS*	00000000 __flash_rwdata_start
08016730 g     F .text	00000060 OSTimeSet
0801770c g     F .text	00000040 alt_up_character_lcd_send_cmd
0800baf4 g     F .text	00000088 .hidden __eqdf2
0800e114 g     F .text	00000610 OSEventPendMulti
08023ec4 g       *ABS*	00000000 __alt_heap_start
08018788 g     F .text	00000024 OSTaskCreateHook
0801cba0 g     O .bss	00002000 task1_stk
080006d8 g     F .text	0000003c printf
0801aeda g     O .rwdata	00000002 OSMboxEn
0800e77c g     F .text	0000004c OSIntEnter
08009b14 g     F .text	0000009c _wcrtomb_r
08007c40 g     F .text	0000005c __sseek
08004b24 g     F .text	00000010 __sinit
080099bc g     F .text	00000140 __swbuf_r
0801aeea g     O .rwdata	00000002 OSQEn
080055ec g     F .text	0000007c _setlocale_r
0800498c g     F .text	00000068 __sfmoreglue
0800dde8 g     F .text	000000cc __malloc_unlock
080187f0 g     F .text	00000020 OSTaskStatHook
0801cb1c g     O .bss	00000001 OSLockNesting
0801af28 g     O .rwdata	00000002 OSDataSize
0801cb1d g     O .bss	00000001 OSRunning
080062bc g     F .text	0000015c memmove
08018830 g     F .text	00000020 OSInitHookBegin
0801af20 g     O .rwdata	00000002 OSTmrSize
08004b0c g     F .text	00000018 _cleanup
08006540 g     F .text	000000a8 _Balloc
0801cb20 g     O .bss	00000004 OSIdleCtr
0800bb7c g     F .text	000000dc .hidden __gtdf2
08018538 g     F .text	00000024 altera_nios2_gen2_irq_init
08018608 g       .text	00000000 OSStartTsk
08017698 g     F .text	00000074 get_DDRAM_addr
0800fbf4 g     F .text	000002d4 OS_TCBInit
08000000 g     F .entry	0000001c __reset
0801cad4 g     O .bss	00000004 edge_capture
0801af26 g     O .rwdata	00000002 OSTmrWheelTblSize
08000020 g       *ABS*	00000000 __flash_exceptions_start
0801aec6 g     O .rwdata	00000002 OSEventSize
0801cb24 g     O .bss	00000001 OSPrioHighRdy
0800984c g     F .text	0000005c _fstat_r
080187ac g     F .text	00000024 OSTaskDelHook
0801caf4 g     O .bss	00000004 errno
08007bbc g     F .text	00000008 __seofread
080185e8 g       .text	00000000 OSStartHighRdy
080151d8 g     F .text	000001e4 OSTaskCreateExt
08010edc g     F .text	00000060 OSFlagPendGetFlagsRdy
0801af06 g     O .rwdata	00000002 OSTaskStatStkSize
08010058 g     F .text	00000308 OSFlagAccept
08013544 g     F .text	000000b8 OSQFlush
08012fd8 g     F .text	00000140 OSQAccept
0801cb04 g     O .bss	00000004 alt_argv
08022e78 g       *ABS*	00000000 _gp
0801502c g     F .text	000001ac OSTaskCreate
08014b3c g     F .text	000004f0 OSTaskChangePrio
0801cb18 g     O .bss	00000004 alt_heapsem
0800fec8 g     F .text	00000190 OSDebugInit
080153bc g     F .text	00000344 OSTaskDel
08011ec0 g     F .text	000001a4 OSMutexAccept
08019c60 g     O .rwdata	00000180 alt_fd_list
08020ca0 g     O .bss	00000370 OSFlagTbl
0800f1a0 g     F .text	000000b8 OS_EventTaskRemove
08017ea0 g     F .text	00000090 alt_find_dev
08006174 g     F .text	00000148 memcpy
0801aef0 g     O .rwdata	00000002 OSRdyTblSize
080178b4 g     F .text	00000050 alt_up_character_lcd_write_fd
080047dc g     F .text	0000000c _cleanup_r
0800cde0 g     F .text	000000dc .hidden __floatsidf
080180c4 g     F .text	0000007c alt_io_redirect
0800bc58 g     F .text	000000f4 .hidden __ltdf2
08018ebc g       *ABS*	00000000 __DTOR_END__
080007d4 g     F .text	00000014 puts
08017f64 g     F .text	0000009c alt_exception_cause_generated_bad_addr
0800deb4 g     F .text	00000120 OSEventNameGet
0801aed4 g     O .rwdata	00000002 OSFlagMax
08007aa0 g     F .text	00000074 __fpclassifyd
08012528 g     F .text	0000059c OSMutexPend
08007320 g     F .text	000000a4 __ratio
0800e7c8 g     F .text	000000f8 OSIntExit
080092f0 g     F .text	0000001c __vfiprintf_internal
0801af0e g     O .rwdata	00000002 OSTCBSize
0801cb25 g     O .bss	00000001 OSPrioCur
08017024 g     F .text	000002bc altera_avalon_jtag_uart_read
080006a8 g     F .text	00000030 _printf_r
00200000 g       *ABS*	00000000 __alt_mem_onchip_memory2_0
0800a8a4 g     F .text	00000064 .hidden __udivsi3
0800d4c8 g     F .text	000000a4 isatty
0801aef4 g     O .rwdata	00000002 OSStkWidth
08019048 g     O .rodata	000000c8 __mprec_tens
0801aee8 g     O .rwdata	00000002 OSPtrSize
08005668 g     F .text	0000000c __locale_charset
0801aec8 g     O .rwdata	00000002 OSEventTblSize
0801855c g       .text	00000000 OSCtxSw
08018a98 g     F .text	00000090 alt_icache_flush
0801caf0 g     O .bss	00000004 __malloc_top_pad
0801cb28 g     O .bss	00000004 OSTCBList
0801caf8 g     O .bss	00000004 alt_fd_list_lock
0801ae80 g     O .rwdata	00000004 __mb_cur_max
08005698 g     F .text	0000000c _localeconv_r
0800694c g     F .text	0000003c __i2b
08004fa8 g     F .text	000004bc __sfvwrite_r
08021010 g     O .bss	00000c30 OSMemTbl
0801cb2c g     O .bss	00000001 OSTickStepState
08007b14 g     F .text	00000054 _sbrk_r
0801aeec g     O .rwdata	00000002 OSQMax
0801222c g     F .text	000002fc OSMutexDel
08021c40 g     O .bss	00000800 OSTaskStatStk
08011a30 g     F .text	000000f0 OSMemNameGet
0801aecc g     O .rwdata	00000002 OSFlagEn
0800995c g     F .text	00000060 _read_r
0801af12 g     O .rwdata	00000002 OSTimeTickHookEn
080139f4 g     F .text	00000168 OSQPost
080116c8 g     F .text	000000a4 OS_FlagUnlink
0801aea0 g     O .rwdata	00000004 alt_max_fd
0800f78c g     F .text	00000068 OS_MemCopy
0800f7f4 g     F .text	000000d0 OS_Sched
08009540 g     F .text	000000f0 _fclose_r
08011940 g     F .text	000000f0 OSMemGet
080159e8 g     F .text	000001b4 OSTaskNameSet
080047a4 g     F .text	00000030 fflush
0801caec g     O .bss	00000004 __malloc_max_sbrked_mem
0801cb30 g     O .bss	00000004 OSCtxSwCtr
08018810 g     F .text	00000020 OSTimeTickHook
0801aed6 g     O .rwdata	00000002 OSFlagNameSize
0800f258 g     F .text	00000100 OS_EventTaskRemoveMulti
0800a960 g     F .text	000008ac .hidden __adddf3
0800f050 g     F .text	00000150 OS_EventTaskWaitMulti
080070c8 g     F .text	0000010c __b2d
0801aeee g     O .rwdata	00000002 OSQSize
0800a274 g     F .text	00000538 .hidden __umoddi3
0800d694 g     F .text	000000d4 lseek
080144a4 g     F .text	0000020c OSSemPend
0801ae78 g     O .rwdata	00000004 _global_impure_ptr
0800753c g     F .text	00000564 _realloc_r
0801aed8 g     O .rwdata	00000002 OSLowestPrio
08023ec4 g       *ABS*	00000000 __bss_end
0800d39c g     F .text	000000f0 alt_iic_isr_register
08018890 g     F .text	00000024 OSTCBInitHook
0801af1e g     O .rwdata	00000002 OSTmrCfgTicksPerSec
08018430 g     F .text	00000108 alt_tick
08009cfc g     F .text	00000578 .hidden __udivdi3
080097a8 g     F .text	00000024 _fputwc_r
0801aec0 g     O .rwdata	00000002 OSEventEn
08019020 g     O .rodata	00000028 __mprec_bigtens
08006730 g     F .text	00000104 __s2b
0801af1a g     O .rwdata	00000002 OSTmrCfgNameSize
0800cebc g     F .text	000000a8 .hidden __floatunsidf
08006e08 g     F .text	00000060 __mcmp
08004b44 g     F .text	00000018 __fp_lock_all
0800d350 g     F .text	0000004c alt_ic_irq_enabled
080114f4 g     F .text	000000e0 OS_FlagInit
08018394 g     F .text	0000009c alt_alarm_stop
0801aefc g     O .rwdata	00000002 OSTaskIdleStkSize
0801cafc g     O .bss	00000004 alt_irq_active
080140dc g     F .text	000000b0 OSSemAccept
08011c34 g     F .text	000000d8 OSMemPut
0801176c g     F .text	000001d4 OSMemCreate
0801cb34 g     O .bss	00000004 OSIdleCtrMax
080000fc g     F .exceptions	000000d4 alt_irq_handler
08019c38 g     O .rwdata	00000028 alt_dev_null
0801af10 g     O .rwdata	00000002 OSTicksPerSec
08017b54 g     F .text	00000038 alt_up_character_lcd_cursor_blink_on
0801855c g       .text	00000000 OSIntCtxSw
08017cb8 g     F .text	00000048 alt_dcache_flush_all
08006834 g     F .text	00000068 __hi0bits
0800cd60 g     F .text	00000080 .hidden __fixdfsi
0801cb38 g     O .bss	00000004 OSTCBFreeList
0801af34 g       *ABS*	00000000 __ram_rwdata_end
080146b0 g     F .text	0000016c OSSemPendAbort
0801ae98 g     O .rwdata	00000008 alt_dev_list
0800daac g     F .text	000000f8 write
0801af14 g     O .rwdata	00000002 OSVersionNbr
08019394 g       *ABS*	00000000 __ram_rodata_end
0800d13c g     F .text	000000b0 fstat
0800bc58 g     F .text	000000f4 .hidden __ledf2
0801aebc g     O .rwdata	00000004 OSEndiannessTest
08006b80 g     F .text	00000140 __pow5mult
08007e94 g     F .text	0000145c ___vfiprintf_internal_r
0801cae4 g     O .bss	00000004 __nlocale_changed
0800a908 g     F .text	00000058 .hidden __umodsi3
0801aece g     O .rwdata	00000002 OSFlagGrpSize
08023ec4 g       *ABS*	00000000 end
080169dc g     F .text	00000148 altera_avalon_jtag_uart_init
0800fa5c g     F .text	000000cc OS_TaskStat
080001d0 g     F .exceptions	00000074 alt_instruction_exception_entry
08018ebc g       *ABS*	00000000 __CTOR_LIST__
10000000 g       *ABS*	00000000 __alt_stack_pointer
0801761c g     F .text	0000007c alt_avalon_timer_sc_init
0800cf64 g     F .text	00000064 .hidden __clzsi2
080172e0 g     F .text	000002c4 altera_avalon_jtag_uart_write
08004b34 g     F .text	00000004 __sfp_lock_acquire
08006090 g     F .text	000000e4 memchr
0800f738 g     F .text	00000054 OS_MemClr
080177c0 g     F .text	0000007c alt_up_character_lcd_write
08000880 g     F .text	000021f8 ___vfprintf_internal_r
0801862c g     F .text	0000015c OSTaskStkInit
08000290 g     F .text	0000009c task1
08004c98 g     F .text	00000310 _free_r
08005674 g     F .text	00000010 __locale_mb_cur_max
0800eda8 g     F .text	00000198 OS_EventTaskRdy
08018d08 g     F .text	00000180 __call_exitprocs
0801cb3c g     O .bss	00000001 OSCPUUsage
0801cae0 g     O .bss	00000004 __mlocale_changed
0801ae84 g     O .rwdata	00000004 __malloc_sbrk_base
08000244 g     F .text	0000004c _start
0800032c g     F .text	0000009c task2
0801cb70 g     O .bss	00000004 _alt_tick_rate
080135fc g     F .text	0000028c OSQPend
080162a8 g     F .text	00000104 OSTimeDly
08006cc0 g     F .text	00000148 __lshift
0801cb74 g     O .bss	00000004 _alt_nticks
0800d860 g     F .text	000000fc read
080167fc g     F .text	0000007c alt_sys_init
08017a04 g     F .text	0000008c alt_up_character_lcd_shift_display
08018bf0 g     F .text	00000118 __register_exitproc
0801cb3d g     O .bss	00000001 OSTaskCtr
080163ac g     F .text	00000154 OSTimeDlyHMSM
08006988 g     F .text	000001f8 __multiply
08017a90 g     F .text	0000008c alt_up_character_lcd_erase_pos
08016ecc g     F .text	00000068 altera_avalon_jtag_uart_close
08019394 g       *ABS*	00000000 __ram_rwdata_start
08018ebc g       *ABS*	00000000 __ram_rodata_start
0801cb78 g     O .bss	00000028 __malloc_current_mallinfo
0801aec2 g     O .rwdata	00000002 OSEventMax
080071d4 g     F .text	0000014c __d2b
0801481c g     F .text	00000110 OSSemPost
0800e94c g     F .text	000000dc OSSchedUnlock
08016878 g     F .text	00000060 altera_avalon_jtag_uart_read_fd
080189bc g     F .text	000000dc alt_get_fd
0801cb40 g     O .bss	00000004 OSMemFreeList
0800ea98 g     F .text	000000b0 OSStatInit
080112d0 g     F .text	000000c4 OSFlagQuery
0801aef8 g     O .rwdata	00000002 OSTaskCreateExtEn
08009428 g     F .text	00000054 _close_r
08018b74 g     F .text	0000007c memcmp
0800ed88 g     F .text	00000020 OS_Dummy
08016938 g     F .text	00000050 altera_avalon_jtag_uart_close_fd
08023ec4 g       *ABS*	00000000 __alt_stack_base
08016988 g     F .text	00000054 altera_avalon_jtag_uart_ioctl_fd
08002b50 g     F .text	00000154 __swsetup_r
08022440 g     O .bss	000001e0 OSQTbl
0800b20c g     F .text	000008e8 .hidden __divdf3
080049f4 g     F .text	00000118 __sfp
08007438 g     F .text	00000078 __copybits
08019830 g     O .rwdata	00000408 __malloc_av_
08004b40 g     F .text	00000004 __sinit_lock_release
0801cad8 g     O .bss	00000004 ledMutex
0801cb44 g     O .bss	00000004 OSTCBHighRdy
0800bd4c g     F .text	00000718 .hidden __muldf3
08007b68 g     F .text	00000054 __sread
0801cb48 g     O .bss	00000004 OSQFreeList
080188b4 g     F .text	00000108 alt_find_file
08017d3c g     F .text	000000a4 alt_dev_llist_insert
0800dcc8 g     F .text	00000120 __malloc_lock
0800d9c0 g     F .text	000000b0 sbrk
0800dfd4 g     F .text	00000140 OSEventNameSet
08004748 g     F .text	0000005c _fflush_r
0800947c g     F .text	000000c4 _calloc_r
0801cb4c g     O .bss	00000001 OSRdyGrp
0801cad4 g       *ABS*	00000000 __bss_start
08006418 g     F .text	00000128 memset
080005d0 g     F .text	000000d8 main
0801cb08 g     O .bss	00000004 alt_envp
0801cae8 g     O .bss	00000004 __malloc_max_total_mem
080168d8 g     F .text	00000060 altera_avalon_jtag_uart_write_fd
08009afc g     F .text	00000018 __swbuf
08019250 g     O .rodata	00000100 OSUnMapTbl
0801aef2 g     O .rwdata	00000002 OSSemEn
08017978 g     F .text	0000008c alt_up_character_lcd_shift_cursor
08010f3c g     F .text	00000394 OSFlagPost
08007c9c g     F .text	00000008 __sclose
10000000 g       *ABS*	00000000 __alt_heap_limit
08009630 g     F .text	00000014 fclose
0800ef40 g     F .text	00000110 OS_EventTaskWait
0801eba0 g     O .bss	00002000 task2_stk
0800fb28 g     F .text	000000cc OS_TaskStatStkChk
08015700 g     F .text	00000150 OSTaskDelReq
08002ea4 g     F .text	00001688 _dtoa_r
08005884 g     F .text	0000080c _malloc_r
08009c70 g     F .text	00000030 __ascii_wctomb
08012064 g     F .text	000001c8 OSMutexCreate
0801aea4 g     O .rwdata	00000004 alt_errno
0800ea28 g     F .text	00000070 OSStart
0800dc68 g     F .text	00000060 __env_unlock
08005464 g     F .text	000000c4 _fwalk
08015b9c g     F .text	000001d4 OSTaskResume
08011d0c g     F .text	000000e8 OSMemQuery
0801af04 g     O .rwdata	00000002 OSTaskStatEn
0801aede g     O .rwdata	00000002 OSMemMax
08013b5c g     F .text	00000170 OSQPostFront
0800a7ac g     F .text	00000084 .hidden __divsi3
0801cb4d g     O .bss	00000003 OSRdyTbl
0801aeb8 g     O .rwdata	00000002 OSDebugEn
08017784 g     F .text	0000003c alt_up_character_lcd_open_dev
08004b74 g     F .text	00000124 _malloc_trim_r
08018ebc g       *ABS*	00000000 __CTOR_END__
0801aed0 g     O .rwdata	00000002 OSFlagNodeSize
0801af18 g     O .rwdata	00000002 OSTmrCfgMax
0801774c g     F .text	00000038 alt_up_character_lcd_init
08007ca4 g     F .text	000000dc strcmp
08013118 g     F .text	000001ac OSQCreate
08015850 g     F .text	00000198 OSTaskNameGet
08018ebc g       *ABS*	00000000 __flash_rodata_start
08013ccc g     F .text	0000020c OSQPostOpt
0800eb48 g     F .text	00000220 OSTimeTick
0801af00 g     O .rwdata	00000002 OSTaskMax
08018ebc g       *ABS*	00000000 __DTOR_LIST__
0801418c g     F .text	000000d8 OSSemCreate
0801af24 g     O .rwdata	00000002 OSTmrWheelSize
08012cdc g     F .text	0000016c OSMutexQuery
0800baf4 g     F .text	00000088 .hidden __nedf2
0801aefa g     O .rwdata	00000002 OSTaskDelEn
0801492c g     F .text	00000110 OSSemQuery
080132c4 g     F .text	00000280 OSQDel
08013888 g     F .text	0000016c OSQPendAbort
080167c4 g     F .text	00000038 alt_irq_init
0800d95c g     F .text	00000064 alt_release_fd
08017b1c g     F .text	00000038 alt_up_character_lcd_cursor_off
08019130 g     O .rodata	00000100 .hidden __clz_tab
0801cadc g     O .bss	00000004 _PathLocale
08018b28 g     F .text	00000014 atexit
080093c8 g     F .text	00000060 _write_r
0800e8c0 g     F .text	0000008c OSSchedLock
080056a4 g     F .text	00000018 setlocale
08010360 g     F .text	00000108 OSFlagCreate
0801ae7c g     O .rwdata	00000004 _impure_ptr
0801cb00 g     O .bss	00000004 alt_argc
0800452c g     F .text	0000021c __sflush_r
08017e40 g     F .text	00000060 _do_dtors
08005690 g     F .text	00000008 __locale_cjk_lang
0801aeca g     O .rwdata	00000002 OSEventMultiEn
08010468 g     F .text	00000248 OSFlagDel
0801cb50 g     O .bss	00000004 OSEventFreeList
08000020 g       .exceptions	00000000 alt_irq_entry
08007064 g     F .text	00000064 __ulp
08010924 g     F .text	000005b8 OSFlagPend
0801af16 g     O .rwdata	00000002 OSTmrEn
08004b5c g     F .text	00000018 __fp_unlock_all
0801ae90 g     O .rwdata	00000008 alt_fs_list
0800f938 g     F .text	00000074 OS_StrCopy
0801aee0 g     O .rwdata	00000002 OSMemNameSize
08018850 g     F .text	00000020 OSInitHookEnd
08000020 g       *ABS*	00000000 __ram_exceptions_start
0801af0c g     O .rwdata	00000002 OSTCBPrioTblMax
080056bc g     F .text	0000000c localeconv
0801af08 g     O .rwdata	00000002 OSTaskStatStkChkEn
0800d1ec g     F .text	00000050 alt_ic_isr_register
0801aedc g     O .rwdata	00000002 OSMemEn
0801aee6 g     O .rwdata	00000002 OSMutexEn
0801af34 g       *ABS*	00000000 _edata
08023ec4 g       *ABS*	00000000 _end
0801cb54 g     O .bss	00000001 OSIntNesting
08009644 g     F .text	00000164 __fputwc
08000244 g       *ABS*	00000000 __ram_exceptions_end
08016f34 g     F .text	000000f0 altera_avalon_jtag_uart_ioctl
08016500 g     F .text	000001d4 OSTimeDlyResume
080107d8 g     F .text	0000014c OSFlagNameSet
08015d70 g     F .text	000001c0 OSTaskStkChk
0800d2c4 g     F .text	0000008c alt_ic_irq_disable
0801aee2 g     O .rwdata	00000002 OSMemSize
08007bc4 g     F .text	0000007c __swrite
0801ae88 g     O .rwdata	00000004 __malloc_trim_threshold
08005684 g     F .text	0000000c __locale_msgcharset
0801cb58 g     O .bss	00000004 OSTCBCur
08018b3c g     F .text	00000038 exit
08012ac4 g     F .text	00000218 OSMutexPost
0801aee4 g     O .rwdata	00000002 OSMemTblSize
08005528 g     F .text	000000c4 _fwalk_reent
08006e68 g     F .text	000001fc __mdiff
0800a830 g     F .text	00000074 .hidden __modsi3
10000000 g       *ABS*	00000000 __alt_data_end
08000020 g     F .exceptions	00000000 alt_exception
08004b38 g     F .text	00000004 __sfp_lock_release
0800e724 g     F .text	00000058 OSInit
08000000 g       *ABS*	00000000 __alt_mem_sdram
08016114 g     F .text	00000124 OSTaskQuery
0801783c g     F .text	00000078 alt_up_character_lcd_string
08014034 g     F .text	000000a8 OS_QInit
0800f9ac g     F .text	00000054 OS_StrLen
08011b20 g     F .text	00000114 OSMemNameSet
0801aefe g     O .rwdata	00000002 OSTaskProfileEn
0801cb5c g     O .bss	00000004 OSTime
08022620 g     O .bss	00000800 OSTaskIdleStk
08018e88 g     F .text	00000034 _exit
08017b8c g     F .text	0000012c alt_alarm_start
080106b0 g     F .text	00000128 OSFlagNameGet
080166d4 g     F .text	0000005c OSTimeGet
080056c8 g     F .text	000001bc __smakebuf_r
080007e8 g     F .text	00000098 strlen
080187d0 g     F .text	00000020 OSTaskSwHook
08018240 g     F .text	00000154 open
08022e20 g     O .bss	00000b40 OSEventTbl
0800bb7c g     F .text	000000dc .hidden __gedf2
08023960 g     O .bss	00000510 OSTCBTbl
08014a3c g     F .text	00000100 OSSemSet
0801ae8c g     O .rwdata	00000004 __wctomb
08007e7c g     F .text	00000018 __sprint_r
08017f30 g     F .text	00000034 alt_icache_flush_all
08017904 g     F .text	00000074 alt_up_character_lcd_set_cursor_pos
0801aea8 g     O .rwdata	00000004 alt_priority_mask
08014264 g     F .text	00000240 OSSemDel
0801cb60 g     O .bss	00000004 OSFlagFreeList
0800d23c g     F .text	00000088 alt_ic_irq_enable
0801aec4 g     O .rwdata	00000002 OSEventNameSize
08002a78 g     F .text	0000001c __vfprintf_internal
0801cb64 g     O .bss	00000001 OSStatRdy
08023e70 g     O .bss	00000054 OSTCBPrioTbl
08009ca0 g     F .text	0000005c _wctomb_r
0800dba4 g     F .text	000000c4 __env_lock
0801af0a g     O .rwdata	00000002 OSTaskSwHookEn
0800c464 g     F .text	000008fc .hidden __subdf3
0800689c g     F .text	000000b0 __lo0bits
0801af2c g     O .rwdata	00000008 alt_alarm_list
0801aed2 g     O .rwdata	00000002 OSFlagWidth
08017de0 g     F .text	00000060 _do_ctors
08009bb0 g     F .text	000000c0 wcrtomb
0800d004 g     F .text	000000d0 close
0801cb10 g     O .bss	00000004 alt_envsem
0801cb68 g     O .bss	00000004 OSIdleCtrRun
0800ed68 g     F .text	00000020 OSVersion
0801af1c g     O .rwdata	00000002 OSTmrCfgWheelSize
0800d5d4 g     F .text	00000084 alt_load
08016238 g     F .text	00000070 OS_TaskStkClr
0801aef6 g     O .rwdata	00000002 OSTaskCreateEn
0800f358 g     F .text	00000068 OS_EventWaitListInit
080097cc g     F .text	00000080 fputwc
08018870 g     F .text	00000020 OSTaskIdleHook
08004b3c g     F .text	00000004 __sinit_lock_acquire
08006610 g     F .text	00000120 __multadd
08015f30 g     F .text	000001e4 OSTaskSuspend
080065e8 g     F .text	00000028 _Bfree
0800fa00 g     F .text	0000005c OS_TaskIdle
0801af22 g     O .rwdata	00000002 OSTmrTblSize
08013ed8 g     F .text	0000015c OSQQuery



Disassembly of section .entry:

08000000 <__reset>:
#if NIOS2_ICACHE_SIZE > 0 && defined(ALT_ALLOW_CODE_AT_RESET) && (!defined(ALT_SIM_OPTIMIZE) || defined(NIOS2_ECC_PRESENT))
    /* Assume the instruction cache size is always a power of two. */
#if NIOS2_ICACHE_SIZE > 0x8000
    movhi r2, %hi(NIOS2_ICACHE_SIZE)
#else
    movui r2, NIOS2_ICACHE_SIZE
 8000000:	00840014 	movui	r2,4096
#endif

0:
    initi r2
 8000004:	1001483a 	initi	r2
    addi r2, r2, -NIOS2_ICACHE_LINE_SIZE
 8000008:	10bff804 	addi	r2,r2,-32
    bgt r2, zero, 0b
 800000c:	00bffd16 	blt	zero,r2,8000004 <__alt_data_end+0xf8000004>
 * Jump to the _start entry point in the .text section if reset code
 * is allowed or if optimizing for RTL simulation.
 */
#if defined(ALT_ALLOW_CODE_AT_RESET) || defined(ALT_SIM_OPTIMIZE)
    /* Jump to the _start entry point in the .text section. */
    movhi r1, %hi(_start)
 8000010:	00420034 	movhi	at,2048
    ori r1, r1, %lo(_start)
 8000014:	08409114 	ori	at,at,580
    jmp r1
 8000018:	0800683a 	jmp	at
 800001c:	00000000 	call	0 <OSTCBStkPtr_OFFSET>

Disassembly of section .exceptions:

08000020 <alt_exception>:

#else /* ALT_EXCEPTION_STACK disabled */
        /* 
         * Reserve space on normal stack for registers about to be pushed.
         */
        addi  sp, sp, -76
 8000020:	deffed04 	addi	sp,sp,-76
         * documentation for details).
         *
         * Leave a gap in the stack frame at 4(sp) for the muldiv handler to
         * store zero into.
         */
        stw   ra,  0(sp)
 8000024:	dfc00015 	stw	ra,0(sp)
        stw   r1,   8(sp)
 8000028:	d8400215 	stw	at,8(sp)
        stw   r2,  12(sp)
 800002c:	d8800315 	stw	r2,12(sp)
        stw   r3,  16(sp)
 8000030:	d8c00415 	stw	r3,16(sp)
        stw   r4,  20(sp)
 8000034:	d9000515 	stw	r4,20(sp)
        stw   r5,  24(sp)
 8000038:	d9400615 	stw	r5,24(sp)
        stw   r6,  28(sp)
 800003c:	d9800715 	stw	r6,28(sp)
        stw   r7,  32(sp)
 8000040:	d9c00815 	stw	r7,32(sp)
        rdctl r5, estatus   /* Read early to avoid usage stall */
 8000044:	000b307a 	rdctl	r5,estatus
        stw   r8,  36(sp)
 8000048:	da000915 	stw	r8,36(sp)
        stw   r9,  40(sp)
 800004c:	da400a15 	stw	r9,40(sp)
        stw   r10, 44(sp)
 8000050:	da800b15 	stw	r10,44(sp)
        stw   r11, 48(sp)
 8000054:	dac00c15 	stw	r11,48(sp)
        stw   r12, 52(sp)
 8000058:	db000d15 	stw	r12,52(sp)
        stw   r13, 56(sp)
 800005c:	db400e15 	stw	r13,56(sp)
        stw   r14, 60(sp)
 8000060:	db800f15 	stw	r14,60(sp)
        stw   r15, 64(sp)
 8000064:	dbc01015 	stw	r15,64(sp)
        /*
         * ea-4 contains the address of the instruction being executed
         * when the exception occured. For interrupt exceptions, we will
         * will be re-issue the isntruction. Store it in 72(sp)
         */
        stw   r5,  68(sp)  /* estatus */
 8000068:	d9401115 	stw	r5,68(sp)
        addi  r15, ea, -4  /* instruction that caused exception */
 800006c:	ebffff04 	addi	r15,ea,-4
        stw   r15,  72(sp)
 8000070:	dbc01215 	stw	r15,72(sp)
#else
        /*
         * Test to see if the exception was a software exception or caused 
         * by an external interrupt, and vector accordingly.
         */
        rdctl r4, ipending
 8000074:	0009313a 	rdctl	r4,ipending
        andi  r2, r5, 1
 8000078:	2880004c 	andi	r2,r5,1
        beq   r2, zero, .Lnot_irq
 800007c:	10000326 	beq	r2,zero,800008c <alt_exception+0x6c>
        beq   r4, zero, .Lnot_irq
 8000080:	20000226 	beq	r4,zero,800008c <alt_exception+0x6c>
        /*
         * Now that all necessary registers have been preserved, call 
         * alt_irq_handler() to process the interrupts.
         */

        call alt_irq_handler
 8000084:	80000fc0 	call	80000fc <alt_irq_handler>

        .section .exceptions.irqreturn, "xa"

        br    .Lexception_exit
 8000088:	00000706 	br	80000a8 <alt_exception+0x88>
         * upon completion, so we write ea (address of instruction *after*
         * the one where the exception occured) into 72(sp). The actual
         * instruction that caused the exception is written in r2, which these
         * handlers will utilize.
         */
        stw ea, 72(sp) /* EA is PC+4 so will skip over instruction causing exception */
 800008c:	df401215 	stw	ea,72(sp)
.Lunknown_16bit:
        addi.n r4, r4, 2 /* Need PC+2 to skip over instruction causing exception */
        stw r4, 72(sp)

#else /* CDX is not Enabled and all instructions are 32bits */
        ldw r2, -4(ea) /* Instruction value that caused exception */
 8000090:	e8bfff17 	ldw	r2,-4(ea)
         * debugger is present) or go into an infinite loop since the
         * handling behavior is undefined; in that case we will not return here.
         */

        /* Load exception-causing address as first argument (r4) */
        addi   r4, ea, -4
 8000094:	e93fff04 	addi	r4,ea,-4

        /* Call the instruction-exception entry */
        call   alt_instruction_exception_entry
 8000098:	80001d00 	call	80001d0 <alt_instruction_exception_entry>
         * instruction
         *
         * Return code was 0: Skip. The instruction after the exception is
         * already stored in 72(sp).
         */
        bne   r2, r0, .Lexception_exit
 800009c:	1000021e 	bne	r2,zero,80000a8 <alt_exception+0x88>

        /*
         * Otherwise, modify 72(sp) to re-issue the instruction that caused the
         * exception.
         */
        addi  r15, ea, -4  /* instruction that caused exception */
 80000a0:	ebffff04 	addi	r15,ea,-4
        stw   r15,  72(sp)
 80000a4:	dbc01215 	stw	r15,72(sp)
        /* 
         * Restore the saved registers, so that all general purpose registers 
         * have been restored to their state at the time the interrupt occured.
         */

        ldw   r5,  68(sp)
 80000a8:	d9401117 	ldw	r5,68(sp)
        ldw   ea,  72(sp)  /* This becomes the PC once eret is executed */
 80000ac:	df401217 	ldw	ea,72(sp)
        ldw   ra,   0(sp)
 80000b0:	dfc00017 	ldw	ra,0(sp)

        wrctl estatus, r5
 80000b4:	2801707a 	wrctl	estatus,r5

        ldw   r1,   8(sp)
 80000b8:	d8400217 	ldw	at,8(sp)
        ldw   r2,  12(sp)
 80000bc:	d8800317 	ldw	r2,12(sp)
        ldw   r3,  16(sp)
 80000c0:	d8c00417 	ldw	r3,16(sp)
        ldw   r4,  20(sp)
 80000c4:	d9000517 	ldw	r4,20(sp)
        ldw   r5,  24(sp)
 80000c8:	d9400617 	ldw	r5,24(sp)
        ldw   r6,  28(sp)
 80000cc:	d9800717 	ldw	r6,28(sp)
        ldw   r7,  32(sp)
 80000d0:	d9c00817 	ldw	r7,32(sp)

#if defined(ALT_EXCEPTION_STACK) && defined(ALT_STACK_CHECK)
        ldw   et, %gprel(alt_exception_old_stack_limit)(gp)
#endif

        ldw   r8,  36(sp)
 80000d4:	da000917 	ldw	r8,36(sp)
        ldw   r9,  40(sp)
 80000d8:	da400a17 	ldw	r9,40(sp)
        ldw   r10, 44(sp)
 80000dc:	da800b17 	ldw	r10,44(sp)
        ldw   r11, 48(sp)
 80000e0:	dac00c17 	ldw	r11,48(sp)
        ldw   r12, 52(sp)
 80000e4:	db000d17 	ldw	r12,52(sp)
        ldw   r13, 56(sp)
 80000e8:	db400e17 	ldw	r13,56(sp)
        ldw   r14, 60(sp)
 80000ec:	db800f17 	ldw	r14,60(sp)
        ldw   r15, 64(sp)
 80000f0:	dbc01017 	ldw	r15,64(sp)
        stw   et, %gprel(alt_stack_limit_value)(gp)
        stw   zero, %gprel(alt_exception_old_stack_limit)(gp)
#endif /* ALT_STACK_CHECK */
        ldw   sp,  76(sp)
#else /* ALT_EXCEPTION_STACK disabled */
        addi  sp, sp, 76
 80000f4:	dec01304 	addi	sp,sp,76

        /*
         * Return to the interrupted instruction.
         */

        eret
 80000f8:	ef80083a 	eret

080000fc <alt_irq_handler>:
 * instruction is present if the macro ALT_CI_INTERRUPT_VECTOR defined.
 */

void alt_irq_handler (void) __attribute__ ((section (".exceptions")));
void alt_irq_handler (void)
{
 80000fc:	defff904 	addi	sp,sp,-28
 8000100:	dfc00615 	stw	ra,24(sp)
 8000104:	df000515 	stw	fp,20(sp)
 8000108:	df000504 	addi	fp,sp,20
  
  /*
   * Notify the operating system that we are at interrupt level.
   */ 
  
  ALT_OS_INT_ENTER();
 800010c:	800e77c0 	call	800e77c <OSIntEnter>
#ifndef NIOS2_EIC_PRESENT
static ALT_INLINE alt_u32 ALT_ALWAYS_INLINE alt_irq_pending (void)
{
  alt_u32 active;

  NIOS2_READ_IPENDING (active);
 8000110:	0005313a 	rdctl	r2,ipending
 8000114:	e0bffe15 	stw	r2,-8(fp)

  return active;
 8000118:	e0bffe17 	ldw	r2,-8(fp)
   * Consider the case where the high priority interupt is asserted during
   * the interrupt entry sequence for a lower priority interrupt to see why
   * this is the case.
   */

  active = alt_irq_pending ();
 800011c:	e0bffb15 	stw	r2,-20(fp)

  do
  {
    i = 0;
 8000120:	e03ffd15 	stw	zero,-12(fp)
    mask = 1;
 8000124:	00800044 	movi	r2,1
 8000128:	e0bffc15 	stw	r2,-16(fp)
     * called to clear the interrupt condition.
     */

    do
    {
      if (active & mask)
 800012c:	e0fffb17 	ldw	r3,-20(fp)
 8000130:	e0bffc17 	ldw	r2,-16(fp)
 8000134:	1884703a 	and	r2,r3,r2
 8000138:	10001426 	beq	r2,zero,800018c <alt_irq_handler+0x90>
      { 
#ifdef ALT_ENHANCED_INTERRUPT_API_PRESENT
        alt_irq[i].handler(alt_irq[i].context); 
 800013c:	008200b4 	movhi	r2,2050
 8000140:	1082e804 	addi	r2,r2,2976
 8000144:	e0fffd17 	ldw	r3,-12(fp)
 8000148:	180690fa 	slli	r3,r3,3
 800014c:	10c5883a 	add	r2,r2,r3
 8000150:	10c00017 	ldw	r3,0(r2)
 8000154:	008200b4 	movhi	r2,2050
 8000158:	1082e804 	addi	r2,r2,2976
 800015c:	e13ffd17 	ldw	r4,-12(fp)
 8000160:	200890fa 	slli	r4,r4,3
 8000164:	1105883a 	add	r2,r2,r4
 8000168:	10800104 	addi	r2,r2,4
 800016c:	10800017 	ldw	r2,0(r2)
 8000170:	1009883a 	mov	r4,r2
 8000174:	183ee83a 	callr	r3
#else
        alt_irq[i].handler(alt_irq[i].context, i); 
#endif
        break;
 8000178:	0001883a 	nop
#ifndef NIOS2_EIC_PRESENT
static ALT_INLINE alt_u32 ALT_ALWAYS_INLINE alt_irq_pending (void)
{
  alt_u32 active;

  NIOS2_READ_IPENDING (active);
 800017c:	0005313a 	rdctl	r2,ipending
 8000180:	e0bfff15 	stw	r2,-4(fp)

  return active;
 8000184:	e0bfff17 	ldw	r2,-4(fp)
 8000188:	00000706 	br	80001a8 <alt_irq_handler+0xac>
      }
      mask <<= 1;
 800018c:	e0bffc17 	ldw	r2,-16(fp)
 8000190:	1085883a 	add	r2,r2,r2
 8000194:	e0bffc15 	stw	r2,-16(fp)
      i++;
 8000198:	e0bffd17 	ldw	r2,-12(fp)
 800019c:	10800044 	addi	r2,r2,1
 80001a0:	e0bffd15 	stw	r2,-12(fp)

    } while (1);
 80001a4:	003fe106 	br	800012c <__alt_data_end+0xf800012c>

    active = alt_irq_pending ();
 80001a8:	e0bffb15 	stw	r2,-20(fp)
    
  } while (active);
 80001ac:	e0bffb17 	ldw	r2,-20(fp)
 80001b0:	103fdb1e 	bne	r2,zero,8000120 <__alt_data_end+0xf8000120>

  /*
   * Notify the operating system that interrupt processing is complete.
   */ 

  ALT_OS_INT_EXIT();
 80001b4:	800e7c80 	call	800e7c8 <OSIntExit>
}
 80001b8:	0001883a 	nop
 80001bc:	e037883a 	mov	sp,fp
 80001c0:	dfc00117 	ldw	ra,4(sp)
 80001c4:	df000017 	ldw	fp,0(sp)
 80001c8:	dec00204 	addi	sp,sp,8
 80001cc:	f800283a 	ret

080001d0 <alt_instruction_exception_entry>:
 * that handler if it has been registered. Absent a handler, it will
 * break break or hang as discussed below.
 */
int 
alt_instruction_exception_entry (alt_u32 exception_pc)
{
 80001d0:	defffb04 	addi	sp,sp,-20
 80001d4:	dfc00415 	stw	ra,16(sp)
 80001d8:	df000315 	stw	fp,12(sp)
 80001dc:	df000304 	addi	fp,sp,12
 80001e0:	e13fff15 	stw	r4,-4(fp)
 * NIOS2_EXCEPTION_CAUSE_NOT_PRESENT. Your handling routine should
 * check the validity of the cause argument before proceeding.
 */
#ifdef NIOS2_HAS_EXTRA_EXCEPTION_INFO
  /* Get exception cause & "badaddr" */
  NIOS2_READ_EXCEPTION(cause);
 80001e4:	000531fa 	rdctl	r2,exception
 80001e8:	e0bffd15 	stw	r2,-12(fp)
  cause = ( (cause & NIOS2_EXCEPTION_REG_CAUSE_MASK) >>
 80001ec:	e0bffd17 	ldw	r2,-12(fp)
 80001f0:	10801f0c 	andi	r2,r2,124
 80001f4:	1004d0ba 	srli	r2,r2,2
 80001f8:	e0bffd15 	stw	r2,-12(fp)
              NIOS2_EXCEPTION_REG_CAUSE_OFST );

  NIOS2_READ_BADADDR(badaddr);
 80001fc:	0005333a 	rdctl	r2,badaddr
 8000200:	e0bffe15 	stw	r2,-8(fp)
#else
  cause = NIOS2_EXCEPTION_CAUSE_NOT_PRESENT;
  badaddr = 0;
#endif /* NIOS2_HAS_EXTRA_EXCEPTION_INFO */

  if(alt_instruction_exception_handler) {
 8000204:	d0a73d17 	ldw	r2,-25356(gp)
 8000208:	10000726 	beq	r2,zero,8000228 <alt_instruction_exception_entry+0x58>
     * Call handler. Its return value indicates whether the exception-causing
     * instruction should be re-issued. The code that called us,
     * alt_eceptions_entry.S, will look at this value and adjust the ea
     * register as necessary
     */
    return alt_instruction_exception_handler(cause, exception_pc, badaddr);
 800020c:	d0a73d17 	ldw	r2,-25356(gp)
 8000210:	e0fffd17 	ldw	r3,-12(fp)
 8000214:	e1bffe17 	ldw	r6,-8(fp)
 8000218:	e17fff17 	ldw	r5,-4(fp)
 800021c:	1809883a 	mov	r4,r3
 8000220:	103ee83a 	callr	r2
 8000224:	00000206 	br	8000230 <alt_instruction_exception_entry+0x60>
   *    (a peripheral which negates its interrupt output before its
   *    interrupt handler has been executed will cause spurious interrupts)
   */
  else {
#ifdef NIOS2_HAS_DEBUG_STUB
    NIOS2_BREAK();
 8000228:	003da03a 	break	0
      ;
#endif /* NIOS2_HAS_DEBUG_STUB */
  }

  /* We should not get here. Remove compiler warning. */
  return NIOS2_EXCEPTION_RETURN_REISSUE_INST;
 800022c:	0005883a 	mov	r2,zero
}
 8000230:	e037883a 	mov	sp,fp
 8000234:	dfc00117 	ldw	ra,4(sp)
 8000238:	df000017 	ldw	fp,0(sp)
 800023c:	dec00204 	addi	sp,sp,8
 8000240:	f800283a 	ret

Disassembly of section .text:

08000244 <_start>:

    /* Assume the data cache size is always a power of two. */
#if NIOS2_DCACHE_SIZE > 0x8000
    movhi r2, %hi(NIOS2_DCACHE_SIZE)
#else
    movui r2, NIOS2_DCACHE_SIZE
 8000244:	00820014 	movui	r2,2048
#endif

0:
    initd 0(r2)
 8000248:	10000033 	initd	0(r2)
#ifdef NIOS2_ECC_PRESENT
    addi r2, r2, -4
#else
    addi r2, r2, -NIOS2_DCACHE_LINE_SIZE
 800024c:	10bff804 	addi	r2,r2,-32
#endif
    bgt r2, zero, 0b
 8000250:	00bffd16 	blt	zero,r2,8000248 <__alt_data_end+0xf8000248>

    /*
     * Now that the caches are initialized, set up the stack pointer and global pointer.
     * The values provided by the linker are assumed to be correctly aligned.
     */
    movhi sp, %hi(__alt_stack_pointer)
 8000254:	06c40034 	movhi	sp,4096
    ori sp, sp, %lo(__alt_stack_pointer)
 8000258:	dec00014 	ori	sp,sp,0
    movhi gp, %hi(_gp)
 800025c:	068200b4 	movhi	gp,2050
    ori gp, gp, %lo(_gp)
 8000260:	d68b9e14 	ori	gp,gp,11896
 */
#ifndef ALT_SIM_OPTIMIZE
    /* Log that the BSS is about to be cleared. */
    ALT_LOG_PUTS(alt_log_msg_bss)

    movhi r2, %hi(__bss_start)
 8000264:	00820074 	movhi	r2,2049
    ori r2, r2, %lo(__bss_start)
 8000268:	10b2b514 	ori	r2,r2,51924

    movhi r3, %hi(__bss_end)
 800026c:	00c200b4 	movhi	r3,2050
    ori r3, r3, %lo(__bss_end)
 8000270:	18cfb114 	ori	r3,r3,16068

    beq r2, r3, 1f
 8000274:	10c00326 	beq	r2,r3,8000284 <_start+0x40>

0:
    stw zero, (r2)
 8000278:	10000015 	stw	zero,0(r2)
    addi r2, r2, 4
 800027c:	10800104 	addi	r2,r2,4
    bltu r2, r3, 0b
 8000280:	10fffd36 	bltu	r2,r3,8000278 <__alt_data_end+0xf8000278>
     * section aren't defined until alt_load() has been called).
     */
    mov   et, zero
#endif

    call alt_load
 8000284:	800d5d40 	call	800d5d4 <alt_load>

    /* Log that alt_main is about to be called. */
    ALT_LOG_PUTS(alt_log_msg_alt_main)

    /* Call the C entry point. It should never return. */
    call alt_main
 8000288:	800d7680 	call	800d768 <alt_main>

0800028c <alt_after_alt_main>:

    /* Wait in infinite loop in case alt_main does return. */
alt_after_alt_main:
    br alt_after_alt_main
 800028c:	003fff06 	br	800028c <__alt_data_end+0xf800028c>

08000290 <task1>:
 *
 */


void task1(void* pdata)
{
 8000290:	defffb04 	addi	sp,sp,-20
 8000294:	dfc00415 	stw	ra,16(sp)
 8000298:	df000315 	stw	fp,12(sp)
 800029c:	df000304 	addi	fp,sp,12
 80002a0:	e13fff15 	stw	r4,-4(fp)
    INT8U err;
    while (1)
    {
        INT32U timestamp = OSTimeGet();
 80002a4:	80166d40 	call	80166d4 <OSTimeGet>
 80002a8:	e0bffd15 	stw	r2,-12(fp)
        printf("Task1 is running at timestamp: %lu\n", timestamp);
 80002ac:	e17ffd17 	ldw	r5,-12(fp)
 80002b0:	010200b4 	movhi	r4,2050
 80002b4:	2123af04 	addi	r4,r4,-28996
 80002b8:	80006d80 	call	80006d8 <printf>
        // Request ownership of the mutex
        OSMutexPend(ledMutex, 0, &err);
 80002bc:	d0a71817 	ldw	r2,-25504(gp)
 80002c0:	e0fffe04 	addi	r3,fp,-8
 80002c4:	180d883a 	mov	r6,r3
 80002c8:	000b883a 	mov	r5,zero
 80002cc:	1009883a 	mov	r4,r2
 80002d0:	80125280 	call	8012528 <OSMutexPend>
        IOWR(LEDS_BASE, 0, 0x1);  // Turn on LED 1
 80002d4:	00c00044 	movi	r3,1
 80002d8:	00800834 	movhi	r2,32
 80002dc:	10840804 	addi	r2,r2,4128
 80002e0:	10c00035 	stwio	r3,0(r2)
        OSTimeDlyHMSM(0, 0, 3, 0);
 80002e4:	000f883a 	mov	r7,zero
 80002e8:	018000c4 	movi	r6,3
 80002ec:	000b883a 	mov	r5,zero
 80002f0:	0009883a 	mov	r4,zero
 80002f4:	80163ac0 	call	80163ac <OSTimeDlyHMSM>
        IOWR(LEDS_BASE, 0, 0x0);  // Turn off LED 1
 80002f8:	0007883a 	mov	r3,zero
 80002fc:	00800834 	movhi	r2,32
 8000300:	10840804 	addi	r2,r2,4128
 8000304:	10c00035 	stwio	r3,0(r2)


        OSTimeDlyHMSM(0, 0, 3, 0);  // Sleep for 3 seconds before repeating
 8000308:	000f883a 	mov	r7,zero
 800030c:	018000c4 	movi	r6,3
 8000310:	000b883a 	mov	r5,zero
 8000314:	0009883a 	mov	r4,zero
 8000318:	80163ac0 	call	80163ac <OSTimeDlyHMSM>
        // Release ownership of the mutex
        OSMutexPost(ledMutex);
 800031c:	d0a71817 	ldw	r2,-25504(gp)
 8000320:	1009883a 	mov	r4,r2
 8000324:	8012ac40 	call	8012ac4 <OSMutexPost>
    }
 8000328:	003fde06 	br	80002a4 <__alt_data_end+0xf80002a4>

0800032c <task2>:
}

void task2(void* pdata)
{
 800032c:	defffb04 	addi	sp,sp,-20
 8000330:	dfc00415 	stw	ra,16(sp)
 8000334:	df000315 	stw	fp,12(sp)
 8000338:	df000304 	addi	fp,sp,12
 800033c:	e13fff15 	stw	r4,-4(fp)
    INT8U err;
    while (1)
    {
        INT32U timestamp = OSTimeGet();
 8000340:	80166d40 	call	80166d4 <OSTimeGet>
 8000344:	e0bffd15 	stw	r2,-12(fp)
        printf("Task2 is running at timestamp: %lu\n", timestamp);
 8000348:	e17ffd17 	ldw	r5,-12(fp)
 800034c:	010200b4 	movhi	r4,2050
 8000350:	2123b804 	addi	r4,r4,-28960
 8000354:	80006d80 	call	80006d8 <printf>

        OSMutexPend(ledMutex, 0, &err);
 8000358:	d0a71817 	ldw	r2,-25504(gp)
 800035c:	e0fffe04 	addi	r3,fp,-8
 8000360:	180d883a 	mov	r6,r3
 8000364:	000b883a 	mov	r5,zero
 8000368:	1009883a 	mov	r4,r2
 800036c:	80125280 	call	8012528 <OSMutexPend>
        IOWR(LEDS_BASE, 0, 0x2);  // Turn on LED 2
 8000370:	00c00084 	movi	r3,2
 8000374:	00800834 	movhi	r2,32
 8000378:	10840804 	addi	r2,r2,4128
 800037c:	10c00035 	stwio	r3,0(r2)
        OSTimeDlyHMSM(0, 0, 3, 0);
 8000380:	000f883a 	mov	r7,zero
 8000384:	018000c4 	movi	r6,3
 8000388:	000b883a 	mov	r5,zero
 800038c:	0009883a 	mov	r4,zero
 8000390:	80163ac0 	call	80163ac <OSTimeDlyHMSM>
        IOWR(LEDS_BASE, 0, 0x0);  // Turn off LED 2
 8000394:	0007883a 	mov	r3,zero
 8000398:	00800834 	movhi	r2,32
 800039c:	10840804 	addi	r2,r2,4128
 80003a0:	10c00035 	stwio	r3,0(r2)


        OSTimeDlyHMSM(0, 0, 3, 0);  // Sleep for 3 seconds before repeating
 80003a4:	000f883a 	mov	r7,zero
 80003a8:	018000c4 	movi	r6,3
 80003ac:	000b883a 	mov	r5,zero
 80003b0:	0009883a 	mov	r4,zero
 80003b4:	80163ac0 	call	80163ac <OSTimeDlyHMSM>
        OSMutexPost(ledMutex);
 80003b8:	d0a71817 	ldw	r2,-25504(gp)
 80003bc:	1009883a 	mov	r4,r2
 80003c0:	8012ac40 	call	8012ac4 <OSMutexPost>
    }
 80003c4:	003fde06 	br	8000340 <__alt_data_end+0xf8000340>

080003c8 <pio_init>:
 **********************
 **** KEY ISR CODE ****
 **********************
 **********************/

static void pio_init() {
 80003c8:	defffc04 	addi	sp,sp,-16
 80003cc:	dfc00315 	stw	ra,12(sp)
 80003d0:	df000215 	stw	fp,8(sp)
 80003d4:	df000204 	addi	fp,sp,8
	// Initialize interrupt function
	void* edge_capture_ptr = (void*)&(edge_capture); // get edge capture pointer ready for use
 80003d8:	d0a71704 	addi	r2,gp,-25508
 80003dc:	e0bfff15 	stw	r2,-4(fp)
	// Turn edge capture pointer in a void pointer (this is what the alt_ic_isr_register() takes in)
	// Key0 is system reset so only mask out Keys 3-1
	IOWR_ALTERA_AVALON_PIO_IRQ_MASK(KEYS_BASE, 0X7); // Bit masks for Key 3,2,1
 80003e0:	00c001c4 	movi	r3,7
 80003e4:	00800834 	movhi	r2,32
 80003e8:	10841a04 	addi	r2,r2,4200
 80003ec:	10c00035 	stwio	r3,0(r2)
	// Clear pushbutton key's edge capture register
	IOWR_ALTERA_AVALON_PIO_EDGE_CAP(KEYS_BASE, 0X00); // clear edge capture register
 80003f0:	0007883a 	mov	r3,zero
 80003f4:	00800834 	movhi	r2,32
 80003f8:	10841b04 	addi	r2,r2,4204
 80003fc:	10c00035 	stwio	r3,0(r2)
	// register interrupt handler with values for keys, edge capture pointer, etc.
	alt_ic_isr_register(KEYS_IRQ_INTERRUPT_CONTROLLER_ID, KEYS_IRQ, handle_key_interrupts, edge_capture_ptr, 0);
 8000400:	d8000015 	stw	zero,0(sp)
 8000404:	e1ffff17 	ldw	r7,-4(fp)
 8000408:	01820034 	movhi	r6,2048
 800040c:	31810d04 	addi	r6,r6,1076
 8000410:	000b883a 	mov	r5,zero
 8000414:	0009883a 	mov	r4,zero
 8000418:	800d1ec0 	call	800d1ec <alt_ic_isr_register>
}
 800041c:	0001883a 	nop
 8000420:	e037883a 	mov	sp,fp
 8000424:	dfc00117 	ldw	ra,4(sp)
 8000428:	df000017 	ldw	fp,0(sp)
 800042c:	dec00204 	addi	sp,sp,8
 8000430:	f800283a 	ret

08000434 <handle_key_interrupts>:

static void handle_key_interrupts(void* context) {
 8000434:	defffc04 	addi	sp,sp,-16
 8000438:	dfc00315 	stw	ra,12(sp)
 800043c:	df000215 	stw	fp,8(sp)
 8000440:	df000204 	addi	fp,sp,8
 8000444:	e13fff15 	stw	r4,-4(fp)
	// Interrupt Handler
	// Cast context to edge_capture's type
	// Make it volatile so compiler doesn't try to optimize it
	volatile int* edge_capture_ptr = (volatile int*) context;
 8000448:	e0bfff17 	ldw	r2,-4(fp)
 800044c:	e0bffe15 	stw	r2,-8(fp)
	// Read the edge capture register on the button PIO and store the value
	*edge_capture_ptr = IORD_ALTERA_AVALON_PIO_EDGE_CAP(KEYS_BASE);
 8000450:	00800834 	movhi	r2,32
 8000454:	10841b04 	addi	r2,r2,4204
 8000458:	10c00037 	ldwio	r3,0(r2)
 800045c:	e0bffe17 	ldw	r2,-8(fp)
 8000460:	10c00015 	stw	r3,0(r2)
	switch (*edge_capture_ptr) {
 8000464:	e0bffe17 	ldw	r2,-8(fp)
 8000468:	10800017 	ldw	r2,0(r2)
 800046c:	10c000a0 	cmpeqi	r3,r2,2
 8000470:	1800061e 	bne	r3,zero,800048c <handle_key_interrupts+0x58>
 8000474:	10c00120 	cmpeqi	r3,r2,4
 8000478:	1800061e 	bne	r3,zero,8000494 <handle_key_interrupts+0x60>
 800047c:	10800060 	cmpeqi	r2,r2,1
 8000480:	10000626 	beq	r2,zero,800049c <handle_key_interrupts+0x68>
	case 0x1:
		key1_isr();
 8000484:	80004e00 	call	80004e0 <key1_isr>
		break;
 8000488:	00000f06 	br	80004c8 <handle_key_interrupts+0x94>
	case 0x2:
		key2_isr();
 800048c:	80005300 	call	8000530 <key2_isr>
		break;
 8000490:	00000d06 	br	80004c8 <handle_key_interrupts+0x94>
	case 0x4:
		key3_isr();
 8000494:	80005800 	call	8000580 <key3_isr>
		break;
 8000498:	00000b06 	br	80004c8 <handle_key_interrupts+0x94>
	default:
		printf("UNKNOWN INTERRUPT..., received: %d\n", *edge_capture_ptr);
 800049c:	e0bffe17 	ldw	r2,-8(fp)
 80004a0:	10800017 	ldw	r2,0(r2)
 80004a4:	100b883a 	mov	r5,r2
 80004a8:	010200b4 	movhi	r4,2050
 80004ac:	2123c104 	addi	r4,r4,-28924
 80004b0:	80006d80 	call	80006d8 <printf>
		IOWR_ALTERA_AVALON_PIO_EDGE_CAP(KEYS_BASE,0x00);
 80004b4:	0007883a 	mov	r3,zero
 80004b8:	00800834 	movhi	r2,32
 80004bc:	10841b04 	addi	r2,r2,4204
 80004c0:	10c00035 	stwio	r3,0(r2)
		break;
 80004c4:	0001883a 	nop
	}
	return;
 80004c8:	0001883a 	nop
}
 80004cc:	e037883a 	mov	sp,fp
 80004d0:	dfc00117 	ldw	ra,4(sp)
 80004d4:	df000017 	ldw	fp,0(sp)
 80004d8:	dec00204 	addi	sp,sp,8
 80004dc:	f800283a 	ret

080004e0 <key1_isr>:


static void key1_isr() {
 80004e0:	defffe04 	addi	sp,sp,-8
 80004e4:	dfc00115 	stw	ra,4(sp)
 80004e8:	df000015 	stw	fp,0(sp)
 80004ec:	d839883a 	mov	fp,sp
	// Interrupt Service Routine - Key 1


	printf("\nKEY 1 ISR RAN!\n");
 80004f0:	010200b4 	movhi	r4,2050
 80004f4:	2123ca04 	addi	r4,r4,-28888
 80004f8:	80007d40 	call	80007d4 <puts>

	// Write to the edge capture register to reset it
	IOWR_ALTERA_AVALON_PIO_EDGE_CAP(KEYS_BASE,0x00);
 80004fc:	0007883a 	mov	r3,zero
 8000500:	00800834 	movhi	r2,32
 8000504:	10841b04 	addi	r2,r2,4204
 8000508:	10c00035 	stwio	r3,0(r2)
	// Read the PIO to delay the ISR's exit
	IORD_ALTERA_AVALON_PIO_EDGE_CAP(KEYS_BASE);
 800050c:	00800834 	movhi	r2,32
 8000510:	10841b04 	addi	r2,r2,4204
 8000514:	10800037 	ldwio	r2,0(r2)
	return;
 8000518:	0001883a 	nop
}
 800051c:	e037883a 	mov	sp,fp
 8000520:	dfc00117 	ldw	ra,4(sp)
 8000524:	df000017 	ldw	fp,0(sp)
 8000528:	dec00204 	addi	sp,sp,8
 800052c:	f800283a 	ret

08000530 <key2_isr>:

static void key2_isr() {
 8000530:	defffe04 	addi	sp,sp,-8
 8000534:	dfc00115 	stw	ra,4(sp)
 8000538:	df000015 	stw	fp,0(sp)
 800053c:	d839883a 	mov	fp,sp
	// Interrupt Service Routine - Key 2


	printf("\nKEY 2 ISR RAN!\n");
 8000540:	010200b4 	movhi	r4,2050
 8000544:	2123ce04 	addi	r4,r4,-28872
 8000548:	80007d40 	call	80007d4 <puts>

	// Write to the edge capture register to reset it
	IOWR_ALTERA_AVALON_PIO_EDGE_CAP(KEYS_BASE,0x00);
 800054c:	0007883a 	mov	r3,zero
 8000550:	00800834 	movhi	r2,32
 8000554:	10841b04 	addi	r2,r2,4204
 8000558:	10c00035 	stwio	r3,0(r2)
	// Read the PIO to delay the ISR's exit
	IORD_ALTERA_AVALON_PIO_EDGE_CAP(KEYS_BASE);
 800055c:	00800834 	movhi	r2,32
 8000560:	10841b04 	addi	r2,r2,4204
 8000564:	10800037 	ldwio	r2,0(r2)
	return;
 8000568:	0001883a 	nop
}
 800056c:	e037883a 	mov	sp,fp
 8000570:	dfc00117 	ldw	ra,4(sp)
 8000574:	df000017 	ldw	fp,0(sp)
 8000578:	dec00204 	addi	sp,sp,8
 800057c:	f800283a 	ret

08000580 <key3_isr>:

static void key3_isr() {
 8000580:	defffe04 	addi	sp,sp,-8
 8000584:	dfc00115 	stw	ra,4(sp)
 8000588:	df000015 	stw	fp,0(sp)
 800058c:	d839883a 	mov	fp,sp
	// Interrupt Service Routine - Key 3


	printf("\nKEY 3 ISR RAN!\n");
 8000590:	010200b4 	movhi	r4,2050
 8000594:	2123d204 	addi	r4,r4,-28856
 8000598:	80007d40 	call	80007d4 <puts>

	// Write to the edge capture register to reset it
	IOWR_ALTERA_AVALON_PIO_EDGE_CAP(KEYS_BASE,0x00);
 800059c:	0007883a 	mov	r3,zero
 80005a0:	00800834 	movhi	r2,32
 80005a4:	10841b04 	addi	r2,r2,4204
 80005a8:	10c00035 	stwio	r3,0(r2)
	// Read the PIO to delay the ISR's exit
	IORD_ALTERA_AVALON_PIO_EDGE_CAP(KEYS_BASE);
 80005ac:	00800834 	movhi	r2,32
 80005b0:	10841b04 	addi	r2,r2,4204
 80005b4:	10800037 	ldwio	r2,0(r2)
	return;
 80005b8:	0001883a 	nop
}
 80005bc:	e037883a 	mov	sp,fp
 80005c0:	dfc00117 	ldw	ra,4(sp)
 80005c4:	df000017 	ldw	fp,0(sp)
 80005c8:	dec00204 	addi	sp,sp,8
 80005cc:	f800283a 	ret

080005d0 <main>:
/* The main function creates two task and starts multi-tasking */
int main(void)
{
 80005d0:	defff804 	addi	sp,sp,-32
 80005d4:	dfc00715 	stw	ra,28(sp)
 80005d8:	df000615 	stw	fp,24(sp)
 80005dc:	df000604 	addi	fp,sp,24
  INT8U err;
  IOWR(LEDS_BASE, 0, 0);
 80005e0:	0007883a 	mov	r3,zero
 80005e4:	00800834 	movhi	r2,32
 80005e8:	10840804 	addi	r2,r2,4128
 80005ec:	10c00035 	stwio	r3,0(r2)
  printf("Main init\n");
 80005f0:	010200b4 	movhi	r4,2050
 80005f4:	2123d604 	addi	r4,r4,-28840
 80005f8:	80007d40 	call	80007d4 <puts>
  ledMutex = OSMutexCreate(0, &err);  // Create a mutex for controlling access to the LED resource
 80005fc:	e17fff04 	addi	r5,fp,-4
 8000600:	0009883a 	mov	r4,zero
 8000604:	80120640 	call	8012064 <OSMutexCreate>
 8000608:	d0a71815 	stw	r2,-25504(gp)
  OSTaskCreateExt(task1,
 800060c:	d8000415 	stw	zero,16(sp)
 8000610:	d8000315 	stw	zero,12(sp)
 8000614:	00820004 	movi	r2,2048
 8000618:	d8800215 	stw	r2,8(sp)
 800061c:	008200b4 	movhi	r2,2050
 8000620:	10b2e804 	addi	r2,r2,-13408
 8000624:	d8800115 	stw	r2,4(sp)
 8000628:	00800044 	movi	r2,1
 800062c:	d8800015 	stw	r2,0(sp)
 8000630:	01c00044 	movi	r7,1
 8000634:	018200b4 	movhi	r6,2050
 8000638:	31bae704 	addi	r6,r6,-5220
 800063c:	000b883a 	mov	r5,zero
 8000640:	01020034 	movhi	r4,2048
 8000644:	2100a404 	addi	r4,r4,656
 8000648:	80151d80 	call	80151d8 <OSTaskCreateExt>
                  TASK_STACKSIZE,
                  NULL,
                  0);
              
               
  OSTaskCreateExt(task2,
 800064c:	d8000415 	stw	zero,16(sp)
 8000650:	d8000315 	stw	zero,12(sp)
 8000654:	00820004 	movi	r2,2048
 8000658:	d8800215 	stw	r2,8(sp)
 800065c:	008200b4 	movhi	r2,2050
 8000660:	10bae804 	addi	r2,r2,-5216
 8000664:	d8800115 	stw	r2,4(sp)
 8000668:	00800084 	movi	r2,2
 800066c:	d8800015 	stw	r2,0(sp)
 8000670:	01c00084 	movi	r7,2
 8000674:	018200b4 	movhi	r6,2050
 8000678:	3182e704 	addi	r6,r6,2972
 800067c:	000b883a 	mov	r5,zero
 8000680:	01020034 	movhi	r4,2048
 8000684:	2100cb04 	addi	r4,r4,812
 8000688:	80151d80 	call	80151d8 <OSTaskCreateExt>
                  TASK2_PRIORITY,
                  task2_stk,
                  TASK_STACKSIZE,
                  NULL,
                  0);
  OSStart();
 800068c:	800ea280 	call	800ea28 <OSStart>
  return 0;
 8000690:	0005883a 	mov	r2,zero
}
 8000694:	e037883a 	mov	sp,fp
 8000698:	dfc00117 	ldw	ra,4(sp)
 800069c:	df000017 	ldw	fp,0(sp)
 80006a0:	dec00204 	addi	sp,sp,8
 80006a4:	f800283a 	ret

080006a8 <_printf_r>:
 80006a8:	defffd04 	addi	sp,sp,-12
 80006ac:	2805883a 	mov	r2,r5
 80006b0:	dfc00015 	stw	ra,0(sp)
 80006b4:	d9800115 	stw	r6,4(sp)
 80006b8:	d9c00215 	stw	r7,8(sp)
 80006bc:	21400217 	ldw	r5,8(r4)
 80006c0:	d9c00104 	addi	r7,sp,4
 80006c4:	100d883a 	mov	r6,r2
 80006c8:	80008800 	call	8000880 <___vfprintf_internal_r>
 80006cc:	dfc00017 	ldw	ra,0(sp)
 80006d0:	dec00304 	addi	sp,sp,12
 80006d4:	f800283a 	ret

080006d8 <printf>:
 80006d8:	defffc04 	addi	sp,sp,-16
 80006dc:	dfc00015 	stw	ra,0(sp)
 80006e0:	d9400115 	stw	r5,4(sp)
 80006e4:	d9800215 	stw	r6,8(sp)
 80006e8:	d9c00315 	stw	r7,12(sp)
 80006ec:	008200b4 	movhi	r2,2050
 80006f0:	10ab9f04 	addi	r2,r2,-20868
 80006f4:	10800017 	ldw	r2,0(r2)
 80006f8:	200b883a 	mov	r5,r4
 80006fc:	d9800104 	addi	r6,sp,4
 8000700:	11000217 	ldw	r4,8(r2)
 8000704:	8002a780 	call	8002a78 <__vfprintf_internal>
 8000708:	dfc00017 	ldw	ra,0(sp)
 800070c:	dec00404 	addi	sp,sp,16
 8000710:	f800283a 	ret

08000714 <_puts_r>:
 8000714:	defff604 	addi	sp,sp,-40
 8000718:	dc000715 	stw	r16,28(sp)
 800071c:	2021883a 	mov	r16,r4
 8000720:	2809883a 	mov	r4,r5
 8000724:	dc400815 	stw	r17,32(sp)
 8000728:	dfc00915 	stw	ra,36(sp)
 800072c:	2823883a 	mov	r17,r5
 8000730:	80007e80 	call	80007e8 <strlen>
 8000734:	10c00044 	addi	r3,r2,1
 8000738:	d8800115 	stw	r2,4(sp)
 800073c:	008200b4 	movhi	r2,2050
 8000740:	10a3d904 	addi	r2,r2,-28828
 8000744:	d8800215 	stw	r2,8(sp)
 8000748:	00800044 	movi	r2,1
 800074c:	d8800315 	stw	r2,12(sp)
 8000750:	00800084 	movi	r2,2
 8000754:	dc400015 	stw	r17,0(sp)
 8000758:	d8c00615 	stw	r3,24(sp)
 800075c:	dec00415 	stw	sp,16(sp)
 8000760:	d8800515 	stw	r2,20(sp)
 8000764:	80000226 	beq	r16,zero,8000770 <_puts_r+0x5c>
 8000768:	80800e17 	ldw	r2,56(r16)
 800076c:	10001426 	beq	r2,zero,80007c0 <_puts_r+0xac>
 8000770:	81400217 	ldw	r5,8(r16)
 8000774:	2880030b 	ldhu	r2,12(r5)
 8000778:	10c8000c 	andi	r3,r2,8192
 800077c:	1800061e 	bne	r3,zero,8000798 <_puts_r+0x84>
 8000780:	29001917 	ldw	r4,100(r5)
 8000784:	00f7ffc4 	movi	r3,-8193
 8000788:	10880014 	ori	r2,r2,8192
 800078c:	20c6703a 	and	r3,r4,r3
 8000790:	2880030d 	sth	r2,12(r5)
 8000794:	28c01915 	stw	r3,100(r5)
 8000798:	d9800404 	addi	r6,sp,16
 800079c:	8009883a 	mov	r4,r16
 80007a0:	8004fa80 	call	8004fa8 <__sfvwrite_r>
 80007a4:	1000091e 	bne	r2,zero,80007cc <_puts_r+0xb8>
 80007a8:	00800284 	movi	r2,10
 80007ac:	dfc00917 	ldw	ra,36(sp)
 80007b0:	dc400817 	ldw	r17,32(sp)
 80007b4:	dc000717 	ldw	r16,28(sp)
 80007b8:	dec00a04 	addi	sp,sp,40
 80007bc:	f800283a 	ret
 80007c0:	8009883a 	mov	r4,r16
 80007c4:	8004b240 	call	8004b24 <__sinit>
 80007c8:	003fe906 	br	8000770 <__alt_data_end+0xf8000770>
 80007cc:	00bfffc4 	movi	r2,-1
 80007d0:	003ff606 	br	80007ac <__alt_data_end+0xf80007ac>

080007d4 <puts>:
 80007d4:	008200b4 	movhi	r2,2050
 80007d8:	10ab9f04 	addi	r2,r2,-20868
 80007dc:	200b883a 	mov	r5,r4
 80007e0:	11000017 	ldw	r4,0(r2)
 80007e4:	80007141 	jmpi	8000714 <_puts_r>

080007e8 <strlen>:
 80007e8:	208000cc 	andi	r2,r4,3
 80007ec:	10002026 	beq	r2,zero,8000870 <strlen+0x88>
 80007f0:	20800007 	ldb	r2,0(r4)
 80007f4:	10002026 	beq	r2,zero,8000878 <strlen+0x90>
 80007f8:	2005883a 	mov	r2,r4
 80007fc:	00000206 	br	8000808 <strlen+0x20>
 8000800:	10c00007 	ldb	r3,0(r2)
 8000804:	18001826 	beq	r3,zero,8000868 <strlen+0x80>
 8000808:	10800044 	addi	r2,r2,1
 800080c:	10c000cc 	andi	r3,r2,3
 8000810:	183ffb1e 	bne	r3,zero,8000800 <__alt_data_end+0xf8000800>
 8000814:	10c00017 	ldw	r3,0(r2)
 8000818:	01ffbff4 	movhi	r7,65279
 800081c:	39ffbfc4 	addi	r7,r7,-257
 8000820:	00ca303a 	nor	r5,zero,r3
 8000824:	01a02074 	movhi	r6,32897
 8000828:	19c7883a 	add	r3,r3,r7
 800082c:	31a02004 	addi	r6,r6,-32640
 8000830:	1946703a 	and	r3,r3,r5
 8000834:	1986703a 	and	r3,r3,r6
 8000838:	1800091e 	bne	r3,zero,8000860 <strlen+0x78>
 800083c:	10800104 	addi	r2,r2,4
 8000840:	10c00017 	ldw	r3,0(r2)
 8000844:	19cb883a 	add	r5,r3,r7
 8000848:	00c6303a 	nor	r3,zero,r3
 800084c:	28c6703a 	and	r3,r5,r3
 8000850:	1986703a 	and	r3,r3,r6
 8000854:	183ff926 	beq	r3,zero,800083c <__alt_data_end+0xf800083c>
 8000858:	00000106 	br	8000860 <strlen+0x78>
 800085c:	10800044 	addi	r2,r2,1
 8000860:	10c00007 	ldb	r3,0(r2)
 8000864:	183ffd1e 	bne	r3,zero,800085c <__alt_data_end+0xf800085c>
 8000868:	1105c83a 	sub	r2,r2,r4
 800086c:	f800283a 	ret
 8000870:	2005883a 	mov	r2,r4
 8000874:	003fe706 	br	8000814 <__alt_data_end+0xf8000814>
 8000878:	0005883a 	mov	r2,zero
 800087c:	f800283a 	ret

08000880 <___vfprintf_internal_r>:
 8000880:	deffb804 	addi	sp,sp,-288
 8000884:	dfc04715 	stw	ra,284(sp)
 8000888:	ddc04515 	stw	r23,276(sp)
 800088c:	dd404315 	stw	r21,268(sp)
 8000890:	d9002c15 	stw	r4,176(sp)
 8000894:	282f883a 	mov	r23,r5
 8000898:	302b883a 	mov	r21,r6
 800089c:	d9c02d15 	stw	r7,180(sp)
 80008a0:	df004615 	stw	fp,280(sp)
 80008a4:	dd804415 	stw	r22,272(sp)
 80008a8:	dd004215 	stw	r20,264(sp)
 80008ac:	dcc04115 	stw	r19,260(sp)
 80008b0:	dc804015 	stw	r18,256(sp)
 80008b4:	dc403f15 	stw	r17,252(sp)
 80008b8:	dc003e15 	stw	r16,248(sp)
 80008bc:	80056980 	call	8005698 <_localeconv_r>
 80008c0:	10800017 	ldw	r2,0(r2)
 80008c4:	1009883a 	mov	r4,r2
 80008c8:	d8803415 	stw	r2,208(sp)
 80008cc:	80007e80 	call	80007e8 <strlen>
 80008d0:	d8803715 	stw	r2,220(sp)
 80008d4:	d8802c17 	ldw	r2,176(sp)
 80008d8:	10000226 	beq	r2,zero,80008e4 <___vfprintf_internal_r+0x64>
 80008dc:	10800e17 	ldw	r2,56(r2)
 80008e0:	1000f926 	beq	r2,zero,8000cc8 <___vfprintf_internal_r+0x448>
 80008e4:	b880030b 	ldhu	r2,12(r23)
 80008e8:	10c8000c 	andi	r3,r2,8192
 80008ec:	1800061e 	bne	r3,zero,8000908 <___vfprintf_internal_r+0x88>
 80008f0:	b9001917 	ldw	r4,100(r23)
 80008f4:	00f7ffc4 	movi	r3,-8193
 80008f8:	10880014 	ori	r2,r2,8192
 80008fc:	20c6703a 	and	r3,r4,r3
 8000900:	b880030d 	sth	r2,12(r23)
 8000904:	b8c01915 	stw	r3,100(r23)
 8000908:	10c0020c 	andi	r3,r2,8
 800090c:	1800c126 	beq	r3,zero,8000c14 <___vfprintf_internal_r+0x394>
 8000910:	b8c00417 	ldw	r3,16(r23)
 8000914:	1800bf26 	beq	r3,zero,8000c14 <___vfprintf_internal_r+0x394>
 8000918:	1080068c 	andi	r2,r2,26
 800091c:	00c00284 	movi	r3,10
 8000920:	10c0c426 	beq	r2,r3,8000c34 <___vfprintf_internal_r+0x3b4>
 8000924:	d8c00404 	addi	r3,sp,16
 8000928:	050200b4 	movhi	r20,2050
 800092c:	d9001e04 	addi	r4,sp,120
 8000930:	a523ea84 	addi	r20,r20,-28758
 8000934:	d8c01e15 	stw	r3,120(sp)
 8000938:	d8002015 	stw	zero,128(sp)
 800093c:	d8001f15 	stw	zero,124(sp)
 8000940:	d8003315 	stw	zero,204(sp)
 8000944:	d8003615 	stw	zero,216(sp)
 8000948:	d8003815 	stw	zero,224(sp)
 800094c:	1811883a 	mov	r8,r3
 8000950:	d8003915 	stw	zero,228(sp)
 8000954:	d8003a15 	stw	zero,232(sp)
 8000958:	d8002f15 	stw	zero,188(sp)
 800095c:	d9002815 	stw	r4,160(sp)
 8000960:	a8800007 	ldb	r2,0(r21)
 8000964:	10027b26 	beq	r2,zero,8001354 <___vfprintf_internal_r+0xad4>
 8000968:	00c00944 	movi	r3,37
 800096c:	a821883a 	mov	r16,r21
 8000970:	10c0021e 	bne	r2,r3,800097c <___vfprintf_internal_r+0xfc>
 8000974:	00001406 	br	80009c8 <___vfprintf_internal_r+0x148>
 8000978:	10c00326 	beq	r2,r3,8000988 <___vfprintf_internal_r+0x108>
 800097c:	84000044 	addi	r16,r16,1
 8000980:	80800007 	ldb	r2,0(r16)
 8000984:	103ffc1e 	bne	r2,zero,8000978 <__alt_data_end+0xf8000978>
 8000988:	8563c83a 	sub	r17,r16,r21
 800098c:	88000e26 	beq	r17,zero,80009c8 <___vfprintf_internal_r+0x148>
 8000990:	d8c02017 	ldw	r3,128(sp)
 8000994:	d8801f17 	ldw	r2,124(sp)
 8000998:	45400015 	stw	r21,0(r8)
 800099c:	1c47883a 	add	r3,r3,r17
 80009a0:	10800044 	addi	r2,r2,1
 80009a4:	d8c02015 	stw	r3,128(sp)
 80009a8:	44400115 	stw	r17,4(r8)
 80009ac:	d8801f15 	stw	r2,124(sp)
 80009b0:	00c001c4 	movi	r3,7
 80009b4:	1880a716 	blt	r3,r2,8000c54 <___vfprintf_internal_r+0x3d4>
 80009b8:	42000204 	addi	r8,r8,8
 80009bc:	d9402f17 	ldw	r5,188(sp)
 80009c0:	2c4b883a 	add	r5,r5,r17
 80009c4:	d9402f15 	stw	r5,188(sp)
 80009c8:	80800007 	ldb	r2,0(r16)
 80009cc:	1000a826 	beq	r2,zero,8000c70 <___vfprintf_internal_r+0x3f0>
 80009d0:	84400047 	ldb	r17,1(r16)
 80009d4:	00bfffc4 	movi	r2,-1
 80009d8:	85400044 	addi	r21,r16,1
 80009dc:	d8002785 	stb	zero,158(sp)
 80009e0:	0007883a 	mov	r3,zero
 80009e4:	000f883a 	mov	r7,zero
 80009e8:	d8802915 	stw	r2,164(sp)
 80009ec:	d8003115 	stw	zero,196(sp)
 80009f0:	0025883a 	mov	r18,zero
 80009f4:	01401604 	movi	r5,88
 80009f8:	01800244 	movi	r6,9
 80009fc:	02800a84 	movi	r10,42
 8000a00:	02401b04 	movi	r9,108
 8000a04:	ad400044 	addi	r21,r21,1
 8000a08:	88bff804 	addi	r2,r17,-32
 8000a0c:	28830436 	bltu	r5,r2,8001620 <___vfprintf_internal_r+0xda0>
 8000a10:	100490ba 	slli	r2,r2,2
 8000a14:	01020034 	movhi	r4,2048
 8000a18:	21028a04 	addi	r4,r4,2600
 8000a1c:	1105883a 	add	r2,r2,r4
 8000a20:	10800017 	ldw	r2,0(r2)
 8000a24:	1000683a 	jmp	r2
 8000a28:	08001540 	call	800154 <__alt_mem_onchip_memory2_0+0x600154>
 8000a2c:	08001620 	cmpeqi	zero,at,88
 8000a30:	08001620 	cmpeqi	zero,at,88
 8000a34:	08001560 	cmpeqi	zero,at,85
 8000a38:	08001620 	cmpeqi	zero,at,88
 8000a3c:	08001620 	cmpeqi	zero,at,88
 8000a40:	08001620 	cmpeqi	zero,at,88
 8000a44:	08001620 	cmpeqi	zero,at,88
 8000a48:	08001620 	cmpeqi	zero,at,88
 8000a4c:	08001620 	cmpeqi	zero,at,88
 8000a50:	08000cd4 	ori	zero,at,51
 8000a54:	0800147c 	xorhi	zero,at,81
 8000a58:	08001620 	cmpeqi	zero,at,88
 8000a5c:	08000b9c 	xori	zero,at,46
 8000a60:	08000cfc 	xorhi	zero,at,51
 8000a64:	08001620 	cmpeqi	zero,at,88
 8000a68:	08000d3c 	xorhi	zero,at,52
 8000a6c:	08000d48 	cmpgei	zero,at,53
 8000a70:	08000d48 	cmpgei	zero,at,53
 8000a74:	08000d48 	cmpgei	zero,at,53
 8000a78:	08000d48 	cmpgei	zero,at,53
 8000a7c:	08000d48 	cmpgei	zero,at,53
 8000a80:	08000d48 	cmpgei	zero,at,53
 8000a84:	08000d48 	cmpgei	zero,at,53
 8000a88:	08000d48 	cmpgei	zero,at,53
 8000a8c:	08000d48 	cmpgei	zero,at,53
 8000a90:	08001620 	cmpeqi	zero,at,88
 8000a94:	08001620 	cmpeqi	zero,at,88
 8000a98:	08001620 	cmpeqi	zero,at,88
 8000a9c:	08001620 	cmpeqi	zero,at,88
 8000aa0:	08001620 	cmpeqi	zero,at,88
 8000aa4:	08001620 	cmpeqi	zero,at,88
 8000aa8:	08001620 	cmpeqi	zero,at,88
 8000aac:	08001620 	cmpeqi	zero,at,88
 8000ab0:	08001620 	cmpeqi	zero,at,88
 8000ab4:	08001620 	cmpeqi	zero,at,88
 8000ab8:	08000d7c 	xorhi	zero,at,53
 8000abc:	08000e38 	rdprs	zero,at,56
 8000ac0:	08001620 	cmpeqi	zero,at,88
 8000ac4:	08000e38 	rdprs	zero,at,56
 8000ac8:	08001620 	cmpeqi	zero,at,88
 8000acc:	08001620 	cmpeqi	zero,at,88
 8000ad0:	08001620 	cmpeqi	zero,at,88
 8000ad4:	08001620 	cmpeqi	zero,at,88
 8000ad8:	08000ed8 	cmpnei	zero,at,59
 8000adc:	08001620 	cmpeqi	zero,at,88
 8000ae0:	08001620 	cmpeqi	zero,at,88
 8000ae4:	08000ee4 	muli	zero,at,59
 8000ae8:	08001620 	cmpeqi	zero,at,88
 8000aec:	08001620 	cmpeqi	zero,at,88
 8000af0:	08001620 	cmpeqi	zero,at,88
 8000af4:	08001620 	cmpeqi	zero,at,88
 8000af8:	08001620 	cmpeqi	zero,at,88
 8000afc:	0800135c 	xori	zero,at,77
 8000b00:	08001620 	cmpeqi	zero,at,88
 8000b04:	08001620 	cmpeqi	zero,at,88
 8000b08:	080013bc 	xorhi	zero,at,78
 8000b0c:	08001620 	cmpeqi	zero,at,88
 8000b10:	08001620 	cmpeqi	zero,at,88
 8000b14:	08001620 	cmpeqi	zero,at,88
 8000b18:	08001620 	cmpeqi	zero,at,88
 8000b1c:	08001620 	cmpeqi	zero,at,88
 8000b20:	08001620 	cmpeqi	zero,at,88
 8000b24:	08001620 	cmpeqi	zero,at,88
 8000b28:	08001620 	cmpeqi	zero,at,88
 8000b2c:	08001620 	cmpeqi	zero,at,88
 8000b30:	08001620 	cmpeqi	zero,at,88
 8000b34:	080015cc 	andi	zero,at,87
 8000b38:	0800156c 	andhi	zero,at,85
 8000b3c:	08000e38 	rdprs	zero,at,56
 8000b40:	08000e38 	rdprs	zero,at,56
 8000b44:	08000e38 	rdprs	zero,at,56
 8000b48:	0800157c 	xorhi	zero,at,85
 8000b4c:	0800156c 	andhi	zero,at,85
 8000b50:	08001620 	cmpeqi	zero,at,88
 8000b54:	08001620 	cmpeqi	zero,at,88
 8000b58:	08001588 	cmpgei	zero,at,86
 8000b5c:	08001620 	cmpeqi	zero,at,88
 8000b60:	08001598 	cmpnei	zero,at,86
 8000b64:	0800146c 	andhi	zero,at,81
 8000b68:	08000ba8 	cmpgeui	zero,at,46
 8000b6c:	0800148c 	andi	zero,at,82
 8000b70:	08001620 	cmpeqi	zero,at,88
 8000b74:	08001498 	cmpnei	zero,at,82
 8000b78:	08001620 	cmpeqi	zero,at,88
 8000b7c:	080014f4 	orhi	zero,at,83
 8000b80:	08001620 	cmpeqi	zero,at,88
 8000b84:	08001620 	cmpeqi	zero,at,88
 8000b88:	08001504 	addi	zero,at,84
 8000b8c:	d9003117 	ldw	r4,196(sp)
 8000b90:	d8802d15 	stw	r2,180(sp)
 8000b94:	0109c83a 	sub	r4,zero,r4
 8000b98:	d9003115 	stw	r4,196(sp)
 8000b9c:	94800114 	ori	r18,r18,4
 8000ba0:	ac400007 	ldb	r17,0(r21)
 8000ba4:	003f9706 	br	8000a04 <__alt_data_end+0xf8000a04>
 8000ba8:	00800c04 	movi	r2,48
 8000bac:	d9002d17 	ldw	r4,180(sp)
 8000bb0:	d9402917 	ldw	r5,164(sp)
 8000bb4:	d8802705 	stb	r2,156(sp)
 8000bb8:	00801e04 	movi	r2,120
 8000bbc:	d8802745 	stb	r2,157(sp)
 8000bc0:	d8002785 	stb	zero,158(sp)
 8000bc4:	20c00104 	addi	r3,r4,4
 8000bc8:	24c00017 	ldw	r19,0(r4)
 8000bcc:	002d883a 	mov	r22,zero
 8000bd0:	90800094 	ori	r2,r18,2
 8000bd4:	28029a16 	blt	r5,zero,8001640 <___vfprintf_internal_r+0xdc0>
 8000bd8:	00bfdfc4 	movi	r2,-129
 8000bdc:	90a4703a 	and	r18,r18,r2
 8000be0:	d8c02d15 	stw	r3,180(sp)
 8000be4:	94800094 	ori	r18,r18,2
 8000be8:	9802871e 	bne	r19,zero,8001608 <___vfprintf_internal_r+0xd88>
 8000bec:	008200b4 	movhi	r2,2050
 8000bf0:	10a3e304 	addi	r2,r2,-28788
 8000bf4:	d8803915 	stw	r2,228(sp)
 8000bf8:	04401e04 	movi	r17,120
 8000bfc:	d8802917 	ldw	r2,164(sp)
 8000c00:	0039883a 	mov	fp,zero
 8000c04:	1001e926 	beq	r2,zero,80013ac <___vfprintf_internal_r+0xb2c>
 8000c08:	0027883a 	mov	r19,zero
 8000c0c:	002d883a 	mov	r22,zero
 8000c10:	00020506 	br	8001428 <___vfprintf_internal_r+0xba8>
 8000c14:	d9002c17 	ldw	r4,176(sp)
 8000c18:	b80b883a 	mov	r5,r23
 8000c1c:	8002b500 	call	8002b50 <__swsetup_r>
 8000c20:	1005ac1e 	bne	r2,zero,80022d4 <___vfprintf_internal_r+0x1a54>
 8000c24:	b880030b 	ldhu	r2,12(r23)
 8000c28:	00c00284 	movi	r3,10
 8000c2c:	1080068c 	andi	r2,r2,26
 8000c30:	10ff3c1e 	bne	r2,r3,8000924 <__alt_data_end+0xf8000924>
 8000c34:	b880038f 	ldh	r2,14(r23)
 8000c38:	103f3a16 	blt	r2,zero,8000924 <__alt_data_end+0xf8000924>
 8000c3c:	d9c02d17 	ldw	r7,180(sp)
 8000c40:	d9002c17 	ldw	r4,176(sp)
 8000c44:	a80d883a 	mov	r6,r21
 8000c48:	b80b883a 	mov	r5,r23
 8000c4c:	8002a940 	call	8002a94 <__sbprintf>
 8000c50:	00001106 	br	8000c98 <___vfprintf_internal_r+0x418>
 8000c54:	d9002c17 	ldw	r4,176(sp)
 8000c58:	d9801e04 	addi	r6,sp,120
 8000c5c:	b80b883a 	mov	r5,r23
 8000c60:	8007e7c0 	call	8007e7c <__sprint_r>
 8000c64:	1000081e 	bne	r2,zero,8000c88 <___vfprintf_internal_r+0x408>
 8000c68:	da000404 	addi	r8,sp,16
 8000c6c:	003f5306 	br	80009bc <__alt_data_end+0xf80009bc>
 8000c70:	d8802017 	ldw	r2,128(sp)
 8000c74:	10000426 	beq	r2,zero,8000c88 <___vfprintf_internal_r+0x408>
 8000c78:	d9002c17 	ldw	r4,176(sp)
 8000c7c:	d9801e04 	addi	r6,sp,120
 8000c80:	b80b883a 	mov	r5,r23
 8000c84:	8007e7c0 	call	8007e7c <__sprint_r>
 8000c88:	b880030b 	ldhu	r2,12(r23)
 8000c8c:	1080100c 	andi	r2,r2,64
 8000c90:	1005901e 	bne	r2,zero,80022d4 <___vfprintf_internal_r+0x1a54>
 8000c94:	d8802f17 	ldw	r2,188(sp)
 8000c98:	dfc04717 	ldw	ra,284(sp)
 8000c9c:	df004617 	ldw	fp,280(sp)
 8000ca0:	ddc04517 	ldw	r23,276(sp)
 8000ca4:	dd804417 	ldw	r22,272(sp)
 8000ca8:	dd404317 	ldw	r21,268(sp)
 8000cac:	dd004217 	ldw	r20,264(sp)
 8000cb0:	dcc04117 	ldw	r19,260(sp)
 8000cb4:	dc804017 	ldw	r18,256(sp)
 8000cb8:	dc403f17 	ldw	r17,252(sp)
 8000cbc:	dc003e17 	ldw	r16,248(sp)
 8000cc0:	dec04804 	addi	sp,sp,288
 8000cc4:	f800283a 	ret
 8000cc8:	d9002c17 	ldw	r4,176(sp)
 8000ccc:	8004b240 	call	8004b24 <__sinit>
 8000cd0:	003f0406 	br	80008e4 <__alt_data_end+0xf80008e4>
 8000cd4:	d8802d17 	ldw	r2,180(sp)
 8000cd8:	d9002d17 	ldw	r4,180(sp)
 8000cdc:	10800017 	ldw	r2,0(r2)
 8000ce0:	d8803115 	stw	r2,196(sp)
 8000ce4:	20800104 	addi	r2,r4,4
 8000ce8:	d9003117 	ldw	r4,196(sp)
 8000cec:	203fa716 	blt	r4,zero,8000b8c <__alt_data_end+0xf8000b8c>
 8000cf0:	d8802d15 	stw	r2,180(sp)
 8000cf4:	ac400007 	ldb	r17,0(r21)
 8000cf8:	003f4206 	br	8000a04 <__alt_data_end+0xf8000a04>
 8000cfc:	ac400007 	ldb	r17,0(r21)
 8000d00:	aac00044 	addi	r11,r21,1
 8000d04:	8a872826 	beq	r17,r10,80029a8 <___vfprintf_internal_r+0x2128>
 8000d08:	88bff404 	addi	r2,r17,-48
 8000d0c:	0009883a 	mov	r4,zero
 8000d10:	30867d36 	bltu	r6,r2,8002708 <___vfprintf_internal_r+0x1e88>
 8000d14:	5c400007 	ldb	r17,0(r11)
 8000d18:	210002a4 	muli	r4,r4,10
 8000d1c:	5d400044 	addi	r21,r11,1
 8000d20:	a817883a 	mov	r11,r21
 8000d24:	2089883a 	add	r4,r4,r2
 8000d28:	88bff404 	addi	r2,r17,-48
 8000d2c:	30bff92e 	bgeu	r6,r2,8000d14 <__alt_data_end+0xf8000d14>
 8000d30:	2005c916 	blt	r4,zero,8002458 <___vfprintf_internal_r+0x1bd8>
 8000d34:	d9002915 	stw	r4,164(sp)
 8000d38:	003f3306 	br	8000a08 <__alt_data_end+0xf8000a08>
 8000d3c:	94802014 	ori	r18,r18,128
 8000d40:	ac400007 	ldb	r17,0(r21)
 8000d44:	003f2f06 	br	8000a04 <__alt_data_end+0xf8000a04>
 8000d48:	a809883a 	mov	r4,r21
 8000d4c:	d8003115 	stw	zero,196(sp)
 8000d50:	88bff404 	addi	r2,r17,-48
 8000d54:	0017883a 	mov	r11,zero
 8000d58:	24400007 	ldb	r17,0(r4)
 8000d5c:	5ac002a4 	muli	r11,r11,10
 8000d60:	ad400044 	addi	r21,r21,1
 8000d64:	a809883a 	mov	r4,r21
 8000d68:	12d7883a 	add	r11,r2,r11
 8000d6c:	88bff404 	addi	r2,r17,-48
 8000d70:	30bff92e 	bgeu	r6,r2,8000d58 <__alt_data_end+0xf8000d58>
 8000d74:	dac03115 	stw	r11,196(sp)
 8000d78:	003f2306 	br	8000a08 <__alt_data_end+0xf8000a08>
 8000d7c:	18c03fcc 	andi	r3,r3,255
 8000d80:	18072b1e 	bne	r3,zero,8002a30 <___vfprintf_internal_r+0x21b0>
 8000d84:	94800414 	ori	r18,r18,16
 8000d88:	9080080c 	andi	r2,r18,32
 8000d8c:	10037b26 	beq	r2,zero,8001b7c <___vfprintf_internal_r+0x12fc>
 8000d90:	d9402d17 	ldw	r5,180(sp)
 8000d94:	28800117 	ldw	r2,4(r5)
 8000d98:	2cc00017 	ldw	r19,0(r5)
 8000d9c:	29400204 	addi	r5,r5,8
 8000da0:	d9402d15 	stw	r5,180(sp)
 8000da4:	102d883a 	mov	r22,r2
 8000da8:	10044b16 	blt	r2,zero,8001ed8 <___vfprintf_internal_r+0x1658>
 8000dac:	d9402917 	ldw	r5,164(sp)
 8000db0:	df002783 	ldbu	fp,158(sp)
 8000db4:	2803bc16 	blt	r5,zero,8001ca8 <___vfprintf_internal_r+0x1428>
 8000db8:	00ffdfc4 	movi	r3,-129
 8000dbc:	9d84b03a 	or	r2,r19,r22
 8000dc0:	90e4703a 	and	r18,r18,r3
 8000dc4:	10017726 	beq	r2,zero,80013a4 <___vfprintf_internal_r+0xb24>
 8000dc8:	b0038326 	beq	r22,zero,8001bd8 <___vfprintf_internal_r+0x1358>
 8000dcc:	dc402a15 	stw	r17,168(sp)
 8000dd0:	dc001e04 	addi	r16,sp,120
 8000dd4:	b023883a 	mov	r17,r22
 8000dd8:	402d883a 	mov	r22,r8
 8000ddc:	9809883a 	mov	r4,r19
 8000de0:	880b883a 	mov	r5,r17
 8000de4:	01800284 	movi	r6,10
 8000de8:	000f883a 	mov	r7,zero
 8000dec:	800a2740 	call	800a274 <__umoddi3>
 8000df0:	10800c04 	addi	r2,r2,48
 8000df4:	843fffc4 	addi	r16,r16,-1
 8000df8:	9809883a 	mov	r4,r19
 8000dfc:	880b883a 	mov	r5,r17
 8000e00:	80800005 	stb	r2,0(r16)
 8000e04:	01800284 	movi	r6,10
 8000e08:	000f883a 	mov	r7,zero
 8000e0c:	8009cfc0 	call	8009cfc <__udivdi3>
 8000e10:	1027883a 	mov	r19,r2
 8000e14:	10c4b03a 	or	r2,r2,r3
 8000e18:	1823883a 	mov	r17,r3
 8000e1c:	103fef1e 	bne	r2,zero,8000ddc <__alt_data_end+0xf8000ddc>
 8000e20:	d8c02817 	ldw	r3,160(sp)
 8000e24:	dc402a17 	ldw	r17,168(sp)
 8000e28:	b011883a 	mov	r8,r22
 8000e2c:	1c07c83a 	sub	r3,r3,r16
 8000e30:	d8c02e15 	stw	r3,184(sp)
 8000e34:	00005906 	br	8000f9c <___vfprintf_internal_r+0x71c>
 8000e38:	18c03fcc 	andi	r3,r3,255
 8000e3c:	1806fa1e 	bne	r3,zero,8002a28 <___vfprintf_internal_r+0x21a8>
 8000e40:	9080020c 	andi	r2,r18,8
 8000e44:	10048a26 	beq	r2,zero,8002070 <___vfprintf_internal_r+0x17f0>
 8000e48:	d8c02d17 	ldw	r3,180(sp)
 8000e4c:	d9002d17 	ldw	r4,180(sp)
 8000e50:	d9402d17 	ldw	r5,180(sp)
 8000e54:	18c00017 	ldw	r3,0(r3)
 8000e58:	21000117 	ldw	r4,4(r4)
 8000e5c:	29400204 	addi	r5,r5,8
 8000e60:	d8c03615 	stw	r3,216(sp)
 8000e64:	d9003815 	stw	r4,224(sp)
 8000e68:	d9402d15 	stw	r5,180(sp)
 8000e6c:	d9003617 	ldw	r4,216(sp)
 8000e70:	d9403817 	ldw	r5,224(sp)
 8000e74:	da003d15 	stw	r8,244(sp)
 8000e78:	04000044 	movi	r16,1
 8000e7c:	8007aa00 	call	8007aa0 <__fpclassifyd>
 8000e80:	da003d17 	ldw	r8,244(sp)
 8000e84:	14041f1e 	bne	r2,r16,8001f04 <___vfprintf_internal_r+0x1684>
 8000e88:	d9003617 	ldw	r4,216(sp)
 8000e8c:	d9403817 	ldw	r5,224(sp)
 8000e90:	000d883a 	mov	r6,zero
 8000e94:	000f883a 	mov	r7,zero
 8000e98:	800bc580 	call	800bc58 <__ledf2>
 8000e9c:	da003d17 	ldw	r8,244(sp)
 8000ea0:	1005be16 	blt	r2,zero,800259c <___vfprintf_internal_r+0x1d1c>
 8000ea4:	df002783 	ldbu	fp,158(sp)
 8000ea8:	008011c4 	movi	r2,71
 8000eac:	1445330e 	bge	r2,r17,800237c <___vfprintf_internal_r+0x1afc>
 8000eb0:	040200b4 	movhi	r16,2050
 8000eb4:	8423db04 	addi	r16,r16,-28820
 8000eb8:	00c000c4 	movi	r3,3
 8000ebc:	00bfdfc4 	movi	r2,-129
 8000ec0:	d8c02a15 	stw	r3,168(sp)
 8000ec4:	90a4703a 	and	r18,r18,r2
 8000ec8:	d8c02e15 	stw	r3,184(sp)
 8000ecc:	d8002915 	stw	zero,164(sp)
 8000ed0:	d8003215 	stw	zero,200(sp)
 8000ed4:	00003706 	br	8000fb4 <___vfprintf_internal_r+0x734>
 8000ed8:	94800214 	ori	r18,r18,8
 8000edc:	ac400007 	ldb	r17,0(r21)
 8000ee0:	003ec806 	br	8000a04 <__alt_data_end+0xf8000a04>
 8000ee4:	18c03fcc 	andi	r3,r3,255
 8000ee8:	1806db1e 	bne	r3,zero,8002a58 <___vfprintf_internal_r+0x21d8>
 8000eec:	94800414 	ori	r18,r18,16
 8000ef0:	9080080c 	andi	r2,r18,32
 8000ef4:	1002d826 	beq	r2,zero,8001a58 <___vfprintf_internal_r+0x11d8>
 8000ef8:	d9402d17 	ldw	r5,180(sp)
 8000efc:	d8c02917 	ldw	r3,164(sp)
 8000f00:	d8002785 	stb	zero,158(sp)
 8000f04:	28800204 	addi	r2,r5,8
 8000f08:	2cc00017 	ldw	r19,0(r5)
 8000f0c:	2d800117 	ldw	r22,4(r5)
 8000f10:	18048f16 	blt	r3,zero,8002150 <___vfprintf_internal_r+0x18d0>
 8000f14:	013fdfc4 	movi	r4,-129
 8000f18:	9d86b03a 	or	r3,r19,r22
 8000f1c:	d8802d15 	stw	r2,180(sp)
 8000f20:	9124703a 	and	r18,r18,r4
 8000f24:	1802d91e 	bne	r3,zero,8001a8c <___vfprintf_internal_r+0x120c>
 8000f28:	d8c02917 	ldw	r3,164(sp)
 8000f2c:	0039883a 	mov	fp,zero
 8000f30:	1805c326 	beq	r3,zero,8002640 <___vfprintf_internal_r+0x1dc0>
 8000f34:	0027883a 	mov	r19,zero
 8000f38:	002d883a 	mov	r22,zero
 8000f3c:	dc001e04 	addi	r16,sp,120
 8000f40:	9806d0fa 	srli	r3,r19,3
 8000f44:	b008977a 	slli	r4,r22,29
 8000f48:	b02cd0fa 	srli	r22,r22,3
 8000f4c:	9cc001cc 	andi	r19,r19,7
 8000f50:	98800c04 	addi	r2,r19,48
 8000f54:	843fffc4 	addi	r16,r16,-1
 8000f58:	20e6b03a 	or	r19,r4,r3
 8000f5c:	80800005 	stb	r2,0(r16)
 8000f60:	9d86b03a 	or	r3,r19,r22
 8000f64:	183ff61e 	bne	r3,zero,8000f40 <__alt_data_end+0xf8000f40>
 8000f68:	90c0004c 	andi	r3,r18,1
 8000f6c:	18013b26 	beq	r3,zero,800145c <___vfprintf_internal_r+0xbdc>
 8000f70:	10803fcc 	andi	r2,r2,255
 8000f74:	1080201c 	xori	r2,r2,128
 8000f78:	10bfe004 	addi	r2,r2,-128
 8000f7c:	00c00c04 	movi	r3,48
 8000f80:	10c13626 	beq	r2,r3,800145c <___vfprintf_internal_r+0xbdc>
 8000f84:	80ffffc5 	stb	r3,-1(r16)
 8000f88:	d8c02817 	ldw	r3,160(sp)
 8000f8c:	80bfffc4 	addi	r2,r16,-1
 8000f90:	1021883a 	mov	r16,r2
 8000f94:	1887c83a 	sub	r3,r3,r2
 8000f98:	d8c02e15 	stw	r3,184(sp)
 8000f9c:	d8802e17 	ldw	r2,184(sp)
 8000fa0:	d9002917 	ldw	r4,164(sp)
 8000fa4:	1100010e 	bge	r2,r4,8000fac <___vfprintf_internal_r+0x72c>
 8000fa8:	2005883a 	mov	r2,r4
 8000fac:	d8802a15 	stw	r2,168(sp)
 8000fb0:	d8003215 	stw	zero,200(sp)
 8000fb4:	e7003fcc 	andi	fp,fp,255
 8000fb8:	e700201c 	xori	fp,fp,128
 8000fbc:	e73fe004 	addi	fp,fp,-128
 8000fc0:	e0000326 	beq	fp,zero,8000fd0 <___vfprintf_internal_r+0x750>
 8000fc4:	d8c02a17 	ldw	r3,168(sp)
 8000fc8:	18c00044 	addi	r3,r3,1
 8000fcc:	d8c02a15 	stw	r3,168(sp)
 8000fd0:	90c0008c 	andi	r3,r18,2
 8000fd4:	d8c02b15 	stw	r3,172(sp)
 8000fd8:	18000326 	beq	r3,zero,8000fe8 <___vfprintf_internal_r+0x768>
 8000fdc:	d8c02a17 	ldw	r3,168(sp)
 8000fe0:	18c00084 	addi	r3,r3,2
 8000fe4:	d8c02a15 	stw	r3,168(sp)
 8000fe8:	90c0210c 	andi	r3,r18,132
 8000fec:	d8c03015 	stw	r3,192(sp)
 8000ff0:	1801a31e 	bne	r3,zero,8001680 <___vfprintf_internal_r+0xe00>
 8000ff4:	d9003117 	ldw	r4,196(sp)
 8000ff8:	d8c02a17 	ldw	r3,168(sp)
 8000ffc:	20e7c83a 	sub	r19,r4,r3
 8001000:	04c19f0e 	bge	zero,r19,8001680 <___vfprintf_internal_r+0xe00>
 8001004:	02400404 	movi	r9,16
 8001008:	d8c02017 	ldw	r3,128(sp)
 800100c:	d8801f17 	ldw	r2,124(sp)
 8001010:	4cc50d0e 	bge	r9,r19,8002448 <___vfprintf_internal_r+0x1bc8>
 8001014:	014200b4 	movhi	r5,2050
 8001018:	2963ee84 	addi	r5,r5,-28742
 800101c:	dc403b15 	stw	r17,236(sp)
 8001020:	d9403515 	stw	r5,212(sp)
 8001024:	9823883a 	mov	r17,r19
 8001028:	482d883a 	mov	r22,r9
 800102c:	9027883a 	mov	r19,r18
 8001030:	070001c4 	movi	fp,7
 8001034:	8025883a 	mov	r18,r16
 8001038:	dc002c17 	ldw	r16,176(sp)
 800103c:	00000306 	br	800104c <___vfprintf_internal_r+0x7cc>
 8001040:	8c7ffc04 	addi	r17,r17,-16
 8001044:	42000204 	addi	r8,r8,8
 8001048:	b440130e 	bge	r22,r17,8001098 <___vfprintf_internal_r+0x818>
 800104c:	010200b4 	movhi	r4,2050
 8001050:	18c00404 	addi	r3,r3,16
 8001054:	10800044 	addi	r2,r2,1
 8001058:	2123ee84 	addi	r4,r4,-28742
 800105c:	41000015 	stw	r4,0(r8)
 8001060:	45800115 	stw	r22,4(r8)
 8001064:	d8c02015 	stw	r3,128(sp)
 8001068:	d8801f15 	stw	r2,124(sp)
 800106c:	e0bff40e 	bge	fp,r2,8001040 <__alt_data_end+0xf8001040>
 8001070:	d9801e04 	addi	r6,sp,120
 8001074:	b80b883a 	mov	r5,r23
 8001078:	8009883a 	mov	r4,r16
 800107c:	8007e7c0 	call	8007e7c <__sprint_r>
 8001080:	103f011e 	bne	r2,zero,8000c88 <__alt_data_end+0xf8000c88>
 8001084:	8c7ffc04 	addi	r17,r17,-16
 8001088:	d8c02017 	ldw	r3,128(sp)
 800108c:	d8801f17 	ldw	r2,124(sp)
 8001090:	da000404 	addi	r8,sp,16
 8001094:	b47fed16 	blt	r22,r17,800104c <__alt_data_end+0xf800104c>
 8001098:	9021883a 	mov	r16,r18
 800109c:	9825883a 	mov	r18,r19
 80010a0:	8827883a 	mov	r19,r17
 80010a4:	dc403b17 	ldw	r17,236(sp)
 80010a8:	d9403517 	ldw	r5,212(sp)
 80010ac:	98c7883a 	add	r3,r19,r3
 80010b0:	10800044 	addi	r2,r2,1
 80010b4:	41400015 	stw	r5,0(r8)
 80010b8:	44c00115 	stw	r19,4(r8)
 80010bc:	d8c02015 	stw	r3,128(sp)
 80010c0:	d8801f15 	stw	r2,124(sp)
 80010c4:	010001c4 	movi	r4,7
 80010c8:	2082a316 	blt	r4,r2,8001b58 <___vfprintf_internal_r+0x12d8>
 80010cc:	df002787 	ldb	fp,158(sp)
 80010d0:	42000204 	addi	r8,r8,8
 80010d4:	e0000c26 	beq	fp,zero,8001108 <___vfprintf_internal_r+0x888>
 80010d8:	d8801f17 	ldw	r2,124(sp)
 80010dc:	d9002784 	addi	r4,sp,158
 80010e0:	18c00044 	addi	r3,r3,1
 80010e4:	10800044 	addi	r2,r2,1
 80010e8:	41000015 	stw	r4,0(r8)
 80010ec:	01000044 	movi	r4,1
 80010f0:	41000115 	stw	r4,4(r8)
 80010f4:	d8c02015 	stw	r3,128(sp)
 80010f8:	d8801f15 	stw	r2,124(sp)
 80010fc:	010001c4 	movi	r4,7
 8001100:	20823c16 	blt	r4,r2,80019f4 <___vfprintf_internal_r+0x1174>
 8001104:	42000204 	addi	r8,r8,8
 8001108:	d8802b17 	ldw	r2,172(sp)
 800110c:	10000c26 	beq	r2,zero,8001140 <___vfprintf_internal_r+0x8c0>
 8001110:	d8801f17 	ldw	r2,124(sp)
 8001114:	d9002704 	addi	r4,sp,156
 8001118:	18c00084 	addi	r3,r3,2
 800111c:	10800044 	addi	r2,r2,1
 8001120:	41000015 	stw	r4,0(r8)
 8001124:	01000084 	movi	r4,2
 8001128:	41000115 	stw	r4,4(r8)
 800112c:	d8c02015 	stw	r3,128(sp)
 8001130:	d8801f15 	stw	r2,124(sp)
 8001134:	010001c4 	movi	r4,7
 8001138:	20823616 	blt	r4,r2,8001a14 <___vfprintf_internal_r+0x1194>
 800113c:	42000204 	addi	r8,r8,8
 8001140:	d9003017 	ldw	r4,192(sp)
 8001144:	00802004 	movi	r2,128
 8001148:	20819926 	beq	r4,r2,80017b0 <___vfprintf_internal_r+0xf30>
 800114c:	d9402917 	ldw	r5,164(sp)
 8001150:	d8802e17 	ldw	r2,184(sp)
 8001154:	28adc83a 	sub	r22,r5,r2
 8001158:	0580310e 	bge	zero,r22,8001220 <___vfprintf_internal_r+0x9a0>
 800115c:	07000404 	movi	fp,16
 8001160:	d8801f17 	ldw	r2,124(sp)
 8001164:	e584140e 	bge	fp,r22,80021b8 <___vfprintf_internal_r+0x1938>
 8001168:	014200b4 	movhi	r5,2050
 800116c:	2963ea84 	addi	r5,r5,-28758
 8001170:	dc402915 	stw	r17,164(sp)
 8001174:	d9402b15 	stw	r5,172(sp)
 8001178:	b023883a 	mov	r17,r22
 800117c:	04c001c4 	movi	r19,7
 8001180:	a82d883a 	mov	r22,r21
 8001184:	902b883a 	mov	r21,r18
 8001188:	8025883a 	mov	r18,r16
 800118c:	dc002c17 	ldw	r16,176(sp)
 8001190:	00000306 	br	80011a0 <___vfprintf_internal_r+0x920>
 8001194:	8c7ffc04 	addi	r17,r17,-16
 8001198:	42000204 	addi	r8,r8,8
 800119c:	e440110e 	bge	fp,r17,80011e4 <___vfprintf_internal_r+0x964>
 80011a0:	18c00404 	addi	r3,r3,16
 80011a4:	10800044 	addi	r2,r2,1
 80011a8:	45000015 	stw	r20,0(r8)
 80011ac:	47000115 	stw	fp,4(r8)
 80011b0:	d8c02015 	stw	r3,128(sp)
 80011b4:	d8801f15 	stw	r2,124(sp)
 80011b8:	98bff60e 	bge	r19,r2,8001194 <__alt_data_end+0xf8001194>
 80011bc:	d9801e04 	addi	r6,sp,120
 80011c0:	b80b883a 	mov	r5,r23
 80011c4:	8009883a 	mov	r4,r16
 80011c8:	8007e7c0 	call	8007e7c <__sprint_r>
 80011cc:	103eae1e 	bne	r2,zero,8000c88 <__alt_data_end+0xf8000c88>
 80011d0:	8c7ffc04 	addi	r17,r17,-16
 80011d4:	d8c02017 	ldw	r3,128(sp)
 80011d8:	d8801f17 	ldw	r2,124(sp)
 80011dc:	da000404 	addi	r8,sp,16
 80011e0:	e47fef16 	blt	fp,r17,80011a0 <__alt_data_end+0xf80011a0>
 80011e4:	9021883a 	mov	r16,r18
 80011e8:	a825883a 	mov	r18,r21
 80011ec:	b02b883a 	mov	r21,r22
 80011f0:	882d883a 	mov	r22,r17
 80011f4:	dc402917 	ldw	r17,164(sp)
 80011f8:	d9002b17 	ldw	r4,172(sp)
 80011fc:	1d87883a 	add	r3,r3,r22
 8001200:	10800044 	addi	r2,r2,1
 8001204:	41000015 	stw	r4,0(r8)
 8001208:	45800115 	stw	r22,4(r8)
 800120c:	d8c02015 	stw	r3,128(sp)
 8001210:	d8801f15 	stw	r2,124(sp)
 8001214:	010001c4 	movi	r4,7
 8001218:	2081ee16 	blt	r4,r2,80019d4 <___vfprintf_internal_r+0x1154>
 800121c:	42000204 	addi	r8,r8,8
 8001220:	9080400c 	andi	r2,r18,256
 8001224:	1001181e 	bne	r2,zero,8001688 <___vfprintf_internal_r+0xe08>
 8001228:	d9402e17 	ldw	r5,184(sp)
 800122c:	d8801f17 	ldw	r2,124(sp)
 8001230:	44000015 	stw	r16,0(r8)
 8001234:	1947883a 	add	r3,r3,r5
 8001238:	10800044 	addi	r2,r2,1
 800123c:	41400115 	stw	r5,4(r8)
 8001240:	d8c02015 	stw	r3,128(sp)
 8001244:	d8801f15 	stw	r2,124(sp)
 8001248:	010001c4 	movi	r4,7
 800124c:	2081d316 	blt	r4,r2,800199c <___vfprintf_internal_r+0x111c>
 8001250:	42000204 	addi	r8,r8,8
 8001254:	9480010c 	andi	r18,r18,4
 8001258:	90003226 	beq	r18,zero,8001324 <___vfprintf_internal_r+0xaa4>
 800125c:	d9403117 	ldw	r5,196(sp)
 8001260:	d8802a17 	ldw	r2,168(sp)
 8001264:	28a1c83a 	sub	r16,r5,r2
 8001268:	04002e0e 	bge	zero,r16,8001324 <___vfprintf_internal_r+0xaa4>
 800126c:	04400404 	movi	r17,16
 8001270:	d8801f17 	ldw	r2,124(sp)
 8001274:	8c04a20e 	bge	r17,r16,8002500 <___vfprintf_internal_r+0x1c80>
 8001278:	014200b4 	movhi	r5,2050
 800127c:	2963ee84 	addi	r5,r5,-28742
 8001280:	d9403515 	stw	r5,212(sp)
 8001284:	048001c4 	movi	r18,7
 8001288:	dcc02c17 	ldw	r19,176(sp)
 800128c:	00000306 	br	800129c <___vfprintf_internal_r+0xa1c>
 8001290:	843ffc04 	addi	r16,r16,-16
 8001294:	42000204 	addi	r8,r8,8
 8001298:	8c00130e 	bge	r17,r16,80012e8 <___vfprintf_internal_r+0xa68>
 800129c:	010200b4 	movhi	r4,2050
 80012a0:	18c00404 	addi	r3,r3,16
 80012a4:	10800044 	addi	r2,r2,1
 80012a8:	2123ee84 	addi	r4,r4,-28742
 80012ac:	41000015 	stw	r4,0(r8)
 80012b0:	44400115 	stw	r17,4(r8)
 80012b4:	d8c02015 	stw	r3,128(sp)
 80012b8:	d8801f15 	stw	r2,124(sp)
 80012bc:	90bff40e 	bge	r18,r2,8001290 <__alt_data_end+0xf8001290>
 80012c0:	d9801e04 	addi	r6,sp,120
 80012c4:	b80b883a 	mov	r5,r23
 80012c8:	9809883a 	mov	r4,r19
 80012cc:	8007e7c0 	call	8007e7c <__sprint_r>
 80012d0:	103e6d1e 	bne	r2,zero,8000c88 <__alt_data_end+0xf8000c88>
 80012d4:	843ffc04 	addi	r16,r16,-16
 80012d8:	d8c02017 	ldw	r3,128(sp)
 80012dc:	d8801f17 	ldw	r2,124(sp)
 80012e0:	da000404 	addi	r8,sp,16
 80012e4:	8c3fed16 	blt	r17,r16,800129c <__alt_data_end+0xf800129c>
 80012e8:	d9403517 	ldw	r5,212(sp)
 80012ec:	1c07883a 	add	r3,r3,r16
 80012f0:	10800044 	addi	r2,r2,1
 80012f4:	41400015 	stw	r5,0(r8)
 80012f8:	44000115 	stw	r16,4(r8)
 80012fc:	d8c02015 	stw	r3,128(sp)
 8001300:	d8801f15 	stw	r2,124(sp)
 8001304:	010001c4 	movi	r4,7
 8001308:	2080060e 	bge	r4,r2,8001324 <___vfprintf_internal_r+0xaa4>
 800130c:	d9002c17 	ldw	r4,176(sp)
 8001310:	d9801e04 	addi	r6,sp,120
 8001314:	b80b883a 	mov	r5,r23
 8001318:	8007e7c0 	call	8007e7c <__sprint_r>
 800131c:	103e5a1e 	bne	r2,zero,8000c88 <__alt_data_end+0xf8000c88>
 8001320:	d8c02017 	ldw	r3,128(sp)
 8001324:	d8803117 	ldw	r2,196(sp)
 8001328:	d9002a17 	ldw	r4,168(sp)
 800132c:	1100010e 	bge	r2,r4,8001334 <___vfprintf_internal_r+0xab4>
 8001330:	2005883a 	mov	r2,r4
 8001334:	d9402f17 	ldw	r5,188(sp)
 8001338:	288b883a 	add	r5,r5,r2
 800133c:	d9402f15 	stw	r5,188(sp)
 8001340:	18019e1e 	bne	r3,zero,80019bc <___vfprintf_internal_r+0x113c>
 8001344:	a8800007 	ldb	r2,0(r21)
 8001348:	d8001f15 	stw	zero,124(sp)
 800134c:	da000404 	addi	r8,sp,16
 8001350:	103d851e 	bne	r2,zero,8000968 <__alt_data_end+0xf8000968>
 8001354:	a821883a 	mov	r16,r21
 8001358:	003d9b06 	br	80009c8 <__alt_data_end+0xf80009c8>
 800135c:	18c03fcc 	andi	r3,r3,255
 8001360:	1805c11e 	bne	r3,zero,8002a68 <___vfprintf_internal_r+0x21e8>
 8001364:	94800414 	ori	r18,r18,16
 8001368:	9080080c 	andi	r2,r18,32
 800136c:	10020c26 	beq	r2,zero,8001ba0 <___vfprintf_internal_r+0x1320>
 8001370:	d8802d17 	ldw	r2,180(sp)
 8001374:	d9002917 	ldw	r4,164(sp)
 8001378:	d8002785 	stb	zero,158(sp)
 800137c:	10c00204 	addi	r3,r2,8
 8001380:	14c00017 	ldw	r19,0(r2)
 8001384:	15800117 	ldw	r22,4(r2)
 8001388:	20040f16 	blt	r4,zero,80023c8 <___vfprintf_internal_r+0x1b48>
 800138c:	013fdfc4 	movi	r4,-129
 8001390:	9d84b03a 	or	r2,r19,r22
 8001394:	d8c02d15 	stw	r3,180(sp)
 8001398:	9124703a 	and	r18,r18,r4
 800139c:	0039883a 	mov	fp,zero
 80013a0:	103e891e 	bne	r2,zero,8000dc8 <__alt_data_end+0xf8000dc8>
 80013a4:	d9002917 	ldw	r4,164(sp)
 80013a8:	2002c11e 	bne	r4,zero,8001eb0 <___vfprintf_internal_r+0x1630>
 80013ac:	d8002915 	stw	zero,164(sp)
 80013b0:	d8002e15 	stw	zero,184(sp)
 80013b4:	dc001e04 	addi	r16,sp,120
 80013b8:	003ef806 	br	8000f9c <__alt_data_end+0xf8000f9c>
 80013bc:	18c03fcc 	andi	r3,r3,255
 80013c0:	18059d1e 	bne	r3,zero,8002a38 <___vfprintf_internal_r+0x21b8>
 80013c4:	014200b4 	movhi	r5,2050
 80013c8:	2963de04 	addi	r5,r5,-28808
 80013cc:	d9403915 	stw	r5,228(sp)
 80013d0:	9080080c 	andi	r2,r18,32
 80013d4:	10005226 	beq	r2,zero,8001520 <___vfprintf_internal_r+0xca0>
 80013d8:	d8802d17 	ldw	r2,180(sp)
 80013dc:	14c00017 	ldw	r19,0(r2)
 80013e0:	15800117 	ldw	r22,4(r2)
 80013e4:	10800204 	addi	r2,r2,8
 80013e8:	d8802d15 	stw	r2,180(sp)
 80013ec:	9080004c 	andi	r2,r18,1
 80013f0:	10019026 	beq	r2,zero,8001a34 <___vfprintf_internal_r+0x11b4>
 80013f4:	9d84b03a 	or	r2,r19,r22
 80013f8:	10036926 	beq	r2,zero,80021a0 <___vfprintf_internal_r+0x1920>
 80013fc:	d8c02917 	ldw	r3,164(sp)
 8001400:	00800c04 	movi	r2,48
 8001404:	d8802705 	stb	r2,156(sp)
 8001408:	dc402745 	stb	r17,157(sp)
 800140c:	d8002785 	stb	zero,158(sp)
 8001410:	90800094 	ori	r2,r18,2
 8001414:	18045d16 	blt	r3,zero,800258c <___vfprintf_internal_r+0x1d0c>
 8001418:	00bfdfc4 	movi	r2,-129
 800141c:	90a4703a 	and	r18,r18,r2
 8001420:	94800094 	ori	r18,r18,2
 8001424:	0039883a 	mov	fp,zero
 8001428:	d9003917 	ldw	r4,228(sp)
 800142c:	dc001e04 	addi	r16,sp,120
 8001430:	988003cc 	andi	r2,r19,15
 8001434:	b006973a 	slli	r3,r22,28
 8001438:	2085883a 	add	r2,r4,r2
 800143c:	9826d13a 	srli	r19,r19,4
 8001440:	10800003 	ldbu	r2,0(r2)
 8001444:	b02cd13a 	srli	r22,r22,4
 8001448:	843fffc4 	addi	r16,r16,-1
 800144c:	1ce6b03a 	or	r19,r3,r19
 8001450:	80800005 	stb	r2,0(r16)
 8001454:	9d84b03a 	or	r2,r19,r22
 8001458:	103ff51e 	bne	r2,zero,8001430 <__alt_data_end+0xf8001430>
 800145c:	d8c02817 	ldw	r3,160(sp)
 8001460:	1c07c83a 	sub	r3,r3,r16
 8001464:	d8c02e15 	stw	r3,184(sp)
 8001468:	003ecc06 	br	8000f9c <__alt_data_end+0xf8000f9c>
 800146c:	18c03fcc 	andi	r3,r3,255
 8001470:	183e9f26 	beq	r3,zero,8000ef0 <__alt_data_end+0xf8000ef0>
 8001474:	d9c02785 	stb	r7,158(sp)
 8001478:	003e9d06 	br	8000ef0 <__alt_data_end+0xf8000ef0>
 800147c:	00c00044 	movi	r3,1
 8001480:	01c00ac4 	movi	r7,43
 8001484:	ac400007 	ldb	r17,0(r21)
 8001488:	003d5e06 	br	8000a04 <__alt_data_end+0xf8000a04>
 800148c:	94800814 	ori	r18,r18,32
 8001490:	ac400007 	ldb	r17,0(r21)
 8001494:	003d5b06 	br	8000a04 <__alt_data_end+0xf8000a04>
 8001498:	d8c02d17 	ldw	r3,180(sp)
 800149c:	d8002785 	stb	zero,158(sp)
 80014a0:	1c000017 	ldw	r16,0(r3)
 80014a4:	1cc00104 	addi	r19,r3,4
 80014a8:	80041926 	beq	r16,zero,8002510 <___vfprintf_internal_r+0x1c90>
 80014ac:	d9002917 	ldw	r4,164(sp)
 80014b0:	2003d016 	blt	r4,zero,80023f4 <___vfprintf_internal_r+0x1b74>
 80014b4:	200d883a 	mov	r6,r4
 80014b8:	000b883a 	mov	r5,zero
 80014bc:	8009883a 	mov	r4,r16
 80014c0:	da003d15 	stw	r8,244(sp)
 80014c4:	80060900 	call	8006090 <memchr>
 80014c8:	da003d17 	ldw	r8,244(sp)
 80014cc:	10045426 	beq	r2,zero,8002620 <___vfprintf_internal_r+0x1da0>
 80014d0:	1405c83a 	sub	r2,r2,r16
 80014d4:	d8802e15 	stw	r2,184(sp)
 80014d8:	1003cc16 	blt	r2,zero,800240c <___vfprintf_internal_r+0x1b8c>
 80014dc:	df002783 	ldbu	fp,158(sp)
 80014e0:	d8802a15 	stw	r2,168(sp)
 80014e4:	dcc02d15 	stw	r19,180(sp)
 80014e8:	d8002915 	stw	zero,164(sp)
 80014ec:	d8003215 	stw	zero,200(sp)
 80014f0:	003eb006 	br	8000fb4 <__alt_data_end+0xf8000fb4>
 80014f4:	18c03fcc 	andi	r3,r3,255
 80014f8:	183f9b26 	beq	r3,zero,8001368 <__alt_data_end+0xf8001368>
 80014fc:	d9c02785 	stb	r7,158(sp)
 8001500:	003f9906 	br	8001368 <__alt_data_end+0xf8001368>
 8001504:	18c03fcc 	andi	r3,r3,255
 8001508:	1805551e 	bne	r3,zero,8002a60 <___vfprintf_internal_r+0x21e0>
 800150c:	014200b4 	movhi	r5,2050
 8001510:	2963e304 	addi	r5,r5,-28788
 8001514:	d9403915 	stw	r5,228(sp)
 8001518:	9080080c 	andi	r2,r18,32
 800151c:	103fae1e 	bne	r2,zero,80013d8 <__alt_data_end+0xf80013d8>
 8001520:	9080040c 	andi	r2,r18,16
 8001524:	1002de26 	beq	r2,zero,80020a0 <___vfprintf_internal_r+0x1820>
 8001528:	d8c02d17 	ldw	r3,180(sp)
 800152c:	002d883a 	mov	r22,zero
 8001530:	1cc00017 	ldw	r19,0(r3)
 8001534:	18c00104 	addi	r3,r3,4
 8001538:	d8c02d15 	stw	r3,180(sp)
 800153c:	003fab06 	br	80013ec <__alt_data_end+0xf80013ec>
 8001540:	38803fcc 	andi	r2,r7,255
 8001544:	1080201c 	xori	r2,r2,128
 8001548:	10bfe004 	addi	r2,r2,-128
 800154c:	1002d21e 	bne	r2,zero,8002098 <___vfprintf_internal_r+0x1818>
 8001550:	00c00044 	movi	r3,1
 8001554:	01c00804 	movi	r7,32
 8001558:	ac400007 	ldb	r17,0(r21)
 800155c:	003d2906 	br	8000a04 <__alt_data_end+0xf8000a04>
 8001560:	94800054 	ori	r18,r18,1
 8001564:	ac400007 	ldb	r17,0(r21)
 8001568:	003d2606 	br	8000a04 <__alt_data_end+0xf8000a04>
 800156c:	18c03fcc 	andi	r3,r3,255
 8001570:	183e0526 	beq	r3,zero,8000d88 <__alt_data_end+0xf8000d88>
 8001574:	d9c02785 	stb	r7,158(sp)
 8001578:	003e0306 	br	8000d88 <__alt_data_end+0xf8000d88>
 800157c:	94801014 	ori	r18,r18,64
 8001580:	ac400007 	ldb	r17,0(r21)
 8001584:	003d1f06 	br	8000a04 <__alt_data_end+0xf8000a04>
 8001588:	ac400007 	ldb	r17,0(r21)
 800158c:	8a438726 	beq	r17,r9,80023ac <___vfprintf_internal_r+0x1b2c>
 8001590:	94800414 	ori	r18,r18,16
 8001594:	003d1b06 	br	8000a04 <__alt_data_end+0xf8000a04>
 8001598:	18c03fcc 	andi	r3,r3,255
 800159c:	1805341e 	bne	r3,zero,8002a70 <___vfprintf_internal_r+0x21f0>
 80015a0:	9080080c 	andi	r2,r18,32
 80015a4:	1002cd26 	beq	r2,zero,80020dc <___vfprintf_internal_r+0x185c>
 80015a8:	d9402d17 	ldw	r5,180(sp)
 80015ac:	d9002f17 	ldw	r4,188(sp)
 80015b0:	28800017 	ldw	r2,0(r5)
 80015b4:	2007d7fa 	srai	r3,r4,31
 80015b8:	29400104 	addi	r5,r5,4
 80015bc:	d9402d15 	stw	r5,180(sp)
 80015c0:	11000015 	stw	r4,0(r2)
 80015c4:	10c00115 	stw	r3,4(r2)
 80015c8:	003ce506 	br	8000960 <__alt_data_end+0xf8000960>
 80015cc:	d8c02d17 	ldw	r3,180(sp)
 80015d0:	d9002d17 	ldw	r4,180(sp)
 80015d4:	d8002785 	stb	zero,158(sp)
 80015d8:	18800017 	ldw	r2,0(r3)
 80015dc:	21000104 	addi	r4,r4,4
 80015e0:	00c00044 	movi	r3,1
 80015e4:	d8c02a15 	stw	r3,168(sp)
 80015e8:	d8801405 	stb	r2,80(sp)
 80015ec:	d9002d15 	stw	r4,180(sp)
 80015f0:	d8c02e15 	stw	r3,184(sp)
 80015f4:	d8002915 	stw	zero,164(sp)
 80015f8:	d8003215 	stw	zero,200(sp)
 80015fc:	dc001404 	addi	r16,sp,80
 8001600:	0039883a 	mov	fp,zero
 8001604:	003e7206 	br	8000fd0 <__alt_data_end+0xf8000fd0>
 8001608:	010200b4 	movhi	r4,2050
 800160c:	2123e304 	addi	r4,r4,-28788
 8001610:	0039883a 	mov	fp,zero
 8001614:	d9003915 	stw	r4,228(sp)
 8001618:	04401e04 	movi	r17,120
 800161c:	003f8206 	br	8001428 <__alt_data_end+0xf8001428>
 8001620:	18c03fcc 	andi	r3,r3,255
 8001624:	1805061e 	bne	r3,zero,8002a40 <___vfprintf_internal_r+0x21c0>
 8001628:	883d9126 	beq	r17,zero,8000c70 <__alt_data_end+0xf8000c70>
 800162c:	00c00044 	movi	r3,1
 8001630:	d8c02a15 	stw	r3,168(sp)
 8001634:	dc401405 	stb	r17,80(sp)
 8001638:	d8002785 	stb	zero,158(sp)
 800163c:	003fec06 	br	80015f0 <__alt_data_end+0xf80015f0>
 8001640:	014200b4 	movhi	r5,2050
 8001644:	2963e304 	addi	r5,r5,-28788
 8001648:	d9403915 	stw	r5,228(sp)
 800164c:	d8c02d15 	stw	r3,180(sp)
 8001650:	1025883a 	mov	r18,r2
 8001654:	04401e04 	movi	r17,120
 8001658:	9d84b03a 	or	r2,r19,r22
 800165c:	1000fc1e 	bne	r2,zero,8001a50 <___vfprintf_internal_r+0x11d0>
 8001660:	0039883a 	mov	fp,zero
 8001664:	00800084 	movi	r2,2
 8001668:	10803fcc 	andi	r2,r2,255
 800166c:	00c00044 	movi	r3,1
 8001670:	10c20f26 	beq	r2,r3,8001eb0 <___vfprintf_internal_r+0x1630>
 8001674:	00c00084 	movi	r3,2
 8001678:	10fd6326 	beq	r2,r3,8000c08 <__alt_data_end+0xf8000c08>
 800167c:	003e2d06 	br	8000f34 <__alt_data_end+0xf8000f34>
 8001680:	d8c02017 	ldw	r3,128(sp)
 8001684:	003e9306 	br	80010d4 <__alt_data_end+0xf80010d4>
 8001688:	00801944 	movi	r2,101
 800168c:	14407e0e 	bge	r2,r17,8001888 <___vfprintf_internal_r+0x1008>
 8001690:	d9003617 	ldw	r4,216(sp)
 8001694:	d9403817 	ldw	r5,224(sp)
 8001698:	000d883a 	mov	r6,zero
 800169c:	000f883a 	mov	r7,zero
 80016a0:	d8c03c15 	stw	r3,240(sp)
 80016a4:	da003d15 	stw	r8,244(sp)
 80016a8:	800baf40 	call	800baf4 <__eqdf2>
 80016ac:	d8c03c17 	ldw	r3,240(sp)
 80016b0:	da003d17 	ldw	r8,244(sp)
 80016b4:	1000f71e 	bne	r2,zero,8001a94 <___vfprintf_internal_r+0x1214>
 80016b8:	d8801f17 	ldw	r2,124(sp)
 80016bc:	010200b4 	movhi	r4,2050
 80016c0:	2123ea04 	addi	r4,r4,-28760
 80016c4:	18c00044 	addi	r3,r3,1
 80016c8:	10800044 	addi	r2,r2,1
 80016cc:	41000015 	stw	r4,0(r8)
 80016d0:	01000044 	movi	r4,1
 80016d4:	41000115 	stw	r4,4(r8)
 80016d8:	d8c02015 	stw	r3,128(sp)
 80016dc:	d8801f15 	stw	r2,124(sp)
 80016e0:	010001c4 	movi	r4,7
 80016e4:	2082b816 	blt	r4,r2,80021c8 <___vfprintf_internal_r+0x1948>
 80016e8:	42000204 	addi	r8,r8,8
 80016ec:	d8802617 	ldw	r2,152(sp)
 80016f0:	d9403317 	ldw	r5,204(sp)
 80016f4:	11400216 	blt	r2,r5,8001700 <___vfprintf_internal_r+0xe80>
 80016f8:	9080004c 	andi	r2,r18,1
 80016fc:	103ed526 	beq	r2,zero,8001254 <__alt_data_end+0xf8001254>
 8001700:	d8803717 	ldw	r2,220(sp)
 8001704:	d9003417 	ldw	r4,208(sp)
 8001708:	d9403717 	ldw	r5,220(sp)
 800170c:	1887883a 	add	r3,r3,r2
 8001710:	d8801f17 	ldw	r2,124(sp)
 8001714:	41000015 	stw	r4,0(r8)
 8001718:	41400115 	stw	r5,4(r8)
 800171c:	10800044 	addi	r2,r2,1
 8001720:	d8c02015 	stw	r3,128(sp)
 8001724:	d8801f15 	stw	r2,124(sp)
 8001728:	010001c4 	movi	r4,7
 800172c:	20832916 	blt	r4,r2,80023d4 <___vfprintf_internal_r+0x1b54>
 8001730:	42000204 	addi	r8,r8,8
 8001734:	d8803317 	ldw	r2,204(sp)
 8001738:	143fffc4 	addi	r16,r2,-1
 800173c:	043ec50e 	bge	zero,r16,8001254 <__alt_data_end+0xf8001254>
 8001740:	04400404 	movi	r17,16
 8001744:	d8801f17 	ldw	r2,124(sp)
 8001748:	8c00880e 	bge	r17,r16,800196c <___vfprintf_internal_r+0x10ec>
 800174c:	014200b4 	movhi	r5,2050
 8001750:	2963ea84 	addi	r5,r5,-28758
 8001754:	d9402b15 	stw	r5,172(sp)
 8001758:	058001c4 	movi	r22,7
 800175c:	dcc02c17 	ldw	r19,176(sp)
 8001760:	00000306 	br	8001770 <___vfprintf_internal_r+0xef0>
 8001764:	42000204 	addi	r8,r8,8
 8001768:	843ffc04 	addi	r16,r16,-16
 800176c:	8c00820e 	bge	r17,r16,8001978 <___vfprintf_internal_r+0x10f8>
 8001770:	18c00404 	addi	r3,r3,16
 8001774:	10800044 	addi	r2,r2,1
 8001778:	45000015 	stw	r20,0(r8)
 800177c:	44400115 	stw	r17,4(r8)
 8001780:	d8c02015 	stw	r3,128(sp)
 8001784:	d8801f15 	stw	r2,124(sp)
 8001788:	b0bff60e 	bge	r22,r2,8001764 <__alt_data_end+0xf8001764>
 800178c:	d9801e04 	addi	r6,sp,120
 8001790:	b80b883a 	mov	r5,r23
 8001794:	9809883a 	mov	r4,r19
 8001798:	8007e7c0 	call	8007e7c <__sprint_r>
 800179c:	103d3a1e 	bne	r2,zero,8000c88 <__alt_data_end+0xf8000c88>
 80017a0:	d8c02017 	ldw	r3,128(sp)
 80017a4:	d8801f17 	ldw	r2,124(sp)
 80017a8:	da000404 	addi	r8,sp,16
 80017ac:	003fee06 	br	8001768 <__alt_data_end+0xf8001768>
 80017b0:	d9403117 	ldw	r5,196(sp)
 80017b4:	d8802a17 	ldw	r2,168(sp)
 80017b8:	28adc83a 	sub	r22,r5,r2
 80017bc:	05be630e 	bge	zero,r22,800114c <__alt_data_end+0xf800114c>
 80017c0:	07000404 	movi	fp,16
 80017c4:	d8801f17 	ldw	r2,124(sp)
 80017c8:	e5838f0e 	bge	fp,r22,8002608 <___vfprintf_internal_r+0x1d88>
 80017cc:	014200b4 	movhi	r5,2050
 80017d0:	2963ea84 	addi	r5,r5,-28758
 80017d4:	dc403015 	stw	r17,192(sp)
 80017d8:	d9402b15 	stw	r5,172(sp)
 80017dc:	b023883a 	mov	r17,r22
 80017e0:	04c001c4 	movi	r19,7
 80017e4:	a82d883a 	mov	r22,r21
 80017e8:	902b883a 	mov	r21,r18
 80017ec:	8025883a 	mov	r18,r16
 80017f0:	dc002c17 	ldw	r16,176(sp)
 80017f4:	00000306 	br	8001804 <___vfprintf_internal_r+0xf84>
 80017f8:	8c7ffc04 	addi	r17,r17,-16
 80017fc:	42000204 	addi	r8,r8,8
 8001800:	e440110e 	bge	fp,r17,8001848 <___vfprintf_internal_r+0xfc8>
 8001804:	18c00404 	addi	r3,r3,16
 8001808:	10800044 	addi	r2,r2,1
 800180c:	45000015 	stw	r20,0(r8)
 8001810:	47000115 	stw	fp,4(r8)
 8001814:	d8c02015 	stw	r3,128(sp)
 8001818:	d8801f15 	stw	r2,124(sp)
 800181c:	98bff60e 	bge	r19,r2,80017f8 <__alt_data_end+0xf80017f8>
 8001820:	d9801e04 	addi	r6,sp,120
 8001824:	b80b883a 	mov	r5,r23
 8001828:	8009883a 	mov	r4,r16
 800182c:	8007e7c0 	call	8007e7c <__sprint_r>
 8001830:	103d151e 	bne	r2,zero,8000c88 <__alt_data_end+0xf8000c88>
 8001834:	8c7ffc04 	addi	r17,r17,-16
 8001838:	d8c02017 	ldw	r3,128(sp)
 800183c:	d8801f17 	ldw	r2,124(sp)
 8001840:	da000404 	addi	r8,sp,16
 8001844:	e47fef16 	blt	fp,r17,8001804 <__alt_data_end+0xf8001804>
 8001848:	9021883a 	mov	r16,r18
 800184c:	a825883a 	mov	r18,r21
 8001850:	b02b883a 	mov	r21,r22
 8001854:	882d883a 	mov	r22,r17
 8001858:	dc403017 	ldw	r17,192(sp)
 800185c:	d9002b17 	ldw	r4,172(sp)
 8001860:	1d87883a 	add	r3,r3,r22
 8001864:	10800044 	addi	r2,r2,1
 8001868:	41000015 	stw	r4,0(r8)
 800186c:	45800115 	stw	r22,4(r8)
 8001870:	d8c02015 	stw	r3,128(sp)
 8001874:	d8801f15 	stw	r2,124(sp)
 8001878:	010001c4 	movi	r4,7
 800187c:	20818e16 	blt	r4,r2,8001eb8 <___vfprintf_internal_r+0x1638>
 8001880:	42000204 	addi	r8,r8,8
 8001884:	003e3106 	br	800114c <__alt_data_end+0xf800114c>
 8001888:	d9403317 	ldw	r5,204(sp)
 800188c:	00800044 	movi	r2,1
 8001890:	18c00044 	addi	r3,r3,1
 8001894:	1141530e 	bge	r2,r5,8001de4 <___vfprintf_internal_r+0x1564>
 8001898:	dc401f17 	ldw	r17,124(sp)
 800189c:	00800044 	movi	r2,1
 80018a0:	40800115 	stw	r2,4(r8)
 80018a4:	8c400044 	addi	r17,r17,1
 80018a8:	44000015 	stw	r16,0(r8)
 80018ac:	d8c02015 	stw	r3,128(sp)
 80018b0:	dc401f15 	stw	r17,124(sp)
 80018b4:	008001c4 	movi	r2,7
 80018b8:	14416b16 	blt	r2,r17,8001e68 <___vfprintf_internal_r+0x15e8>
 80018bc:	42000204 	addi	r8,r8,8
 80018c0:	d8803717 	ldw	r2,220(sp)
 80018c4:	d9003417 	ldw	r4,208(sp)
 80018c8:	8c400044 	addi	r17,r17,1
 80018cc:	10c7883a 	add	r3,r2,r3
 80018d0:	40800115 	stw	r2,4(r8)
 80018d4:	41000015 	stw	r4,0(r8)
 80018d8:	d8c02015 	stw	r3,128(sp)
 80018dc:	dc401f15 	stw	r17,124(sp)
 80018e0:	008001c4 	movi	r2,7
 80018e4:	14416916 	blt	r2,r17,8001e8c <___vfprintf_internal_r+0x160c>
 80018e8:	45800204 	addi	r22,r8,8
 80018ec:	d9003617 	ldw	r4,216(sp)
 80018f0:	d9403817 	ldw	r5,224(sp)
 80018f4:	000d883a 	mov	r6,zero
 80018f8:	000f883a 	mov	r7,zero
 80018fc:	d8c03c15 	stw	r3,240(sp)
 8001900:	800baf40 	call	800baf4 <__eqdf2>
 8001904:	d8c03c17 	ldw	r3,240(sp)
 8001908:	1000bc26 	beq	r2,zero,8001bfc <___vfprintf_internal_r+0x137c>
 800190c:	d9403317 	ldw	r5,204(sp)
 8001910:	84000044 	addi	r16,r16,1
 8001914:	8c400044 	addi	r17,r17,1
 8001918:	28bfffc4 	addi	r2,r5,-1
 800191c:	1887883a 	add	r3,r3,r2
 8001920:	b0800115 	stw	r2,4(r22)
 8001924:	b4000015 	stw	r16,0(r22)
 8001928:	d8c02015 	stw	r3,128(sp)
 800192c:	dc401f15 	stw	r17,124(sp)
 8001930:	008001c4 	movi	r2,7
 8001934:	14414316 	blt	r2,r17,8001e44 <___vfprintf_internal_r+0x15c4>
 8001938:	b5800204 	addi	r22,r22,8
 800193c:	d9003a17 	ldw	r4,232(sp)
 8001940:	df0022c4 	addi	fp,sp,139
 8001944:	8c400044 	addi	r17,r17,1
 8001948:	20c7883a 	add	r3,r4,r3
 800194c:	b7000015 	stw	fp,0(r22)
 8001950:	b1000115 	stw	r4,4(r22)
 8001954:	d8c02015 	stw	r3,128(sp)
 8001958:	dc401f15 	stw	r17,124(sp)
 800195c:	008001c4 	movi	r2,7
 8001960:	14400e16 	blt	r2,r17,800199c <___vfprintf_internal_r+0x111c>
 8001964:	b2000204 	addi	r8,r22,8
 8001968:	003e3a06 	br	8001254 <__alt_data_end+0xf8001254>
 800196c:	010200b4 	movhi	r4,2050
 8001970:	2123ea84 	addi	r4,r4,-28758
 8001974:	d9002b15 	stw	r4,172(sp)
 8001978:	d9002b17 	ldw	r4,172(sp)
 800197c:	1c07883a 	add	r3,r3,r16
 8001980:	44000115 	stw	r16,4(r8)
 8001984:	41000015 	stw	r4,0(r8)
 8001988:	10800044 	addi	r2,r2,1
 800198c:	d8c02015 	stw	r3,128(sp)
 8001990:	d8801f15 	stw	r2,124(sp)
 8001994:	010001c4 	movi	r4,7
 8001998:	20be2d0e 	bge	r4,r2,8001250 <__alt_data_end+0xf8001250>
 800199c:	d9002c17 	ldw	r4,176(sp)
 80019a0:	d9801e04 	addi	r6,sp,120
 80019a4:	b80b883a 	mov	r5,r23
 80019a8:	8007e7c0 	call	8007e7c <__sprint_r>
 80019ac:	103cb61e 	bne	r2,zero,8000c88 <__alt_data_end+0xf8000c88>
 80019b0:	d8c02017 	ldw	r3,128(sp)
 80019b4:	da000404 	addi	r8,sp,16
 80019b8:	003e2606 	br	8001254 <__alt_data_end+0xf8001254>
 80019bc:	d9002c17 	ldw	r4,176(sp)
 80019c0:	d9801e04 	addi	r6,sp,120
 80019c4:	b80b883a 	mov	r5,r23
 80019c8:	8007e7c0 	call	8007e7c <__sprint_r>
 80019cc:	103e5d26 	beq	r2,zero,8001344 <__alt_data_end+0xf8001344>
 80019d0:	003cad06 	br	8000c88 <__alt_data_end+0xf8000c88>
 80019d4:	d9002c17 	ldw	r4,176(sp)
 80019d8:	d9801e04 	addi	r6,sp,120
 80019dc:	b80b883a 	mov	r5,r23
 80019e0:	8007e7c0 	call	8007e7c <__sprint_r>
 80019e4:	103ca81e 	bne	r2,zero,8000c88 <__alt_data_end+0xf8000c88>
 80019e8:	d8c02017 	ldw	r3,128(sp)
 80019ec:	da000404 	addi	r8,sp,16
 80019f0:	003e0b06 	br	8001220 <__alt_data_end+0xf8001220>
 80019f4:	d9002c17 	ldw	r4,176(sp)
 80019f8:	d9801e04 	addi	r6,sp,120
 80019fc:	b80b883a 	mov	r5,r23
 8001a00:	8007e7c0 	call	8007e7c <__sprint_r>
 8001a04:	103ca01e 	bne	r2,zero,8000c88 <__alt_data_end+0xf8000c88>
 8001a08:	d8c02017 	ldw	r3,128(sp)
 8001a0c:	da000404 	addi	r8,sp,16
 8001a10:	003dbd06 	br	8001108 <__alt_data_end+0xf8001108>
 8001a14:	d9002c17 	ldw	r4,176(sp)
 8001a18:	d9801e04 	addi	r6,sp,120
 8001a1c:	b80b883a 	mov	r5,r23
 8001a20:	8007e7c0 	call	8007e7c <__sprint_r>
 8001a24:	103c981e 	bne	r2,zero,8000c88 <__alt_data_end+0xf8000c88>
 8001a28:	d8c02017 	ldw	r3,128(sp)
 8001a2c:	da000404 	addi	r8,sp,16
 8001a30:	003dc306 	br	8001140 <__alt_data_end+0xf8001140>
 8001a34:	d8802917 	ldw	r2,164(sp)
 8001a38:	d8002785 	stb	zero,158(sp)
 8001a3c:	103f0616 	blt	r2,zero,8001658 <__alt_data_end+0xf8001658>
 8001a40:	00ffdfc4 	movi	r3,-129
 8001a44:	9d84b03a 	or	r2,r19,r22
 8001a48:	90e4703a 	and	r18,r18,r3
 8001a4c:	103c6b26 	beq	r2,zero,8000bfc <__alt_data_end+0xf8000bfc>
 8001a50:	0039883a 	mov	fp,zero
 8001a54:	003e7406 	br	8001428 <__alt_data_end+0xf8001428>
 8001a58:	9080040c 	andi	r2,r18,16
 8001a5c:	1001b326 	beq	r2,zero,800212c <___vfprintf_internal_r+0x18ac>
 8001a60:	d9002d17 	ldw	r4,180(sp)
 8001a64:	d9402917 	ldw	r5,164(sp)
 8001a68:	d8002785 	stb	zero,158(sp)
 8001a6c:	20800104 	addi	r2,r4,4
 8001a70:	24c00017 	ldw	r19,0(r4)
 8001a74:	002d883a 	mov	r22,zero
 8001a78:	2801b516 	blt	r5,zero,8002150 <___vfprintf_internal_r+0x18d0>
 8001a7c:	00ffdfc4 	movi	r3,-129
 8001a80:	d8802d15 	stw	r2,180(sp)
 8001a84:	90e4703a 	and	r18,r18,r3
 8001a88:	983d2726 	beq	r19,zero,8000f28 <__alt_data_end+0xf8000f28>
 8001a8c:	0039883a 	mov	fp,zero
 8001a90:	003d2a06 	br	8000f3c <__alt_data_end+0xf8000f3c>
 8001a94:	dc402617 	ldw	r17,152(sp)
 8001a98:	0441d30e 	bge	zero,r17,80021e8 <___vfprintf_internal_r+0x1968>
 8001a9c:	dc403217 	ldw	r17,200(sp)
 8001aa0:	d8803317 	ldw	r2,204(sp)
 8001aa4:	1440010e 	bge	r2,r17,8001aac <___vfprintf_internal_r+0x122c>
 8001aa8:	1023883a 	mov	r17,r2
 8001aac:	04400a0e 	bge	zero,r17,8001ad8 <___vfprintf_internal_r+0x1258>
 8001ab0:	d8801f17 	ldw	r2,124(sp)
 8001ab4:	1c47883a 	add	r3,r3,r17
 8001ab8:	44000015 	stw	r16,0(r8)
 8001abc:	10800044 	addi	r2,r2,1
 8001ac0:	44400115 	stw	r17,4(r8)
 8001ac4:	d8c02015 	stw	r3,128(sp)
 8001ac8:	d8801f15 	stw	r2,124(sp)
 8001acc:	010001c4 	movi	r4,7
 8001ad0:	20826516 	blt	r4,r2,8002468 <___vfprintf_internal_r+0x1be8>
 8001ad4:	42000204 	addi	r8,r8,8
 8001ad8:	88026116 	blt	r17,zero,8002460 <___vfprintf_internal_r+0x1be0>
 8001adc:	d9003217 	ldw	r4,200(sp)
 8001ae0:	2463c83a 	sub	r17,r4,r17
 8001ae4:	04407b0e 	bge	zero,r17,8001cd4 <___vfprintf_internal_r+0x1454>
 8001ae8:	05800404 	movi	r22,16
 8001aec:	d8801f17 	ldw	r2,124(sp)
 8001af0:	b4419d0e 	bge	r22,r17,8002168 <___vfprintf_internal_r+0x18e8>
 8001af4:	010200b4 	movhi	r4,2050
 8001af8:	2123ea84 	addi	r4,r4,-28758
 8001afc:	d9002b15 	stw	r4,172(sp)
 8001b00:	070001c4 	movi	fp,7
 8001b04:	dcc02c17 	ldw	r19,176(sp)
 8001b08:	00000306 	br	8001b18 <___vfprintf_internal_r+0x1298>
 8001b0c:	42000204 	addi	r8,r8,8
 8001b10:	8c7ffc04 	addi	r17,r17,-16
 8001b14:	b441970e 	bge	r22,r17,8002174 <___vfprintf_internal_r+0x18f4>
 8001b18:	18c00404 	addi	r3,r3,16
 8001b1c:	10800044 	addi	r2,r2,1
 8001b20:	45000015 	stw	r20,0(r8)
 8001b24:	45800115 	stw	r22,4(r8)
 8001b28:	d8c02015 	stw	r3,128(sp)
 8001b2c:	d8801f15 	stw	r2,124(sp)
 8001b30:	e0bff60e 	bge	fp,r2,8001b0c <__alt_data_end+0xf8001b0c>
 8001b34:	d9801e04 	addi	r6,sp,120
 8001b38:	b80b883a 	mov	r5,r23
 8001b3c:	9809883a 	mov	r4,r19
 8001b40:	8007e7c0 	call	8007e7c <__sprint_r>
 8001b44:	103c501e 	bne	r2,zero,8000c88 <__alt_data_end+0xf8000c88>
 8001b48:	d8c02017 	ldw	r3,128(sp)
 8001b4c:	d8801f17 	ldw	r2,124(sp)
 8001b50:	da000404 	addi	r8,sp,16
 8001b54:	003fee06 	br	8001b10 <__alt_data_end+0xf8001b10>
 8001b58:	d9002c17 	ldw	r4,176(sp)
 8001b5c:	d9801e04 	addi	r6,sp,120
 8001b60:	b80b883a 	mov	r5,r23
 8001b64:	8007e7c0 	call	8007e7c <__sprint_r>
 8001b68:	103c471e 	bne	r2,zero,8000c88 <__alt_data_end+0xf8000c88>
 8001b6c:	d8c02017 	ldw	r3,128(sp)
 8001b70:	df002787 	ldb	fp,158(sp)
 8001b74:	da000404 	addi	r8,sp,16
 8001b78:	003d5606 	br	80010d4 <__alt_data_end+0xf80010d4>
 8001b7c:	9080040c 	andi	r2,r18,16
 8001b80:	10016126 	beq	r2,zero,8002108 <___vfprintf_internal_r+0x1888>
 8001b84:	d8802d17 	ldw	r2,180(sp)
 8001b88:	14c00017 	ldw	r19,0(r2)
 8001b8c:	10800104 	addi	r2,r2,4
 8001b90:	d8802d15 	stw	r2,180(sp)
 8001b94:	982dd7fa 	srai	r22,r19,31
 8001b98:	b005883a 	mov	r2,r22
 8001b9c:	003c8206 	br	8000da8 <__alt_data_end+0xf8000da8>
 8001ba0:	9080040c 	andi	r2,r18,16
 8001ba4:	10003526 	beq	r2,zero,8001c7c <___vfprintf_internal_r+0x13fc>
 8001ba8:	d9402d17 	ldw	r5,180(sp)
 8001bac:	d8c02917 	ldw	r3,164(sp)
 8001bb0:	d8002785 	stb	zero,158(sp)
 8001bb4:	28800104 	addi	r2,r5,4
 8001bb8:	2cc00017 	ldw	r19,0(r5)
 8001bbc:	002d883a 	mov	r22,zero
 8001bc0:	18003716 	blt	r3,zero,8001ca0 <___vfprintf_internal_r+0x1420>
 8001bc4:	00ffdfc4 	movi	r3,-129
 8001bc8:	d8802d15 	stw	r2,180(sp)
 8001bcc:	90e4703a 	and	r18,r18,r3
 8001bd0:	0039883a 	mov	fp,zero
 8001bd4:	983df326 	beq	r19,zero,80013a4 <__alt_data_end+0xf80013a4>
 8001bd8:	00800244 	movi	r2,9
 8001bdc:	14fc7b36 	bltu	r2,r19,8000dcc <__alt_data_end+0xf8000dcc>
 8001be0:	d8c02817 	ldw	r3,160(sp)
 8001be4:	dc001dc4 	addi	r16,sp,119
 8001be8:	9cc00c04 	addi	r19,r19,48
 8001bec:	1c07c83a 	sub	r3,r3,r16
 8001bf0:	dcc01dc5 	stb	r19,119(sp)
 8001bf4:	d8c02e15 	stw	r3,184(sp)
 8001bf8:	003ce806 	br	8000f9c <__alt_data_end+0xf8000f9c>
 8001bfc:	d8803317 	ldw	r2,204(sp)
 8001c00:	143fffc4 	addi	r16,r2,-1
 8001c04:	043f4d0e 	bge	zero,r16,800193c <__alt_data_end+0xf800193c>
 8001c08:	07000404 	movi	fp,16
 8001c0c:	e400810e 	bge	fp,r16,8001e14 <___vfprintf_internal_r+0x1594>
 8001c10:	014200b4 	movhi	r5,2050
 8001c14:	2963ea84 	addi	r5,r5,-28758
 8001c18:	d9402b15 	stw	r5,172(sp)
 8001c1c:	01c001c4 	movi	r7,7
 8001c20:	dcc02c17 	ldw	r19,176(sp)
 8001c24:	00000306 	br	8001c34 <___vfprintf_internal_r+0x13b4>
 8001c28:	b5800204 	addi	r22,r22,8
 8001c2c:	843ffc04 	addi	r16,r16,-16
 8001c30:	e4007b0e 	bge	fp,r16,8001e20 <___vfprintf_internal_r+0x15a0>
 8001c34:	18c00404 	addi	r3,r3,16
 8001c38:	8c400044 	addi	r17,r17,1
 8001c3c:	b5000015 	stw	r20,0(r22)
 8001c40:	b7000115 	stw	fp,4(r22)
 8001c44:	d8c02015 	stw	r3,128(sp)
 8001c48:	dc401f15 	stw	r17,124(sp)
 8001c4c:	3c7ff60e 	bge	r7,r17,8001c28 <__alt_data_end+0xf8001c28>
 8001c50:	d9801e04 	addi	r6,sp,120
 8001c54:	b80b883a 	mov	r5,r23
 8001c58:	9809883a 	mov	r4,r19
 8001c5c:	d9c03c15 	stw	r7,240(sp)
 8001c60:	8007e7c0 	call	8007e7c <__sprint_r>
 8001c64:	d9c03c17 	ldw	r7,240(sp)
 8001c68:	103c071e 	bne	r2,zero,8000c88 <__alt_data_end+0xf8000c88>
 8001c6c:	d8c02017 	ldw	r3,128(sp)
 8001c70:	dc401f17 	ldw	r17,124(sp)
 8001c74:	dd800404 	addi	r22,sp,16
 8001c78:	003fec06 	br	8001c2c <__alt_data_end+0xf8001c2c>
 8001c7c:	9080100c 	andi	r2,r18,64
 8001c80:	d8002785 	stb	zero,158(sp)
 8001c84:	10010e26 	beq	r2,zero,80020c0 <___vfprintf_internal_r+0x1840>
 8001c88:	d9002d17 	ldw	r4,180(sp)
 8001c8c:	d9402917 	ldw	r5,164(sp)
 8001c90:	002d883a 	mov	r22,zero
 8001c94:	20800104 	addi	r2,r4,4
 8001c98:	24c0000b 	ldhu	r19,0(r4)
 8001c9c:	283fc90e 	bge	r5,zero,8001bc4 <__alt_data_end+0xf8001bc4>
 8001ca0:	d8802d15 	stw	r2,180(sp)
 8001ca4:	0039883a 	mov	fp,zero
 8001ca8:	9d84b03a 	or	r2,r19,r22
 8001cac:	103c461e 	bne	r2,zero,8000dc8 <__alt_data_end+0xf8000dc8>
 8001cb0:	00800044 	movi	r2,1
 8001cb4:	003e6c06 	br	8001668 <__alt_data_end+0xf8001668>
 8001cb8:	d9002c17 	ldw	r4,176(sp)
 8001cbc:	d9801e04 	addi	r6,sp,120
 8001cc0:	b80b883a 	mov	r5,r23
 8001cc4:	8007e7c0 	call	8007e7c <__sprint_r>
 8001cc8:	103bef1e 	bne	r2,zero,8000c88 <__alt_data_end+0xf8000c88>
 8001ccc:	d8c02017 	ldw	r3,128(sp)
 8001cd0:	da000404 	addi	r8,sp,16
 8001cd4:	d9003217 	ldw	r4,200(sp)
 8001cd8:	d8802617 	ldw	r2,152(sp)
 8001cdc:	d9403317 	ldw	r5,204(sp)
 8001ce0:	8123883a 	add	r17,r16,r4
 8001ce4:	11400216 	blt	r2,r5,8001cf0 <___vfprintf_internal_r+0x1470>
 8001ce8:	9100004c 	andi	r4,r18,1
 8001cec:	20000d26 	beq	r4,zero,8001d24 <___vfprintf_internal_r+0x14a4>
 8001cf0:	d9003717 	ldw	r4,220(sp)
 8001cf4:	d9403417 	ldw	r5,208(sp)
 8001cf8:	1907883a 	add	r3,r3,r4
 8001cfc:	d9001f17 	ldw	r4,124(sp)
 8001d00:	41400015 	stw	r5,0(r8)
 8001d04:	d9403717 	ldw	r5,220(sp)
 8001d08:	21000044 	addi	r4,r4,1
 8001d0c:	d8c02015 	stw	r3,128(sp)
 8001d10:	41400115 	stw	r5,4(r8)
 8001d14:	d9001f15 	stw	r4,124(sp)
 8001d18:	014001c4 	movi	r5,7
 8001d1c:	2901e816 	blt	r5,r4,80024c0 <___vfprintf_internal_r+0x1c40>
 8001d20:	42000204 	addi	r8,r8,8
 8001d24:	d9003317 	ldw	r4,204(sp)
 8001d28:	8121883a 	add	r16,r16,r4
 8001d2c:	2085c83a 	sub	r2,r4,r2
 8001d30:	8461c83a 	sub	r16,r16,r17
 8001d34:	1400010e 	bge	r2,r16,8001d3c <___vfprintf_internal_r+0x14bc>
 8001d38:	1021883a 	mov	r16,r2
 8001d3c:	04000a0e 	bge	zero,r16,8001d68 <___vfprintf_internal_r+0x14e8>
 8001d40:	d9001f17 	ldw	r4,124(sp)
 8001d44:	1c07883a 	add	r3,r3,r16
 8001d48:	44400015 	stw	r17,0(r8)
 8001d4c:	21000044 	addi	r4,r4,1
 8001d50:	44000115 	stw	r16,4(r8)
 8001d54:	d8c02015 	stw	r3,128(sp)
 8001d58:	d9001f15 	stw	r4,124(sp)
 8001d5c:	014001c4 	movi	r5,7
 8001d60:	2901fb16 	blt	r5,r4,8002550 <___vfprintf_internal_r+0x1cd0>
 8001d64:	42000204 	addi	r8,r8,8
 8001d68:	8001f716 	blt	r16,zero,8002548 <___vfprintf_internal_r+0x1cc8>
 8001d6c:	1421c83a 	sub	r16,r2,r16
 8001d70:	043d380e 	bge	zero,r16,8001254 <__alt_data_end+0xf8001254>
 8001d74:	04400404 	movi	r17,16
 8001d78:	d8801f17 	ldw	r2,124(sp)
 8001d7c:	8c3efb0e 	bge	r17,r16,800196c <__alt_data_end+0xf800196c>
 8001d80:	014200b4 	movhi	r5,2050
 8001d84:	2963ea84 	addi	r5,r5,-28758
 8001d88:	d9402b15 	stw	r5,172(sp)
 8001d8c:	058001c4 	movi	r22,7
 8001d90:	dcc02c17 	ldw	r19,176(sp)
 8001d94:	00000306 	br	8001da4 <___vfprintf_internal_r+0x1524>
 8001d98:	42000204 	addi	r8,r8,8
 8001d9c:	843ffc04 	addi	r16,r16,-16
 8001da0:	8c3ef50e 	bge	r17,r16,8001978 <__alt_data_end+0xf8001978>
 8001da4:	18c00404 	addi	r3,r3,16
 8001da8:	10800044 	addi	r2,r2,1
 8001dac:	45000015 	stw	r20,0(r8)
 8001db0:	44400115 	stw	r17,4(r8)
 8001db4:	d8c02015 	stw	r3,128(sp)
 8001db8:	d8801f15 	stw	r2,124(sp)
 8001dbc:	b0bff60e 	bge	r22,r2,8001d98 <__alt_data_end+0xf8001d98>
 8001dc0:	d9801e04 	addi	r6,sp,120
 8001dc4:	b80b883a 	mov	r5,r23
 8001dc8:	9809883a 	mov	r4,r19
 8001dcc:	8007e7c0 	call	8007e7c <__sprint_r>
 8001dd0:	103bad1e 	bne	r2,zero,8000c88 <__alt_data_end+0xf8000c88>
 8001dd4:	d8c02017 	ldw	r3,128(sp)
 8001dd8:	d8801f17 	ldw	r2,124(sp)
 8001ddc:	da000404 	addi	r8,sp,16
 8001de0:	003fee06 	br	8001d9c <__alt_data_end+0xf8001d9c>
 8001de4:	9088703a 	and	r4,r18,r2
 8001de8:	203eab1e 	bne	r4,zero,8001898 <__alt_data_end+0xf8001898>
 8001dec:	dc401f17 	ldw	r17,124(sp)
 8001df0:	40800115 	stw	r2,4(r8)
 8001df4:	44000015 	stw	r16,0(r8)
 8001df8:	8c400044 	addi	r17,r17,1
 8001dfc:	d8c02015 	stw	r3,128(sp)
 8001e00:	dc401f15 	stw	r17,124(sp)
 8001e04:	008001c4 	movi	r2,7
 8001e08:	14400e16 	blt	r2,r17,8001e44 <___vfprintf_internal_r+0x15c4>
 8001e0c:	45800204 	addi	r22,r8,8
 8001e10:	003eca06 	br	800193c <__alt_data_end+0xf800193c>
 8001e14:	010200b4 	movhi	r4,2050
 8001e18:	2123ea84 	addi	r4,r4,-28758
 8001e1c:	d9002b15 	stw	r4,172(sp)
 8001e20:	d8802b17 	ldw	r2,172(sp)
 8001e24:	1c07883a 	add	r3,r3,r16
 8001e28:	8c400044 	addi	r17,r17,1
 8001e2c:	b0800015 	stw	r2,0(r22)
 8001e30:	b4000115 	stw	r16,4(r22)
 8001e34:	d8c02015 	stw	r3,128(sp)
 8001e38:	dc401f15 	stw	r17,124(sp)
 8001e3c:	008001c4 	movi	r2,7
 8001e40:	147ebd0e 	bge	r2,r17,8001938 <__alt_data_end+0xf8001938>
 8001e44:	d9002c17 	ldw	r4,176(sp)
 8001e48:	d9801e04 	addi	r6,sp,120
 8001e4c:	b80b883a 	mov	r5,r23
 8001e50:	8007e7c0 	call	8007e7c <__sprint_r>
 8001e54:	103b8c1e 	bne	r2,zero,8000c88 <__alt_data_end+0xf8000c88>
 8001e58:	d8c02017 	ldw	r3,128(sp)
 8001e5c:	dc401f17 	ldw	r17,124(sp)
 8001e60:	dd800404 	addi	r22,sp,16
 8001e64:	003eb506 	br	800193c <__alt_data_end+0xf800193c>
 8001e68:	d9002c17 	ldw	r4,176(sp)
 8001e6c:	d9801e04 	addi	r6,sp,120
 8001e70:	b80b883a 	mov	r5,r23
 8001e74:	8007e7c0 	call	8007e7c <__sprint_r>
 8001e78:	103b831e 	bne	r2,zero,8000c88 <__alt_data_end+0xf8000c88>
 8001e7c:	d8c02017 	ldw	r3,128(sp)
 8001e80:	dc401f17 	ldw	r17,124(sp)
 8001e84:	da000404 	addi	r8,sp,16
 8001e88:	003e8d06 	br	80018c0 <__alt_data_end+0xf80018c0>
 8001e8c:	d9002c17 	ldw	r4,176(sp)
 8001e90:	d9801e04 	addi	r6,sp,120
 8001e94:	b80b883a 	mov	r5,r23
 8001e98:	8007e7c0 	call	8007e7c <__sprint_r>
 8001e9c:	103b7a1e 	bne	r2,zero,8000c88 <__alt_data_end+0xf8000c88>
 8001ea0:	d8c02017 	ldw	r3,128(sp)
 8001ea4:	dc401f17 	ldw	r17,124(sp)
 8001ea8:	dd800404 	addi	r22,sp,16
 8001eac:	003e8f06 	br	80018ec <__alt_data_end+0xf80018ec>
 8001eb0:	0027883a 	mov	r19,zero
 8001eb4:	003f4a06 	br	8001be0 <__alt_data_end+0xf8001be0>
 8001eb8:	d9002c17 	ldw	r4,176(sp)
 8001ebc:	d9801e04 	addi	r6,sp,120
 8001ec0:	b80b883a 	mov	r5,r23
 8001ec4:	8007e7c0 	call	8007e7c <__sprint_r>
 8001ec8:	103b6f1e 	bne	r2,zero,8000c88 <__alt_data_end+0xf8000c88>
 8001ecc:	d8c02017 	ldw	r3,128(sp)
 8001ed0:	da000404 	addi	r8,sp,16
 8001ed4:	003c9d06 	br	800114c <__alt_data_end+0xf800114c>
 8001ed8:	04e7c83a 	sub	r19,zero,r19
 8001edc:	9804c03a 	cmpne	r2,r19,zero
 8001ee0:	05adc83a 	sub	r22,zero,r22
 8001ee4:	b0adc83a 	sub	r22,r22,r2
 8001ee8:	d8802917 	ldw	r2,164(sp)
 8001eec:	07000b44 	movi	fp,45
 8001ef0:	df002785 	stb	fp,158(sp)
 8001ef4:	10017b16 	blt	r2,zero,80024e4 <___vfprintf_internal_r+0x1c64>
 8001ef8:	00bfdfc4 	movi	r2,-129
 8001efc:	90a4703a 	and	r18,r18,r2
 8001f00:	003bb106 	br	8000dc8 <__alt_data_end+0xf8000dc8>
 8001f04:	d9003617 	ldw	r4,216(sp)
 8001f08:	d9403817 	ldw	r5,224(sp)
 8001f0c:	da003d15 	stw	r8,244(sp)
 8001f10:	8007aa00 	call	8007aa0 <__fpclassifyd>
 8001f14:	da003d17 	ldw	r8,244(sp)
 8001f18:	1000f026 	beq	r2,zero,80022dc <___vfprintf_internal_r+0x1a5c>
 8001f1c:	d9002917 	ldw	r4,164(sp)
 8001f20:	05bff7c4 	movi	r22,-33
 8001f24:	00bfffc4 	movi	r2,-1
 8001f28:	8dac703a 	and	r22,r17,r22
 8001f2c:	20820026 	beq	r4,r2,8002730 <___vfprintf_internal_r+0x1eb0>
 8001f30:	008011c4 	movi	r2,71
 8001f34:	b081f726 	beq	r22,r2,8002714 <___vfprintf_internal_r+0x1e94>
 8001f38:	d9003817 	ldw	r4,224(sp)
 8001f3c:	90c04014 	ori	r3,r18,256
 8001f40:	d8c02b15 	stw	r3,172(sp)
 8001f44:	20021516 	blt	r4,zero,800279c <___vfprintf_internal_r+0x1f1c>
 8001f48:	dcc03817 	ldw	r19,224(sp)
 8001f4c:	d8002a05 	stb	zero,168(sp)
 8001f50:	00801984 	movi	r2,102
 8001f54:	8881f926 	beq	r17,r2,800273c <___vfprintf_internal_r+0x1ebc>
 8001f58:	00801184 	movi	r2,70
 8001f5c:	88821c26 	beq	r17,r2,80027d0 <___vfprintf_internal_r+0x1f50>
 8001f60:	00801144 	movi	r2,69
 8001f64:	b081ef26 	beq	r22,r2,8002724 <___vfprintf_internal_r+0x1ea4>
 8001f68:	d8c02917 	ldw	r3,164(sp)
 8001f6c:	d8802104 	addi	r2,sp,132
 8001f70:	d8800315 	stw	r2,12(sp)
 8001f74:	d9403617 	ldw	r5,216(sp)
 8001f78:	d8802504 	addi	r2,sp,148
 8001f7c:	d9002c17 	ldw	r4,176(sp)
 8001f80:	d8800215 	stw	r2,8(sp)
 8001f84:	d8802604 	addi	r2,sp,152
 8001f88:	d8c00015 	stw	r3,0(sp)
 8001f8c:	d8800115 	stw	r2,4(sp)
 8001f90:	01c00084 	movi	r7,2
 8001f94:	980d883a 	mov	r6,r19
 8001f98:	d8c03c15 	stw	r3,240(sp)
 8001f9c:	da003d15 	stw	r8,244(sp)
 8001fa0:	8002ea40 	call	8002ea4 <_dtoa_r>
 8001fa4:	1021883a 	mov	r16,r2
 8001fa8:	008019c4 	movi	r2,103
 8001fac:	d8c03c17 	ldw	r3,240(sp)
 8001fb0:	da003d17 	ldw	r8,244(sp)
 8001fb4:	88817126 	beq	r17,r2,800257c <___vfprintf_internal_r+0x1cfc>
 8001fb8:	008011c4 	movi	r2,71
 8001fbc:	88829226 	beq	r17,r2,8002a08 <___vfprintf_internal_r+0x2188>
 8001fc0:	80f9883a 	add	fp,r16,r3
 8001fc4:	d9003617 	ldw	r4,216(sp)
 8001fc8:	000d883a 	mov	r6,zero
 8001fcc:	000f883a 	mov	r7,zero
 8001fd0:	980b883a 	mov	r5,r19
 8001fd4:	da003d15 	stw	r8,244(sp)
 8001fd8:	800baf40 	call	800baf4 <__eqdf2>
 8001fdc:	da003d17 	ldw	r8,244(sp)
 8001fe0:	10018d26 	beq	r2,zero,8002618 <___vfprintf_internal_r+0x1d98>
 8001fe4:	d8802117 	ldw	r2,132(sp)
 8001fe8:	1700062e 	bgeu	r2,fp,8002004 <___vfprintf_internal_r+0x1784>
 8001fec:	01000c04 	movi	r4,48
 8001ff0:	10c00044 	addi	r3,r2,1
 8001ff4:	d8c02115 	stw	r3,132(sp)
 8001ff8:	11000005 	stb	r4,0(r2)
 8001ffc:	d8802117 	ldw	r2,132(sp)
 8002000:	173ffb36 	bltu	r2,fp,8001ff0 <__alt_data_end+0xf8001ff0>
 8002004:	1405c83a 	sub	r2,r2,r16
 8002008:	d8803315 	stw	r2,204(sp)
 800200c:	008011c4 	movi	r2,71
 8002010:	b0817626 	beq	r22,r2,80025ec <___vfprintf_internal_r+0x1d6c>
 8002014:	00801944 	movi	r2,101
 8002018:	1442810e 	bge	r2,r17,8002a20 <___vfprintf_internal_r+0x21a0>
 800201c:	d8c02617 	ldw	r3,152(sp)
 8002020:	00801984 	movi	r2,102
 8002024:	d8c03215 	stw	r3,200(sp)
 8002028:	8881fe26 	beq	r17,r2,8002824 <___vfprintf_internal_r+0x1fa4>
 800202c:	d8c03217 	ldw	r3,200(sp)
 8002030:	d9003317 	ldw	r4,204(sp)
 8002034:	1901dd16 	blt	r3,r4,80027ac <___vfprintf_internal_r+0x1f2c>
 8002038:	9480004c 	andi	r18,r18,1
 800203c:	90022b1e 	bne	r18,zero,80028ec <___vfprintf_internal_r+0x206c>
 8002040:	1805883a 	mov	r2,r3
 8002044:	18028016 	blt	r3,zero,8002a48 <___vfprintf_internal_r+0x21c8>
 8002048:	d8c03217 	ldw	r3,200(sp)
 800204c:	044019c4 	movi	r17,103
 8002050:	d8c02e15 	stw	r3,184(sp)
 8002054:	df002a07 	ldb	fp,168(sp)
 8002058:	e001531e 	bne	fp,zero,80025a8 <___vfprintf_internal_r+0x1d28>
 800205c:	df002783 	ldbu	fp,158(sp)
 8002060:	d8802a15 	stw	r2,168(sp)
 8002064:	dc802b17 	ldw	r18,172(sp)
 8002068:	d8002915 	stw	zero,164(sp)
 800206c:	003bd106 	br	8000fb4 <__alt_data_end+0xf8000fb4>
 8002070:	d8802d17 	ldw	r2,180(sp)
 8002074:	d8c02d17 	ldw	r3,180(sp)
 8002078:	d9002d17 	ldw	r4,180(sp)
 800207c:	10800017 	ldw	r2,0(r2)
 8002080:	18c00117 	ldw	r3,4(r3)
 8002084:	21000204 	addi	r4,r4,8
 8002088:	d8803615 	stw	r2,216(sp)
 800208c:	d8c03815 	stw	r3,224(sp)
 8002090:	d9002d15 	stw	r4,180(sp)
 8002094:	003b7506 	br	8000e6c <__alt_data_end+0xf8000e6c>
 8002098:	ac400007 	ldb	r17,0(r21)
 800209c:	003a5906 	br	8000a04 <__alt_data_end+0xf8000a04>
 80020a0:	9080100c 	andi	r2,r18,64
 80020a4:	1000a826 	beq	r2,zero,8002348 <___vfprintf_internal_r+0x1ac8>
 80020a8:	d9002d17 	ldw	r4,180(sp)
 80020ac:	002d883a 	mov	r22,zero
 80020b0:	24c0000b 	ldhu	r19,0(r4)
 80020b4:	21000104 	addi	r4,r4,4
 80020b8:	d9002d15 	stw	r4,180(sp)
 80020bc:	003ccb06 	br	80013ec <__alt_data_end+0xf80013ec>
 80020c0:	d8c02d17 	ldw	r3,180(sp)
 80020c4:	d9002917 	ldw	r4,164(sp)
 80020c8:	002d883a 	mov	r22,zero
 80020cc:	18800104 	addi	r2,r3,4
 80020d0:	1cc00017 	ldw	r19,0(r3)
 80020d4:	203ebb0e 	bge	r4,zero,8001bc4 <__alt_data_end+0xf8001bc4>
 80020d8:	003ef106 	br	8001ca0 <__alt_data_end+0xf8001ca0>
 80020dc:	9080040c 	andi	r2,r18,16
 80020e0:	1000921e 	bne	r2,zero,800232c <___vfprintf_internal_r+0x1aac>
 80020e4:	9480100c 	andi	r18,r18,64
 80020e8:	90013926 	beq	r18,zero,80025d0 <___vfprintf_internal_r+0x1d50>
 80020ec:	d9002d17 	ldw	r4,180(sp)
 80020f0:	d9402f17 	ldw	r5,188(sp)
 80020f4:	20800017 	ldw	r2,0(r4)
 80020f8:	21000104 	addi	r4,r4,4
 80020fc:	d9002d15 	stw	r4,180(sp)
 8002100:	1140000d 	sth	r5,0(r2)
 8002104:	003a1606 	br	8000960 <__alt_data_end+0xf8000960>
 8002108:	9080100c 	andi	r2,r18,64
 800210c:	10008026 	beq	r2,zero,8002310 <___vfprintf_internal_r+0x1a90>
 8002110:	d8c02d17 	ldw	r3,180(sp)
 8002114:	1cc0000f 	ldh	r19,0(r3)
 8002118:	18c00104 	addi	r3,r3,4
 800211c:	d8c02d15 	stw	r3,180(sp)
 8002120:	982dd7fa 	srai	r22,r19,31
 8002124:	b005883a 	mov	r2,r22
 8002128:	003b1f06 	br	8000da8 <__alt_data_end+0xf8000da8>
 800212c:	9080100c 	andi	r2,r18,64
 8002130:	d8002785 	stb	zero,158(sp)
 8002134:	10008a1e 	bne	r2,zero,8002360 <___vfprintf_internal_r+0x1ae0>
 8002138:	d9402d17 	ldw	r5,180(sp)
 800213c:	d8c02917 	ldw	r3,164(sp)
 8002140:	002d883a 	mov	r22,zero
 8002144:	28800104 	addi	r2,r5,4
 8002148:	2cc00017 	ldw	r19,0(r5)
 800214c:	183e4b0e 	bge	r3,zero,8001a7c <__alt_data_end+0xf8001a7c>
 8002150:	9d86b03a 	or	r3,r19,r22
 8002154:	d8802d15 	stw	r2,180(sp)
 8002158:	183e4c1e 	bne	r3,zero,8001a8c <__alt_data_end+0xf8001a8c>
 800215c:	0039883a 	mov	fp,zero
 8002160:	0005883a 	mov	r2,zero
 8002164:	003d4006 	br	8001668 <__alt_data_end+0xf8001668>
 8002168:	014200b4 	movhi	r5,2050
 800216c:	2963ea84 	addi	r5,r5,-28758
 8002170:	d9402b15 	stw	r5,172(sp)
 8002174:	d9402b17 	ldw	r5,172(sp)
 8002178:	1c47883a 	add	r3,r3,r17
 800217c:	10800044 	addi	r2,r2,1
 8002180:	41400015 	stw	r5,0(r8)
 8002184:	44400115 	stw	r17,4(r8)
 8002188:	d8c02015 	stw	r3,128(sp)
 800218c:	d8801f15 	stw	r2,124(sp)
 8002190:	010001c4 	movi	r4,7
 8002194:	20bec816 	blt	r4,r2,8001cb8 <__alt_data_end+0xf8001cb8>
 8002198:	42000204 	addi	r8,r8,8
 800219c:	003ecd06 	br	8001cd4 <__alt_data_end+0xf8001cd4>
 80021a0:	d9002917 	ldw	r4,164(sp)
 80021a4:	d8002785 	stb	zero,158(sp)
 80021a8:	203d2d16 	blt	r4,zero,8001660 <__alt_data_end+0xf8001660>
 80021ac:	00bfdfc4 	movi	r2,-129
 80021b0:	90a4703a 	and	r18,r18,r2
 80021b4:	003a9106 	br	8000bfc <__alt_data_end+0xf8000bfc>
 80021b8:	010200b4 	movhi	r4,2050
 80021bc:	2123ea84 	addi	r4,r4,-28758
 80021c0:	d9002b15 	stw	r4,172(sp)
 80021c4:	003c0c06 	br	80011f8 <__alt_data_end+0xf80011f8>
 80021c8:	d9002c17 	ldw	r4,176(sp)
 80021cc:	d9801e04 	addi	r6,sp,120
 80021d0:	b80b883a 	mov	r5,r23
 80021d4:	8007e7c0 	call	8007e7c <__sprint_r>
 80021d8:	103aab1e 	bne	r2,zero,8000c88 <__alt_data_end+0xf8000c88>
 80021dc:	d8c02017 	ldw	r3,128(sp)
 80021e0:	da000404 	addi	r8,sp,16
 80021e4:	003d4106 	br	80016ec <__alt_data_end+0xf80016ec>
 80021e8:	d8801f17 	ldw	r2,124(sp)
 80021ec:	014200b4 	movhi	r5,2050
 80021f0:	01000044 	movi	r4,1
 80021f4:	18c00044 	addi	r3,r3,1
 80021f8:	10800044 	addi	r2,r2,1
 80021fc:	2963ea04 	addi	r5,r5,-28760
 8002200:	41000115 	stw	r4,4(r8)
 8002204:	41400015 	stw	r5,0(r8)
 8002208:	d8c02015 	stw	r3,128(sp)
 800220c:	d8801f15 	stw	r2,124(sp)
 8002210:	010001c4 	movi	r4,7
 8002214:	20805c16 	blt	r4,r2,8002388 <___vfprintf_internal_r+0x1b08>
 8002218:	42000204 	addi	r8,r8,8
 800221c:	8800041e 	bne	r17,zero,8002230 <___vfprintf_internal_r+0x19b0>
 8002220:	d8803317 	ldw	r2,204(sp)
 8002224:	1000021e 	bne	r2,zero,8002230 <___vfprintf_internal_r+0x19b0>
 8002228:	9080004c 	andi	r2,r18,1
 800222c:	103c0926 	beq	r2,zero,8001254 <__alt_data_end+0xf8001254>
 8002230:	d9003717 	ldw	r4,220(sp)
 8002234:	d8801f17 	ldw	r2,124(sp)
 8002238:	d9403417 	ldw	r5,208(sp)
 800223c:	20c7883a 	add	r3,r4,r3
 8002240:	10800044 	addi	r2,r2,1
 8002244:	41000115 	stw	r4,4(r8)
 8002248:	41400015 	stw	r5,0(r8)
 800224c:	d8c02015 	stw	r3,128(sp)
 8002250:	d8801f15 	stw	r2,124(sp)
 8002254:	010001c4 	movi	r4,7
 8002258:	20812116 	blt	r4,r2,80026e0 <___vfprintf_internal_r+0x1e60>
 800225c:	42000204 	addi	r8,r8,8
 8002260:	0463c83a 	sub	r17,zero,r17
 8002264:	0440730e 	bge	zero,r17,8002434 <___vfprintf_internal_r+0x1bb4>
 8002268:	05800404 	movi	r22,16
 800226c:	b440860e 	bge	r22,r17,8002488 <___vfprintf_internal_r+0x1c08>
 8002270:	014200b4 	movhi	r5,2050
 8002274:	2963ea84 	addi	r5,r5,-28758
 8002278:	d9402b15 	stw	r5,172(sp)
 800227c:	070001c4 	movi	fp,7
 8002280:	dcc02c17 	ldw	r19,176(sp)
 8002284:	00000306 	br	8002294 <___vfprintf_internal_r+0x1a14>
 8002288:	42000204 	addi	r8,r8,8
 800228c:	8c7ffc04 	addi	r17,r17,-16
 8002290:	b440800e 	bge	r22,r17,8002494 <___vfprintf_internal_r+0x1c14>
 8002294:	18c00404 	addi	r3,r3,16
 8002298:	10800044 	addi	r2,r2,1
 800229c:	45000015 	stw	r20,0(r8)
 80022a0:	45800115 	stw	r22,4(r8)
 80022a4:	d8c02015 	stw	r3,128(sp)
 80022a8:	d8801f15 	stw	r2,124(sp)
 80022ac:	e0bff60e 	bge	fp,r2,8002288 <__alt_data_end+0xf8002288>
 80022b0:	d9801e04 	addi	r6,sp,120
 80022b4:	b80b883a 	mov	r5,r23
 80022b8:	9809883a 	mov	r4,r19
 80022bc:	8007e7c0 	call	8007e7c <__sprint_r>
 80022c0:	103a711e 	bne	r2,zero,8000c88 <__alt_data_end+0xf8000c88>
 80022c4:	d8c02017 	ldw	r3,128(sp)
 80022c8:	d8801f17 	ldw	r2,124(sp)
 80022cc:	da000404 	addi	r8,sp,16
 80022d0:	003fee06 	br	800228c <__alt_data_end+0xf800228c>
 80022d4:	00bfffc4 	movi	r2,-1
 80022d8:	003a6f06 	br	8000c98 <__alt_data_end+0xf8000c98>
 80022dc:	008011c4 	movi	r2,71
 80022e0:	1440b816 	blt	r2,r17,80025c4 <___vfprintf_internal_r+0x1d44>
 80022e4:	040200b4 	movhi	r16,2050
 80022e8:	8423dc04 	addi	r16,r16,-28816
 80022ec:	00c000c4 	movi	r3,3
 80022f0:	00bfdfc4 	movi	r2,-129
 80022f4:	d8c02a15 	stw	r3,168(sp)
 80022f8:	90a4703a 	and	r18,r18,r2
 80022fc:	df002783 	ldbu	fp,158(sp)
 8002300:	d8c02e15 	stw	r3,184(sp)
 8002304:	d8002915 	stw	zero,164(sp)
 8002308:	d8003215 	stw	zero,200(sp)
 800230c:	003b2906 	br	8000fb4 <__alt_data_end+0xf8000fb4>
 8002310:	d9002d17 	ldw	r4,180(sp)
 8002314:	24c00017 	ldw	r19,0(r4)
 8002318:	21000104 	addi	r4,r4,4
 800231c:	d9002d15 	stw	r4,180(sp)
 8002320:	982dd7fa 	srai	r22,r19,31
 8002324:	b005883a 	mov	r2,r22
 8002328:	003a9f06 	br	8000da8 <__alt_data_end+0xf8000da8>
 800232c:	d9402d17 	ldw	r5,180(sp)
 8002330:	d8c02f17 	ldw	r3,188(sp)
 8002334:	28800017 	ldw	r2,0(r5)
 8002338:	29400104 	addi	r5,r5,4
 800233c:	d9402d15 	stw	r5,180(sp)
 8002340:	10c00015 	stw	r3,0(r2)
 8002344:	00398606 	br	8000960 <__alt_data_end+0xf8000960>
 8002348:	d9402d17 	ldw	r5,180(sp)
 800234c:	002d883a 	mov	r22,zero
 8002350:	2cc00017 	ldw	r19,0(r5)
 8002354:	29400104 	addi	r5,r5,4
 8002358:	d9402d15 	stw	r5,180(sp)
 800235c:	003c2306 	br	80013ec <__alt_data_end+0xf80013ec>
 8002360:	d8c02d17 	ldw	r3,180(sp)
 8002364:	d9002917 	ldw	r4,164(sp)
 8002368:	002d883a 	mov	r22,zero
 800236c:	18800104 	addi	r2,r3,4
 8002370:	1cc0000b 	ldhu	r19,0(r3)
 8002374:	203dc10e 	bge	r4,zero,8001a7c <__alt_data_end+0xf8001a7c>
 8002378:	003f7506 	br	8002150 <__alt_data_end+0xf8002150>
 800237c:	040200b4 	movhi	r16,2050
 8002380:	8423da04 	addi	r16,r16,-28824
 8002384:	003acc06 	br	8000eb8 <__alt_data_end+0xf8000eb8>
 8002388:	d9002c17 	ldw	r4,176(sp)
 800238c:	d9801e04 	addi	r6,sp,120
 8002390:	b80b883a 	mov	r5,r23
 8002394:	8007e7c0 	call	8007e7c <__sprint_r>
 8002398:	103a3b1e 	bne	r2,zero,8000c88 <__alt_data_end+0xf8000c88>
 800239c:	dc402617 	ldw	r17,152(sp)
 80023a0:	d8c02017 	ldw	r3,128(sp)
 80023a4:	da000404 	addi	r8,sp,16
 80023a8:	003f9c06 	br	800221c <__alt_data_end+0xf800221c>
 80023ac:	ac400043 	ldbu	r17,1(r21)
 80023b0:	94800814 	ori	r18,r18,32
 80023b4:	ad400044 	addi	r21,r21,1
 80023b8:	8c403fcc 	andi	r17,r17,255
 80023bc:	8c40201c 	xori	r17,r17,128
 80023c0:	8c7fe004 	addi	r17,r17,-128
 80023c4:	00398f06 	br	8000a04 <__alt_data_end+0xf8000a04>
 80023c8:	d8c02d15 	stw	r3,180(sp)
 80023cc:	0039883a 	mov	fp,zero
 80023d0:	003e3506 	br	8001ca8 <__alt_data_end+0xf8001ca8>
 80023d4:	d9002c17 	ldw	r4,176(sp)
 80023d8:	d9801e04 	addi	r6,sp,120
 80023dc:	b80b883a 	mov	r5,r23
 80023e0:	8007e7c0 	call	8007e7c <__sprint_r>
 80023e4:	103a281e 	bne	r2,zero,8000c88 <__alt_data_end+0xf8000c88>
 80023e8:	d8c02017 	ldw	r3,128(sp)
 80023ec:	da000404 	addi	r8,sp,16
 80023f0:	003cd006 	br	8001734 <__alt_data_end+0xf8001734>
 80023f4:	8009883a 	mov	r4,r16
 80023f8:	da003d15 	stw	r8,244(sp)
 80023fc:	80007e80 	call	80007e8 <strlen>
 8002400:	d8802e15 	stw	r2,184(sp)
 8002404:	da003d17 	ldw	r8,244(sp)
 8002408:	103c340e 	bge	r2,zero,80014dc <__alt_data_end+0xf80014dc>
 800240c:	0005883a 	mov	r2,zero
 8002410:	003c3206 	br	80014dc <__alt_data_end+0xf80014dc>
 8002414:	d9002c17 	ldw	r4,176(sp)
 8002418:	d9801e04 	addi	r6,sp,120
 800241c:	b80b883a 	mov	r5,r23
 8002420:	8007e7c0 	call	8007e7c <__sprint_r>
 8002424:	103a181e 	bne	r2,zero,8000c88 <__alt_data_end+0xf8000c88>
 8002428:	d8c02017 	ldw	r3,128(sp)
 800242c:	d8801f17 	ldw	r2,124(sp)
 8002430:	da000404 	addi	r8,sp,16
 8002434:	d9403317 	ldw	r5,204(sp)
 8002438:	10800044 	addi	r2,r2,1
 800243c:	44000015 	stw	r16,0(r8)
 8002440:	28c7883a 	add	r3,r5,r3
 8002444:	003b7d06 	br	800123c <__alt_data_end+0xf800123c>
 8002448:	010200b4 	movhi	r4,2050
 800244c:	2123ee84 	addi	r4,r4,-28742
 8002450:	d9003515 	stw	r4,212(sp)
 8002454:	003b1406 	br	80010a8 <__alt_data_end+0xf80010a8>
 8002458:	013fffc4 	movi	r4,-1
 800245c:	003a3506 	br	8000d34 <__alt_data_end+0xf8000d34>
 8002460:	0023883a 	mov	r17,zero
 8002464:	003d9d06 	br	8001adc <__alt_data_end+0xf8001adc>
 8002468:	d9002c17 	ldw	r4,176(sp)
 800246c:	d9801e04 	addi	r6,sp,120
 8002470:	b80b883a 	mov	r5,r23
 8002474:	8007e7c0 	call	8007e7c <__sprint_r>
 8002478:	103a031e 	bne	r2,zero,8000c88 <__alt_data_end+0xf8000c88>
 800247c:	d8c02017 	ldw	r3,128(sp)
 8002480:	da000404 	addi	r8,sp,16
 8002484:	003d9406 	br	8001ad8 <__alt_data_end+0xf8001ad8>
 8002488:	010200b4 	movhi	r4,2050
 800248c:	2123ea84 	addi	r4,r4,-28758
 8002490:	d9002b15 	stw	r4,172(sp)
 8002494:	d9002b17 	ldw	r4,172(sp)
 8002498:	1c47883a 	add	r3,r3,r17
 800249c:	10800044 	addi	r2,r2,1
 80024a0:	41000015 	stw	r4,0(r8)
 80024a4:	44400115 	stw	r17,4(r8)
 80024a8:	d8c02015 	stw	r3,128(sp)
 80024ac:	d8801f15 	stw	r2,124(sp)
 80024b0:	010001c4 	movi	r4,7
 80024b4:	20bfd716 	blt	r4,r2,8002414 <__alt_data_end+0xf8002414>
 80024b8:	42000204 	addi	r8,r8,8
 80024bc:	003fdd06 	br	8002434 <__alt_data_end+0xf8002434>
 80024c0:	d9002c17 	ldw	r4,176(sp)
 80024c4:	d9801e04 	addi	r6,sp,120
 80024c8:	b80b883a 	mov	r5,r23
 80024cc:	8007e7c0 	call	8007e7c <__sprint_r>
 80024d0:	1039ed1e 	bne	r2,zero,8000c88 <__alt_data_end+0xf8000c88>
 80024d4:	d8802617 	ldw	r2,152(sp)
 80024d8:	d8c02017 	ldw	r3,128(sp)
 80024dc:	da000404 	addi	r8,sp,16
 80024e0:	003e1006 	br	8001d24 <__alt_data_end+0xf8001d24>
 80024e4:	00800044 	movi	r2,1
 80024e8:	10803fcc 	andi	r2,r2,255
 80024ec:	00c00044 	movi	r3,1
 80024f0:	10fa3526 	beq	r2,r3,8000dc8 <__alt_data_end+0xf8000dc8>
 80024f4:	00c00084 	movi	r3,2
 80024f8:	10fbcb26 	beq	r2,r3,8001428 <__alt_data_end+0xf8001428>
 80024fc:	003a8f06 	br	8000f3c <__alt_data_end+0xf8000f3c>
 8002500:	010200b4 	movhi	r4,2050
 8002504:	2123ee84 	addi	r4,r4,-28742
 8002508:	d9003515 	stw	r4,212(sp)
 800250c:	003b7606 	br	80012e8 <__alt_data_end+0xf80012e8>
 8002510:	d8802917 	ldw	r2,164(sp)
 8002514:	00c00184 	movi	r3,6
 8002518:	1880012e 	bgeu	r3,r2,8002520 <___vfprintf_internal_r+0x1ca0>
 800251c:	1805883a 	mov	r2,r3
 8002520:	d8802e15 	stw	r2,184(sp)
 8002524:	1000ef16 	blt	r2,zero,80028e4 <___vfprintf_internal_r+0x2064>
 8002528:	040200b4 	movhi	r16,2050
 800252c:	d8802a15 	stw	r2,168(sp)
 8002530:	dcc02d15 	stw	r19,180(sp)
 8002534:	d8002915 	stw	zero,164(sp)
 8002538:	d8003215 	stw	zero,200(sp)
 800253c:	8423e804 	addi	r16,r16,-28768
 8002540:	0039883a 	mov	fp,zero
 8002544:	003aa206 	br	8000fd0 <__alt_data_end+0xf8000fd0>
 8002548:	0021883a 	mov	r16,zero
 800254c:	003e0706 	br	8001d6c <__alt_data_end+0xf8001d6c>
 8002550:	d9002c17 	ldw	r4,176(sp)
 8002554:	d9801e04 	addi	r6,sp,120
 8002558:	b80b883a 	mov	r5,r23
 800255c:	8007e7c0 	call	8007e7c <__sprint_r>
 8002560:	1039c91e 	bne	r2,zero,8000c88 <__alt_data_end+0xf8000c88>
 8002564:	d8802617 	ldw	r2,152(sp)
 8002568:	d9403317 	ldw	r5,204(sp)
 800256c:	d8c02017 	ldw	r3,128(sp)
 8002570:	da000404 	addi	r8,sp,16
 8002574:	2885c83a 	sub	r2,r5,r2
 8002578:	003dfb06 	br	8001d68 <__alt_data_end+0xf8001d68>
 800257c:	9080004c 	andi	r2,r18,1
 8002580:	103e8f1e 	bne	r2,zero,8001fc0 <__alt_data_end+0xf8001fc0>
 8002584:	d8802117 	ldw	r2,132(sp)
 8002588:	003e9e06 	br	8002004 <__alt_data_end+0xf8002004>
 800258c:	1025883a 	mov	r18,r2
 8002590:	0039883a 	mov	fp,zero
 8002594:	00800084 	movi	r2,2
 8002598:	003fd306 	br	80024e8 <__alt_data_end+0xf80024e8>
 800259c:	07000b44 	movi	fp,45
 80025a0:	df002785 	stb	fp,158(sp)
 80025a4:	003a4006 	br	8000ea8 <__alt_data_end+0xf8000ea8>
 80025a8:	00c00b44 	movi	r3,45
 80025ac:	d8c02785 	stb	r3,158(sp)
 80025b0:	d8802a15 	stw	r2,168(sp)
 80025b4:	dc802b17 	ldw	r18,172(sp)
 80025b8:	d8002915 	stw	zero,164(sp)
 80025bc:	07000b44 	movi	fp,45
 80025c0:	003a8006 	br	8000fc4 <__alt_data_end+0xf8000fc4>
 80025c4:	040200b4 	movhi	r16,2050
 80025c8:	8423dd04 	addi	r16,r16,-28812
 80025cc:	003f4706 	br	80022ec <__alt_data_end+0xf80022ec>
 80025d0:	d8c02d17 	ldw	r3,180(sp)
 80025d4:	d9002f17 	ldw	r4,188(sp)
 80025d8:	18800017 	ldw	r2,0(r3)
 80025dc:	18c00104 	addi	r3,r3,4
 80025e0:	d8c02d15 	stw	r3,180(sp)
 80025e4:	11000015 	stw	r4,0(r2)
 80025e8:	0038dd06 	br	8000960 <__alt_data_end+0xf8000960>
 80025ec:	dd802617 	ldw	r22,152(sp)
 80025f0:	00bfff44 	movi	r2,-3
 80025f4:	b0801c16 	blt	r22,r2,8002668 <___vfprintf_internal_r+0x1de8>
 80025f8:	d9402917 	ldw	r5,164(sp)
 80025fc:	2d801a16 	blt	r5,r22,8002668 <___vfprintf_internal_r+0x1de8>
 8002600:	dd803215 	stw	r22,200(sp)
 8002604:	003e8906 	br	800202c <__alt_data_end+0xf800202c>
 8002608:	010200b4 	movhi	r4,2050
 800260c:	2123ea84 	addi	r4,r4,-28758
 8002610:	d9002b15 	stw	r4,172(sp)
 8002614:	003c9106 	br	800185c <__alt_data_end+0xf800185c>
 8002618:	e005883a 	mov	r2,fp
 800261c:	003e7906 	br	8002004 <__alt_data_end+0xf8002004>
 8002620:	d9402917 	ldw	r5,164(sp)
 8002624:	df002783 	ldbu	fp,158(sp)
 8002628:	dcc02d15 	stw	r19,180(sp)
 800262c:	d9402a15 	stw	r5,168(sp)
 8002630:	d9402e15 	stw	r5,184(sp)
 8002634:	d8002915 	stw	zero,164(sp)
 8002638:	d8003215 	stw	zero,200(sp)
 800263c:	003a5d06 	br	8000fb4 <__alt_data_end+0xf8000fb4>
 8002640:	9080004c 	andi	r2,r18,1
 8002644:	0039883a 	mov	fp,zero
 8002648:	10000426 	beq	r2,zero,800265c <___vfprintf_internal_r+0x1ddc>
 800264c:	00800c04 	movi	r2,48
 8002650:	dc001dc4 	addi	r16,sp,119
 8002654:	d8801dc5 	stb	r2,119(sp)
 8002658:	003b8006 	br	800145c <__alt_data_end+0xf800145c>
 800265c:	d8002e15 	stw	zero,184(sp)
 8002660:	dc001e04 	addi	r16,sp,120
 8002664:	003a4d06 	br	8000f9c <__alt_data_end+0xf8000f9c>
 8002668:	8c7fff84 	addi	r17,r17,-2
 800266c:	b5bfffc4 	addi	r22,r22,-1
 8002670:	dd802615 	stw	r22,152(sp)
 8002674:	dc4022c5 	stb	r17,139(sp)
 8002678:	b000bf16 	blt	r22,zero,8002978 <___vfprintf_internal_r+0x20f8>
 800267c:	00800ac4 	movi	r2,43
 8002680:	d8802305 	stb	r2,140(sp)
 8002684:	00800244 	movi	r2,9
 8002688:	15807016 	blt	r2,r22,800284c <___vfprintf_internal_r+0x1fcc>
 800268c:	00800c04 	movi	r2,48
 8002690:	b5800c04 	addi	r22,r22,48
 8002694:	d8802345 	stb	r2,141(sp)
 8002698:	dd802385 	stb	r22,142(sp)
 800269c:	d88023c4 	addi	r2,sp,143
 80026a0:	df0022c4 	addi	fp,sp,139
 80026a4:	d8c03317 	ldw	r3,204(sp)
 80026a8:	1739c83a 	sub	fp,r2,fp
 80026ac:	d9003317 	ldw	r4,204(sp)
 80026b0:	e0c7883a 	add	r3,fp,r3
 80026b4:	df003a15 	stw	fp,232(sp)
 80026b8:	d8c02e15 	stw	r3,184(sp)
 80026bc:	00800044 	movi	r2,1
 80026c0:	1100b30e 	bge	r2,r4,8002990 <___vfprintf_internal_r+0x2110>
 80026c4:	d8c02e17 	ldw	r3,184(sp)
 80026c8:	18c00044 	addi	r3,r3,1
 80026cc:	d8c02e15 	stw	r3,184(sp)
 80026d0:	1805883a 	mov	r2,r3
 80026d4:	1800ac16 	blt	r3,zero,8002988 <___vfprintf_internal_r+0x2108>
 80026d8:	d8003215 	stw	zero,200(sp)
 80026dc:	003e5d06 	br	8002054 <__alt_data_end+0xf8002054>
 80026e0:	d9002c17 	ldw	r4,176(sp)
 80026e4:	d9801e04 	addi	r6,sp,120
 80026e8:	b80b883a 	mov	r5,r23
 80026ec:	8007e7c0 	call	8007e7c <__sprint_r>
 80026f0:	1039651e 	bne	r2,zero,8000c88 <__alt_data_end+0xf8000c88>
 80026f4:	dc402617 	ldw	r17,152(sp)
 80026f8:	d8c02017 	ldw	r3,128(sp)
 80026fc:	d8801f17 	ldw	r2,124(sp)
 8002700:	da000404 	addi	r8,sp,16
 8002704:	003ed606 	br	8002260 <__alt_data_end+0xf8002260>
 8002708:	582b883a 	mov	r21,r11
 800270c:	d8002915 	stw	zero,164(sp)
 8002710:	0038bd06 	br	8000a08 <__alt_data_end+0xf8000a08>
 8002714:	d8802917 	ldw	r2,164(sp)
 8002718:	103e071e 	bne	r2,zero,8001f38 <__alt_data_end+0xf8001f38>
 800271c:	dc002915 	stw	r16,164(sp)
 8002720:	003e0506 	br	8001f38 <__alt_data_end+0xf8001f38>
 8002724:	d9002917 	ldw	r4,164(sp)
 8002728:	20c00044 	addi	r3,r4,1
 800272c:	003e0f06 	br	8001f6c <__alt_data_end+0xf8001f6c>
 8002730:	01400184 	movi	r5,6
 8002734:	d9402915 	stw	r5,164(sp)
 8002738:	003dff06 	br	8001f38 <__alt_data_end+0xf8001f38>
 800273c:	d8802104 	addi	r2,sp,132
 8002740:	d8800315 	stw	r2,12(sp)
 8002744:	d8802504 	addi	r2,sp,148
 8002748:	d8800215 	stw	r2,8(sp)
 800274c:	d8802604 	addi	r2,sp,152
 8002750:	d8800115 	stw	r2,4(sp)
 8002754:	d8802917 	ldw	r2,164(sp)
 8002758:	d9403617 	ldw	r5,216(sp)
 800275c:	d9002c17 	ldw	r4,176(sp)
 8002760:	d8800015 	stw	r2,0(sp)
 8002764:	01c000c4 	movi	r7,3
 8002768:	980d883a 	mov	r6,r19
 800276c:	da003d15 	stw	r8,244(sp)
 8002770:	8002ea40 	call	8002ea4 <_dtoa_r>
 8002774:	d8c02917 	ldw	r3,164(sp)
 8002778:	da003d17 	ldw	r8,244(sp)
 800277c:	1021883a 	mov	r16,r2
 8002780:	10f9883a 	add	fp,r2,r3
 8002784:	81000007 	ldb	r4,0(r16)
 8002788:	00800c04 	movi	r2,48
 800278c:	20805e26 	beq	r4,r2,8002908 <___vfprintf_internal_r+0x2088>
 8002790:	d8c02617 	ldw	r3,152(sp)
 8002794:	e0f9883a 	add	fp,fp,r3
 8002798:	003e0a06 	br	8001fc4 <__alt_data_end+0xf8001fc4>
 800279c:	00c00b44 	movi	r3,45
 80027a0:	24e0003c 	xorhi	r19,r4,32768
 80027a4:	d8c02a05 	stb	r3,168(sp)
 80027a8:	003de906 	br	8001f50 <__alt_data_end+0xf8001f50>
 80027ac:	d8c03217 	ldw	r3,200(sp)
 80027b0:	00c07a0e 	bge	zero,r3,800299c <___vfprintf_internal_r+0x211c>
 80027b4:	00800044 	movi	r2,1
 80027b8:	d9003317 	ldw	r4,204(sp)
 80027bc:	1105883a 	add	r2,r2,r4
 80027c0:	d8802e15 	stw	r2,184(sp)
 80027c4:	10004e16 	blt	r2,zero,8002900 <___vfprintf_internal_r+0x2080>
 80027c8:	044019c4 	movi	r17,103
 80027cc:	003e2106 	br	8002054 <__alt_data_end+0xf8002054>
 80027d0:	d9002917 	ldw	r4,164(sp)
 80027d4:	d8802104 	addi	r2,sp,132
 80027d8:	d8800315 	stw	r2,12(sp)
 80027dc:	d9000015 	stw	r4,0(sp)
 80027e0:	d8802504 	addi	r2,sp,148
 80027e4:	d9403617 	ldw	r5,216(sp)
 80027e8:	d9002c17 	ldw	r4,176(sp)
 80027ec:	d8800215 	stw	r2,8(sp)
 80027f0:	d8802604 	addi	r2,sp,152
 80027f4:	d8800115 	stw	r2,4(sp)
 80027f8:	01c000c4 	movi	r7,3
 80027fc:	980d883a 	mov	r6,r19
 8002800:	da003d15 	stw	r8,244(sp)
 8002804:	8002ea40 	call	8002ea4 <_dtoa_r>
 8002808:	d8c02917 	ldw	r3,164(sp)
 800280c:	da003d17 	ldw	r8,244(sp)
 8002810:	1021883a 	mov	r16,r2
 8002814:	00801184 	movi	r2,70
 8002818:	80f9883a 	add	fp,r16,r3
 800281c:	88bfd926 	beq	r17,r2,8002784 <__alt_data_end+0xf8002784>
 8002820:	003de806 	br	8001fc4 <__alt_data_end+0xf8001fc4>
 8002824:	d9002917 	ldw	r4,164(sp)
 8002828:	00c04d0e 	bge	zero,r3,8002960 <___vfprintf_internal_r+0x20e0>
 800282c:	2000441e 	bne	r4,zero,8002940 <___vfprintf_internal_r+0x20c0>
 8002830:	9480004c 	andi	r18,r18,1
 8002834:	9000421e 	bne	r18,zero,8002940 <___vfprintf_internal_r+0x20c0>
 8002838:	1805883a 	mov	r2,r3
 800283c:	18007016 	blt	r3,zero,8002a00 <___vfprintf_internal_r+0x2180>
 8002840:	d8c03217 	ldw	r3,200(sp)
 8002844:	d8c02e15 	stw	r3,184(sp)
 8002848:	003e0206 	br	8002054 <__alt_data_end+0xf8002054>
 800284c:	df0022c4 	addi	fp,sp,139
 8002850:	dc002915 	stw	r16,164(sp)
 8002854:	4027883a 	mov	r19,r8
 8002858:	e021883a 	mov	r16,fp
 800285c:	b009883a 	mov	r4,r22
 8002860:	01400284 	movi	r5,10
 8002864:	800a8300 	call	800a830 <__modsi3>
 8002868:	10800c04 	addi	r2,r2,48
 800286c:	843fffc4 	addi	r16,r16,-1
 8002870:	b009883a 	mov	r4,r22
 8002874:	01400284 	movi	r5,10
 8002878:	80800005 	stb	r2,0(r16)
 800287c:	800a7ac0 	call	800a7ac <__divsi3>
 8002880:	102d883a 	mov	r22,r2
 8002884:	00800244 	movi	r2,9
 8002888:	15bff416 	blt	r2,r22,800285c <__alt_data_end+0xf800285c>
 800288c:	9811883a 	mov	r8,r19
 8002890:	b0800c04 	addi	r2,r22,48
 8002894:	8027883a 	mov	r19,r16
 8002898:	997fffc4 	addi	r5,r19,-1
 800289c:	98bfffc5 	stb	r2,-1(r19)
 80028a0:	dc002917 	ldw	r16,164(sp)
 80028a4:	2f006a2e 	bgeu	r5,fp,8002a50 <___vfprintf_internal_r+0x21d0>
 80028a8:	d9c02384 	addi	r7,sp,142
 80028ac:	3ccfc83a 	sub	r7,r7,r19
 80028b0:	d9002344 	addi	r4,sp,141
 80028b4:	e1cf883a 	add	r7,fp,r7
 80028b8:	00000106 	br	80028c0 <___vfprintf_internal_r+0x2040>
 80028bc:	28800003 	ldbu	r2,0(r5)
 80028c0:	20800005 	stb	r2,0(r4)
 80028c4:	21000044 	addi	r4,r4,1
 80028c8:	29400044 	addi	r5,r5,1
 80028cc:	393ffb1e 	bne	r7,r4,80028bc <__alt_data_end+0xf80028bc>
 80028d0:	d8802304 	addi	r2,sp,140
 80028d4:	14c5c83a 	sub	r2,r2,r19
 80028d8:	d8c02344 	addi	r3,sp,141
 80028dc:	1885883a 	add	r2,r3,r2
 80028e0:	003f7006 	br	80026a4 <__alt_data_end+0xf80026a4>
 80028e4:	0005883a 	mov	r2,zero
 80028e8:	003f0f06 	br	8002528 <__alt_data_end+0xf8002528>
 80028ec:	d8c03217 	ldw	r3,200(sp)
 80028f0:	18c00044 	addi	r3,r3,1
 80028f4:	d8c02e15 	stw	r3,184(sp)
 80028f8:	1805883a 	mov	r2,r3
 80028fc:	183fb20e 	bge	r3,zero,80027c8 <__alt_data_end+0xf80027c8>
 8002900:	0005883a 	mov	r2,zero
 8002904:	003fb006 	br	80027c8 <__alt_data_end+0xf80027c8>
 8002908:	d9003617 	ldw	r4,216(sp)
 800290c:	000d883a 	mov	r6,zero
 8002910:	000f883a 	mov	r7,zero
 8002914:	980b883a 	mov	r5,r19
 8002918:	d8c03c15 	stw	r3,240(sp)
 800291c:	da003d15 	stw	r8,244(sp)
 8002920:	800baf40 	call	800baf4 <__eqdf2>
 8002924:	d8c03c17 	ldw	r3,240(sp)
 8002928:	da003d17 	ldw	r8,244(sp)
 800292c:	103f9826 	beq	r2,zero,8002790 <__alt_data_end+0xf8002790>
 8002930:	00800044 	movi	r2,1
 8002934:	10c7c83a 	sub	r3,r2,r3
 8002938:	d8c02615 	stw	r3,152(sp)
 800293c:	003f9506 	br	8002794 <__alt_data_end+0xf8002794>
 8002940:	d9002917 	ldw	r4,164(sp)
 8002944:	d8c03217 	ldw	r3,200(sp)
 8002948:	20800044 	addi	r2,r4,1
 800294c:	1885883a 	add	r2,r3,r2
 8002950:	d8802e15 	stw	r2,184(sp)
 8002954:	103dbf0e 	bge	r2,zero,8002054 <__alt_data_end+0xf8002054>
 8002958:	0005883a 	mov	r2,zero
 800295c:	003dbd06 	br	8002054 <__alt_data_end+0xf8002054>
 8002960:	2000211e 	bne	r4,zero,80029e8 <___vfprintf_internal_r+0x2168>
 8002964:	9480004c 	andi	r18,r18,1
 8002968:	90001f1e 	bne	r18,zero,80029e8 <___vfprintf_internal_r+0x2168>
 800296c:	00800044 	movi	r2,1
 8002970:	d8802e15 	stw	r2,184(sp)
 8002974:	003db706 	br	8002054 <__alt_data_end+0xf8002054>
 8002978:	00800b44 	movi	r2,45
 800297c:	05adc83a 	sub	r22,zero,r22
 8002980:	d8802305 	stb	r2,140(sp)
 8002984:	003f3f06 	br	8002684 <__alt_data_end+0xf8002684>
 8002988:	0005883a 	mov	r2,zero
 800298c:	003f5206 	br	80026d8 <__alt_data_end+0xf80026d8>
 8002990:	90a4703a 	and	r18,r18,r2
 8002994:	903f4e26 	beq	r18,zero,80026d0 <__alt_data_end+0xf80026d0>
 8002998:	003f4a06 	br	80026c4 <__alt_data_end+0xf80026c4>
 800299c:	00800084 	movi	r2,2
 80029a0:	10c5c83a 	sub	r2,r2,r3
 80029a4:	003f8406 	br	80027b8 <__alt_data_end+0xf80027b8>
 80029a8:	d8802d17 	ldw	r2,180(sp)
 80029ac:	d9002d17 	ldw	r4,180(sp)
 80029b0:	ac400043 	ldbu	r17,1(r21)
 80029b4:	10800017 	ldw	r2,0(r2)
 80029b8:	582b883a 	mov	r21,r11
 80029bc:	d8802915 	stw	r2,164(sp)
 80029c0:	20800104 	addi	r2,r4,4
 80029c4:	d9002917 	ldw	r4,164(sp)
 80029c8:	d8802d15 	stw	r2,180(sp)
 80029cc:	203e7a0e 	bge	r4,zero,80023b8 <__alt_data_end+0xf80023b8>
 80029d0:	8c403fcc 	andi	r17,r17,255
 80029d4:	00bfffc4 	movi	r2,-1
 80029d8:	8c40201c 	xori	r17,r17,128
 80029dc:	d8802915 	stw	r2,164(sp)
 80029e0:	8c7fe004 	addi	r17,r17,-128
 80029e4:	00380706 	br	8000a04 <__alt_data_end+0xf8000a04>
 80029e8:	d8c02917 	ldw	r3,164(sp)
 80029ec:	18c00084 	addi	r3,r3,2
 80029f0:	d8c02e15 	stw	r3,184(sp)
 80029f4:	1805883a 	mov	r2,r3
 80029f8:	183d960e 	bge	r3,zero,8002054 <__alt_data_end+0xf8002054>
 80029fc:	003fd606 	br	8002958 <__alt_data_end+0xf8002958>
 8002a00:	0005883a 	mov	r2,zero
 8002a04:	003f8e06 	br	8002840 <__alt_data_end+0xf8002840>
 8002a08:	9080004c 	andi	r2,r18,1
 8002a0c:	103f811e 	bne	r2,zero,8002814 <__alt_data_end+0xf8002814>
 8002a10:	d8802117 	ldw	r2,132(sp)
 8002a14:	1405c83a 	sub	r2,r2,r16
 8002a18:	d8803315 	stw	r2,204(sp)
 8002a1c:	b47ef326 	beq	r22,r17,80025ec <__alt_data_end+0xf80025ec>
 8002a20:	dd802617 	ldw	r22,152(sp)
 8002a24:	003f1106 	br	800266c <__alt_data_end+0xf800266c>
 8002a28:	d9c02785 	stb	r7,158(sp)
 8002a2c:	00390406 	br	8000e40 <__alt_data_end+0xf8000e40>
 8002a30:	d9c02785 	stb	r7,158(sp)
 8002a34:	0038d306 	br	8000d84 <__alt_data_end+0xf8000d84>
 8002a38:	d9c02785 	stb	r7,158(sp)
 8002a3c:	003a6106 	br	80013c4 <__alt_data_end+0xf80013c4>
 8002a40:	d9c02785 	stb	r7,158(sp)
 8002a44:	003af806 	br	8001628 <__alt_data_end+0xf8001628>
 8002a48:	0005883a 	mov	r2,zero
 8002a4c:	003d7e06 	br	8002048 <__alt_data_end+0xf8002048>
 8002a50:	d8802344 	addi	r2,sp,141
 8002a54:	003f1306 	br	80026a4 <__alt_data_end+0xf80026a4>
 8002a58:	d9c02785 	stb	r7,158(sp)
 8002a5c:	00392306 	br	8000eec <__alt_data_end+0xf8000eec>
 8002a60:	d9c02785 	stb	r7,158(sp)
 8002a64:	003aa906 	br	800150c <__alt_data_end+0xf800150c>
 8002a68:	d9c02785 	stb	r7,158(sp)
 8002a6c:	003a3d06 	br	8001364 <__alt_data_end+0xf8001364>
 8002a70:	d9c02785 	stb	r7,158(sp)
 8002a74:	003aca06 	br	80015a0 <__alt_data_end+0xf80015a0>

08002a78 <__vfprintf_internal>:
 8002a78:	008200b4 	movhi	r2,2050
 8002a7c:	10ab9f04 	addi	r2,r2,-20868
 8002a80:	300f883a 	mov	r7,r6
 8002a84:	280d883a 	mov	r6,r5
 8002a88:	200b883a 	mov	r5,r4
 8002a8c:	11000017 	ldw	r4,0(r2)
 8002a90:	80008801 	jmpi	8000880 <___vfprintf_internal_r>

08002a94 <__sbprintf>:
 8002a94:	2880030b 	ldhu	r2,12(r5)
 8002a98:	2ac01917 	ldw	r11,100(r5)
 8002a9c:	2a80038b 	ldhu	r10,14(r5)
 8002aa0:	2a400717 	ldw	r9,28(r5)
 8002aa4:	2a000917 	ldw	r8,36(r5)
 8002aa8:	defee204 	addi	sp,sp,-1144
 8002aac:	00c10004 	movi	r3,1024
 8002ab0:	dc011a15 	stw	r16,1128(sp)
 8002ab4:	10bfff4c 	andi	r2,r2,65533
 8002ab8:	2821883a 	mov	r16,r5
 8002abc:	d8cb883a 	add	r5,sp,r3
 8002ac0:	dc811c15 	stw	r18,1136(sp)
 8002ac4:	dc411b15 	stw	r17,1132(sp)
 8002ac8:	dfc11d15 	stw	ra,1140(sp)
 8002acc:	2025883a 	mov	r18,r4
 8002ad0:	d881030d 	sth	r2,1036(sp)
 8002ad4:	dac11915 	stw	r11,1124(sp)
 8002ad8:	da81038d 	sth	r10,1038(sp)
 8002adc:	da410715 	stw	r9,1052(sp)
 8002ae0:	da010915 	stw	r8,1060(sp)
 8002ae4:	dec10015 	stw	sp,1024(sp)
 8002ae8:	dec10415 	stw	sp,1040(sp)
 8002aec:	d8c10215 	stw	r3,1032(sp)
 8002af0:	d8c10515 	stw	r3,1044(sp)
 8002af4:	d8010615 	stw	zero,1048(sp)
 8002af8:	80008800 	call	8000880 <___vfprintf_internal_r>
 8002afc:	1023883a 	mov	r17,r2
 8002b00:	10000416 	blt	r2,zero,8002b14 <__sbprintf+0x80>
 8002b04:	d9410004 	addi	r5,sp,1024
 8002b08:	9009883a 	mov	r4,r18
 8002b0c:	80047480 	call	8004748 <_fflush_r>
 8002b10:	10000d1e 	bne	r2,zero,8002b48 <__sbprintf+0xb4>
 8002b14:	d881030b 	ldhu	r2,1036(sp)
 8002b18:	1080100c 	andi	r2,r2,64
 8002b1c:	10000326 	beq	r2,zero,8002b2c <__sbprintf+0x98>
 8002b20:	8080030b 	ldhu	r2,12(r16)
 8002b24:	10801014 	ori	r2,r2,64
 8002b28:	8080030d 	sth	r2,12(r16)
 8002b2c:	8805883a 	mov	r2,r17
 8002b30:	dfc11d17 	ldw	ra,1140(sp)
 8002b34:	dc811c17 	ldw	r18,1136(sp)
 8002b38:	dc411b17 	ldw	r17,1132(sp)
 8002b3c:	dc011a17 	ldw	r16,1128(sp)
 8002b40:	dec11e04 	addi	sp,sp,1144
 8002b44:	f800283a 	ret
 8002b48:	047fffc4 	movi	r17,-1
 8002b4c:	003ff106 	br	8002b14 <__alt_data_end+0xf8002b14>

08002b50 <__swsetup_r>:
 8002b50:	008200b4 	movhi	r2,2050
 8002b54:	defffd04 	addi	sp,sp,-12
 8002b58:	10ab9f04 	addi	r2,r2,-20868
 8002b5c:	dc400115 	stw	r17,4(sp)
 8002b60:	2023883a 	mov	r17,r4
 8002b64:	11000017 	ldw	r4,0(r2)
 8002b68:	dc000015 	stw	r16,0(sp)
 8002b6c:	dfc00215 	stw	ra,8(sp)
 8002b70:	2821883a 	mov	r16,r5
 8002b74:	20000226 	beq	r4,zero,8002b80 <__swsetup_r+0x30>
 8002b78:	20800e17 	ldw	r2,56(r4)
 8002b7c:	10003126 	beq	r2,zero,8002c44 <__swsetup_r+0xf4>
 8002b80:	8080030b 	ldhu	r2,12(r16)
 8002b84:	10c0020c 	andi	r3,r2,8
 8002b88:	1009883a 	mov	r4,r2
 8002b8c:	18000f26 	beq	r3,zero,8002bcc <__swsetup_r+0x7c>
 8002b90:	80c00417 	ldw	r3,16(r16)
 8002b94:	18001526 	beq	r3,zero,8002bec <__swsetup_r+0x9c>
 8002b98:	1100004c 	andi	r4,r2,1
 8002b9c:	20001c1e 	bne	r4,zero,8002c10 <__swsetup_r+0xc0>
 8002ba0:	1080008c 	andi	r2,r2,2
 8002ba4:	1000291e 	bne	r2,zero,8002c4c <__swsetup_r+0xfc>
 8002ba8:	80800517 	ldw	r2,20(r16)
 8002bac:	80800215 	stw	r2,8(r16)
 8002bb0:	18001c26 	beq	r3,zero,8002c24 <__swsetup_r+0xd4>
 8002bb4:	0005883a 	mov	r2,zero
 8002bb8:	dfc00217 	ldw	ra,8(sp)
 8002bbc:	dc400117 	ldw	r17,4(sp)
 8002bc0:	dc000017 	ldw	r16,0(sp)
 8002bc4:	dec00304 	addi	sp,sp,12
 8002bc8:	f800283a 	ret
 8002bcc:	2080040c 	andi	r2,r4,16
 8002bd0:	10002e26 	beq	r2,zero,8002c8c <__swsetup_r+0x13c>
 8002bd4:	2080010c 	andi	r2,r4,4
 8002bd8:	10001e1e 	bne	r2,zero,8002c54 <__swsetup_r+0x104>
 8002bdc:	80c00417 	ldw	r3,16(r16)
 8002be0:	20800214 	ori	r2,r4,8
 8002be4:	8080030d 	sth	r2,12(r16)
 8002be8:	183feb1e 	bne	r3,zero,8002b98 <__alt_data_end+0xf8002b98>
 8002bec:	1100a00c 	andi	r4,r2,640
 8002bf0:	01408004 	movi	r5,512
 8002bf4:	217fe826 	beq	r4,r5,8002b98 <__alt_data_end+0xf8002b98>
 8002bf8:	800b883a 	mov	r5,r16
 8002bfc:	8809883a 	mov	r4,r17
 8002c00:	80056c80 	call	80056c8 <__smakebuf_r>
 8002c04:	8080030b 	ldhu	r2,12(r16)
 8002c08:	80c00417 	ldw	r3,16(r16)
 8002c0c:	003fe206 	br	8002b98 <__alt_data_end+0xf8002b98>
 8002c10:	80800517 	ldw	r2,20(r16)
 8002c14:	80000215 	stw	zero,8(r16)
 8002c18:	0085c83a 	sub	r2,zero,r2
 8002c1c:	80800615 	stw	r2,24(r16)
 8002c20:	183fe41e 	bne	r3,zero,8002bb4 <__alt_data_end+0xf8002bb4>
 8002c24:	80c0030b 	ldhu	r3,12(r16)
 8002c28:	0005883a 	mov	r2,zero
 8002c2c:	1900200c 	andi	r4,r3,128
 8002c30:	203fe126 	beq	r4,zero,8002bb8 <__alt_data_end+0xf8002bb8>
 8002c34:	18c01014 	ori	r3,r3,64
 8002c38:	80c0030d 	sth	r3,12(r16)
 8002c3c:	00bfffc4 	movi	r2,-1
 8002c40:	003fdd06 	br	8002bb8 <__alt_data_end+0xf8002bb8>
 8002c44:	8004b240 	call	8004b24 <__sinit>
 8002c48:	003fcd06 	br	8002b80 <__alt_data_end+0xf8002b80>
 8002c4c:	0005883a 	mov	r2,zero
 8002c50:	003fd606 	br	8002bac <__alt_data_end+0xf8002bac>
 8002c54:	81400c17 	ldw	r5,48(r16)
 8002c58:	28000626 	beq	r5,zero,8002c74 <__swsetup_r+0x124>
 8002c5c:	80801004 	addi	r2,r16,64
 8002c60:	28800326 	beq	r5,r2,8002c70 <__swsetup_r+0x120>
 8002c64:	8809883a 	mov	r4,r17
 8002c68:	8004c980 	call	8004c98 <_free_r>
 8002c6c:	8100030b 	ldhu	r4,12(r16)
 8002c70:	80000c15 	stw	zero,48(r16)
 8002c74:	80c00417 	ldw	r3,16(r16)
 8002c78:	00bff6c4 	movi	r2,-37
 8002c7c:	1108703a 	and	r4,r2,r4
 8002c80:	80000115 	stw	zero,4(r16)
 8002c84:	80c00015 	stw	r3,0(r16)
 8002c88:	003fd506 	br	8002be0 <__alt_data_end+0xf8002be0>
 8002c8c:	00800244 	movi	r2,9
 8002c90:	88800015 	stw	r2,0(r17)
 8002c94:	20801014 	ori	r2,r4,64
 8002c98:	8080030d 	sth	r2,12(r16)
 8002c9c:	00bfffc4 	movi	r2,-1
 8002ca0:	003fc506 	br	8002bb8 <__alt_data_end+0xf8002bb8>

08002ca4 <quorem>:
 8002ca4:	defff704 	addi	sp,sp,-36
 8002ca8:	dc800215 	stw	r18,8(sp)
 8002cac:	20800417 	ldw	r2,16(r4)
 8002cb0:	2c800417 	ldw	r18,16(r5)
 8002cb4:	dfc00815 	stw	ra,32(sp)
 8002cb8:	ddc00715 	stw	r23,28(sp)
 8002cbc:	dd800615 	stw	r22,24(sp)
 8002cc0:	dd400515 	stw	r21,20(sp)
 8002cc4:	dd000415 	stw	r20,16(sp)
 8002cc8:	dcc00315 	stw	r19,12(sp)
 8002ccc:	dc400115 	stw	r17,4(sp)
 8002cd0:	dc000015 	stw	r16,0(sp)
 8002cd4:	14807116 	blt	r2,r18,8002e9c <quorem+0x1f8>
 8002cd8:	94bfffc4 	addi	r18,r18,-1
 8002cdc:	94ad883a 	add	r22,r18,r18
 8002ce0:	b5ad883a 	add	r22,r22,r22
 8002ce4:	2c400504 	addi	r17,r5,20
 8002ce8:	8da9883a 	add	r20,r17,r22
 8002cec:	25400504 	addi	r21,r4,20
 8002cf0:	282f883a 	mov	r23,r5
 8002cf4:	adad883a 	add	r22,r21,r22
 8002cf8:	a1400017 	ldw	r5,0(r20)
 8002cfc:	2021883a 	mov	r16,r4
 8002d00:	b1000017 	ldw	r4,0(r22)
 8002d04:	29400044 	addi	r5,r5,1
 8002d08:	800a8a40 	call	800a8a4 <__udivsi3>
 8002d0c:	1027883a 	mov	r19,r2
 8002d10:	10002c26 	beq	r2,zero,8002dc4 <quorem+0x120>
 8002d14:	a813883a 	mov	r9,r21
 8002d18:	880b883a 	mov	r5,r17
 8002d1c:	0009883a 	mov	r4,zero
 8002d20:	000d883a 	mov	r6,zero
 8002d24:	2a000017 	ldw	r8,0(r5)
 8002d28:	49c00017 	ldw	r7,0(r9)
 8002d2c:	29400104 	addi	r5,r5,4
 8002d30:	40bfffcc 	andi	r2,r8,65535
 8002d34:	14c5383a 	mul	r2,r2,r19
 8002d38:	4010d43a 	srli	r8,r8,16
 8002d3c:	38ffffcc 	andi	r3,r7,65535
 8002d40:	1105883a 	add	r2,r2,r4
 8002d44:	1008d43a 	srli	r4,r2,16
 8002d48:	44d1383a 	mul	r8,r8,r19
 8002d4c:	198d883a 	add	r6,r3,r6
 8002d50:	10ffffcc 	andi	r3,r2,65535
 8002d54:	30c7c83a 	sub	r3,r6,r3
 8002d58:	380ed43a 	srli	r7,r7,16
 8002d5c:	4105883a 	add	r2,r8,r4
 8002d60:	180dd43a 	srai	r6,r3,16
 8002d64:	113fffcc 	andi	r4,r2,65535
 8002d68:	390fc83a 	sub	r7,r7,r4
 8002d6c:	398d883a 	add	r6,r7,r6
 8002d70:	300e943a 	slli	r7,r6,16
 8002d74:	18ffffcc 	andi	r3,r3,65535
 8002d78:	1008d43a 	srli	r4,r2,16
 8002d7c:	38ceb03a 	or	r7,r7,r3
 8002d80:	49c00015 	stw	r7,0(r9)
 8002d84:	300dd43a 	srai	r6,r6,16
 8002d88:	4a400104 	addi	r9,r9,4
 8002d8c:	a17fe52e 	bgeu	r20,r5,8002d24 <__alt_data_end+0xf8002d24>
 8002d90:	b0800017 	ldw	r2,0(r22)
 8002d94:	10000b1e 	bne	r2,zero,8002dc4 <quorem+0x120>
 8002d98:	b0bfff04 	addi	r2,r22,-4
 8002d9c:	a880082e 	bgeu	r21,r2,8002dc0 <quorem+0x11c>
 8002da0:	b0ffff17 	ldw	r3,-4(r22)
 8002da4:	18000326 	beq	r3,zero,8002db4 <quorem+0x110>
 8002da8:	00000506 	br	8002dc0 <quorem+0x11c>
 8002dac:	10c00017 	ldw	r3,0(r2)
 8002db0:	1800031e 	bne	r3,zero,8002dc0 <quorem+0x11c>
 8002db4:	10bfff04 	addi	r2,r2,-4
 8002db8:	94bfffc4 	addi	r18,r18,-1
 8002dbc:	a8bffb36 	bltu	r21,r2,8002dac <__alt_data_end+0xf8002dac>
 8002dc0:	84800415 	stw	r18,16(r16)
 8002dc4:	b80b883a 	mov	r5,r23
 8002dc8:	8009883a 	mov	r4,r16
 8002dcc:	8006e080 	call	8006e08 <__mcmp>
 8002dd0:	10002616 	blt	r2,zero,8002e6c <quorem+0x1c8>
 8002dd4:	9cc00044 	addi	r19,r19,1
 8002dd8:	a805883a 	mov	r2,r21
 8002ddc:	000b883a 	mov	r5,zero
 8002de0:	11000017 	ldw	r4,0(r2)
 8002de4:	89800017 	ldw	r6,0(r17)
 8002de8:	10800104 	addi	r2,r2,4
 8002dec:	20ffffcc 	andi	r3,r4,65535
 8002df0:	194b883a 	add	r5,r3,r5
 8002df4:	30ffffcc 	andi	r3,r6,65535
 8002df8:	28c7c83a 	sub	r3,r5,r3
 8002dfc:	300cd43a 	srli	r6,r6,16
 8002e00:	2008d43a 	srli	r4,r4,16
 8002e04:	180bd43a 	srai	r5,r3,16
 8002e08:	18ffffcc 	andi	r3,r3,65535
 8002e0c:	2189c83a 	sub	r4,r4,r6
 8002e10:	2149883a 	add	r4,r4,r5
 8002e14:	200c943a 	slli	r6,r4,16
 8002e18:	8c400104 	addi	r17,r17,4
 8002e1c:	200bd43a 	srai	r5,r4,16
 8002e20:	30c6b03a 	or	r3,r6,r3
 8002e24:	10ffff15 	stw	r3,-4(r2)
 8002e28:	a47fed2e 	bgeu	r20,r17,8002de0 <__alt_data_end+0xf8002de0>
 8002e2c:	9485883a 	add	r2,r18,r18
 8002e30:	1085883a 	add	r2,r2,r2
 8002e34:	a887883a 	add	r3,r21,r2
 8002e38:	18800017 	ldw	r2,0(r3)
 8002e3c:	10000b1e 	bne	r2,zero,8002e6c <quorem+0x1c8>
 8002e40:	18bfff04 	addi	r2,r3,-4
 8002e44:	a880082e 	bgeu	r21,r2,8002e68 <quorem+0x1c4>
 8002e48:	18ffff17 	ldw	r3,-4(r3)
 8002e4c:	18000326 	beq	r3,zero,8002e5c <quorem+0x1b8>
 8002e50:	00000506 	br	8002e68 <quorem+0x1c4>
 8002e54:	10c00017 	ldw	r3,0(r2)
 8002e58:	1800031e 	bne	r3,zero,8002e68 <quorem+0x1c4>
 8002e5c:	10bfff04 	addi	r2,r2,-4
 8002e60:	94bfffc4 	addi	r18,r18,-1
 8002e64:	a8bffb36 	bltu	r21,r2,8002e54 <__alt_data_end+0xf8002e54>
 8002e68:	84800415 	stw	r18,16(r16)
 8002e6c:	9805883a 	mov	r2,r19
 8002e70:	dfc00817 	ldw	ra,32(sp)
 8002e74:	ddc00717 	ldw	r23,28(sp)
 8002e78:	dd800617 	ldw	r22,24(sp)
 8002e7c:	dd400517 	ldw	r21,20(sp)
 8002e80:	dd000417 	ldw	r20,16(sp)
 8002e84:	dcc00317 	ldw	r19,12(sp)
 8002e88:	dc800217 	ldw	r18,8(sp)
 8002e8c:	dc400117 	ldw	r17,4(sp)
 8002e90:	dc000017 	ldw	r16,0(sp)
 8002e94:	dec00904 	addi	sp,sp,36
 8002e98:	f800283a 	ret
 8002e9c:	0005883a 	mov	r2,zero
 8002ea0:	003ff306 	br	8002e70 <__alt_data_end+0xf8002e70>

08002ea4 <_dtoa_r>:
 8002ea4:	20801017 	ldw	r2,64(r4)
 8002ea8:	deffde04 	addi	sp,sp,-136
 8002eac:	df002015 	stw	fp,128(sp)
 8002eb0:	dcc01b15 	stw	r19,108(sp)
 8002eb4:	dc801a15 	stw	r18,104(sp)
 8002eb8:	dc401915 	stw	r17,100(sp)
 8002ebc:	dc001815 	stw	r16,96(sp)
 8002ec0:	dfc02115 	stw	ra,132(sp)
 8002ec4:	ddc01f15 	stw	r23,124(sp)
 8002ec8:	dd801e15 	stw	r22,120(sp)
 8002ecc:	dd401d15 	stw	r21,116(sp)
 8002ed0:	dd001c15 	stw	r20,112(sp)
 8002ed4:	d9c00315 	stw	r7,12(sp)
 8002ed8:	2039883a 	mov	fp,r4
 8002edc:	3023883a 	mov	r17,r6
 8002ee0:	2825883a 	mov	r18,r5
 8002ee4:	dc002417 	ldw	r16,144(sp)
 8002ee8:	3027883a 	mov	r19,r6
 8002eec:	10000826 	beq	r2,zero,8002f10 <_dtoa_r+0x6c>
 8002ef0:	21801117 	ldw	r6,68(r4)
 8002ef4:	00c00044 	movi	r3,1
 8002ef8:	100b883a 	mov	r5,r2
 8002efc:	1986983a 	sll	r3,r3,r6
 8002f00:	11800115 	stw	r6,4(r2)
 8002f04:	10c00215 	stw	r3,8(r2)
 8002f08:	80065e80 	call	80065e8 <_Bfree>
 8002f0c:	e0001015 	stw	zero,64(fp)
 8002f10:	88002e16 	blt	r17,zero,8002fcc <_dtoa_r+0x128>
 8002f14:	80000015 	stw	zero,0(r16)
 8002f18:	889ffc2c 	andhi	r2,r17,32752
 8002f1c:	00dffc34 	movhi	r3,32752
 8002f20:	10c01c26 	beq	r2,r3,8002f94 <_dtoa_r+0xf0>
 8002f24:	000d883a 	mov	r6,zero
 8002f28:	000f883a 	mov	r7,zero
 8002f2c:	9009883a 	mov	r4,r18
 8002f30:	980b883a 	mov	r5,r19
 8002f34:	800baf40 	call	800baf4 <__eqdf2>
 8002f38:	10002b1e 	bne	r2,zero,8002fe8 <_dtoa_r+0x144>
 8002f3c:	d9c02317 	ldw	r7,140(sp)
 8002f40:	00800044 	movi	r2,1
 8002f44:	38800015 	stw	r2,0(r7)
 8002f48:	d8802517 	ldw	r2,148(sp)
 8002f4c:	10019e26 	beq	r2,zero,80035c8 <_dtoa_r+0x724>
 8002f50:	d8c02517 	ldw	r3,148(sp)
 8002f54:	008200b4 	movhi	r2,2050
 8002f58:	10a3ea44 	addi	r2,r2,-28759
 8002f5c:	18800015 	stw	r2,0(r3)
 8002f60:	10bfffc4 	addi	r2,r2,-1
 8002f64:	dfc02117 	ldw	ra,132(sp)
 8002f68:	df002017 	ldw	fp,128(sp)
 8002f6c:	ddc01f17 	ldw	r23,124(sp)
 8002f70:	dd801e17 	ldw	r22,120(sp)
 8002f74:	dd401d17 	ldw	r21,116(sp)
 8002f78:	dd001c17 	ldw	r20,112(sp)
 8002f7c:	dcc01b17 	ldw	r19,108(sp)
 8002f80:	dc801a17 	ldw	r18,104(sp)
 8002f84:	dc401917 	ldw	r17,100(sp)
 8002f88:	dc001817 	ldw	r16,96(sp)
 8002f8c:	dec02204 	addi	sp,sp,136
 8002f90:	f800283a 	ret
 8002f94:	d8c02317 	ldw	r3,140(sp)
 8002f98:	0089c3c4 	movi	r2,9999
 8002f9c:	18800015 	stw	r2,0(r3)
 8002fa0:	90017726 	beq	r18,zero,8003580 <_dtoa_r+0x6dc>
 8002fa4:	008200b4 	movhi	r2,2050
 8002fa8:	10a3f604 	addi	r2,r2,-28712
 8002fac:	d9002517 	ldw	r4,148(sp)
 8002fb0:	203fec26 	beq	r4,zero,8002f64 <__alt_data_end+0xf8002f64>
 8002fb4:	10c000c7 	ldb	r3,3(r2)
 8002fb8:	1801781e 	bne	r3,zero,800359c <_dtoa_r+0x6f8>
 8002fbc:	10c000c4 	addi	r3,r2,3
 8002fc0:	d9802517 	ldw	r6,148(sp)
 8002fc4:	30c00015 	stw	r3,0(r6)
 8002fc8:	003fe606 	br	8002f64 <__alt_data_end+0xf8002f64>
 8002fcc:	04e00034 	movhi	r19,32768
 8002fd0:	9cffffc4 	addi	r19,r19,-1
 8002fd4:	00800044 	movi	r2,1
 8002fd8:	8ce6703a 	and	r19,r17,r19
 8002fdc:	80800015 	stw	r2,0(r16)
 8002fe0:	9823883a 	mov	r17,r19
 8002fe4:	003fcc06 	br	8002f18 <__alt_data_end+0xf8002f18>
 8002fe8:	d8800204 	addi	r2,sp,8
 8002fec:	d8800015 	stw	r2,0(sp)
 8002ff0:	d9c00104 	addi	r7,sp,4
 8002ff4:	900b883a 	mov	r5,r18
 8002ff8:	980d883a 	mov	r6,r19
 8002ffc:	e009883a 	mov	r4,fp
 8003000:	8820d53a 	srli	r16,r17,20
 8003004:	80071d40 	call	80071d4 <__d2b>
 8003008:	d8800915 	stw	r2,36(sp)
 800300c:	8001651e 	bne	r16,zero,80035a4 <_dtoa_r+0x700>
 8003010:	dd800217 	ldw	r22,8(sp)
 8003014:	dc000117 	ldw	r16,4(sp)
 8003018:	00800804 	movi	r2,32
 800301c:	b421883a 	add	r16,r22,r16
 8003020:	80c10c84 	addi	r3,r16,1074
 8003024:	10c2d10e 	bge	r2,r3,8003b6c <_dtoa_r+0xcc8>
 8003028:	00801004 	movi	r2,64
 800302c:	81010484 	addi	r4,r16,1042
 8003030:	10c7c83a 	sub	r3,r2,r3
 8003034:	9108d83a 	srl	r4,r18,r4
 8003038:	88e2983a 	sll	r17,r17,r3
 800303c:	2448b03a 	or	r4,r4,r17
 8003040:	800cebc0 	call	800cebc <__floatunsidf>
 8003044:	017f8434 	movhi	r5,65040
 8003048:	01800044 	movi	r6,1
 800304c:	1009883a 	mov	r4,r2
 8003050:	194b883a 	add	r5,r3,r5
 8003054:	843fffc4 	addi	r16,r16,-1
 8003058:	d9801115 	stw	r6,68(sp)
 800305c:	000d883a 	mov	r6,zero
 8003060:	01cffe34 	movhi	r7,16376
 8003064:	800c4640 	call	800c464 <__subdf3>
 8003068:	0198dbf4 	movhi	r6,25455
 800306c:	01cff4f4 	movhi	r7,16339
 8003070:	3190d844 	addi	r6,r6,17249
 8003074:	39e1e9c4 	addi	r7,r7,-30809
 8003078:	1009883a 	mov	r4,r2
 800307c:	180b883a 	mov	r5,r3
 8003080:	800bd4c0 	call	800bd4c <__muldf3>
 8003084:	01a2d874 	movhi	r6,35681
 8003088:	01cff1f4 	movhi	r7,16327
 800308c:	31b22cc4 	addi	r6,r6,-14157
 8003090:	39e28a04 	addi	r7,r7,-30168
 8003094:	180b883a 	mov	r5,r3
 8003098:	1009883a 	mov	r4,r2
 800309c:	800a9600 	call	800a960 <__adddf3>
 80030a0:	8009883a 	mov	r4,r16
 80030a4:	1029883a 	mov	r20,r2
 80030a8:	1823883a 	mov	r17,r3
 80030ac:	800cde00 	call	800cde0 <__floatsidf>
 80030b0:	019427f4 	movhi	r6,20639
 80030b4:	01cff4f4 	movhi	r7,16339
 80030b8:	319e7ec4 	addi	r6,r6,31227
 80030bc:	39d104c4 	addi	r7,r7,17427
 80030c0:	1009883a 	mov	r4,r2
 80030c4:	180b883a 	mov	r5,r3
 80030c8:	800bd4c0 	call	800bd4c <__muldf3>
 80030cc:	100d883a 	mov	r6,r2
 80030d0:	180f883a 	mov	r7,r3
 80030d4:	a009883a 	mov	r4,r20
 80030d8:	880b883a 	mov	r5,r17
 80030dc:	800a9600 	call	800a960 <__adddf3>
 80030e0:	1009883a 	mov	r4,r2
 80030e4:	180b883a 	mov	r5,r3
 80030e8:	1029883a 	mov	r20,r2
 80030ec:	1823883a 	mov	r17,r3
 80030f0:	800cd600 	call	800cd60 <__fixdfsi>
 80030f4:	000d883a 	mov	r6,zero
 80030f8:	000f883a 	mov	r7,zero
 80030fc:	a009883a 	mov	r4,r20
 8003100:	880b883a 	mov	r5,r17
 8003104:	d8800515 	stw	r2,20(sp)
 8003108:	800bc580 	call	800bc58 <__ledf2>
 800310c:	10028716 	blt	r2,zero,8003b2c <_dtoa_r+0xc88>
 8003110:	d8c00517 	ldw	r3,20(sp)
 8003114:	00800584 	movi	r2,22
 8003118:	10c27536 	bltu	r2,r3,8003af0 <_dtoa_r+0xc4c>
 800311c:	180490fa 	slli	r2,r3,3
 8003120:	00c200b4 	movhi	r3,2050
 8003124:	18e41204 	addi	r3,r3,-28600
 8003128:	1885883a 	add	r2,r3,r2
 800312c:	11000017 	ldw	r4,0(r2)
 8003130:	11400117 	ldw	r5,4(r2)
 8003134:	900d883a 	mov	r6,r18
 8003138:	980f883a 	mov	r7,r19
 800313c:	800bb7c0 	call	800bb7c <__gedf2>
 8003140:	00828d0e 	bge	zero,r2,8003b78 <_dtoa_r+0xcd4>
 8003144:	d9000517 	ldw	r4,20(sp)
 8003148:	d8000e15 	stw	zero,56(sp)
 800314c:	213fffc4 	addi	r4,r4,-1
 8003150:	d9000515 	stw	r4,20(sp)
 8003154:	b42dc83a 	sub	r22,r22,r16
 8003158:	b5bfffc4 	addi	r22,r22,-1
 800315c:	b0026f16 	blt	r22,zero,8003b1c <_dtoa_r+0xc78>
 8003160:	d8000815 	stw	zero,32(sp)
 8003164:	d9c00517 	ldw	r7,20(sp)
 8003168:	38026416 	blt	r7,zero,8003afc <_dtoa_r+0xc58>
 800316c:	b1ed883a 	add	r22,r22,r7
 8003170:	d9c00d15 	stw	r7,52(sp)
 8003174:	d8000a15 	stw	zero,40(sp)
 8003178:	d9800317 	ldw	r6,12(sp)
 800317c:	00800244 	movi	r2,9
 8003180:	11811436 	bltu	r2,r6,80035d4 <_dtoa_r+0x730>
 8003184:	00800144 	movi	r2,5
 8003188:	1184e10e 	bge	r2,r6,8004510 <_dtoa_r+0x166c>
 800318c:	31bfff04 	addi	r6,r6,-4
 8003190:	d9800315 	stw	r6,12(sp)
 8003194:	0023883a 	mov	r17,zero
 8003198:	d9800317 	ldw	r6,12(sp)
 800319c:	008000c4 	movi	r2,3
 80031a0:	30836726 	beq	r6,r2,8003f40 <_dtoa_r+0x109c>
 80031a4:	1183410e 	bge	r2,r6,8003eac <_dtoa_r+0x1008>
 80031a8:	d9c00317 	ldw	r7,12(sp)
 80031ac:	00800104 	movi	r2,4
 80031b0:	38827c26 	beq	r7,r2,8003ba4 <_dtoa_r+0xd00>
 80031b4:	00800144 	movi	r2,5
 80031b8:	3884c41e 	bne	r7,r2,80044cc <_dtoa_r+0x1628>
 80031bc:	00800044 	movi	r2,1
 80031c0:	d8800b15 	stw	r2,44(sp)
 80031c4:	d8c00517 	ldw	r3,20(sp)
 80031c8:	d9002217 	ldw	r4,136(sp)
 80031cc:	1907883a 	add	r3,r3,r4
 80031d0:	19800044 	addi	r6,r3,1
 80031d4:	d8c00c15 	stw	r3,48(sp)
 80031d8:	d9800615 	stw	r6,24(sp)
 80031dc:	0183a40e 	bge	zero,r6,8004070 <_dtoa_r+0x11cc>
 80031e0:	d9800617 	ldw	r6,24(sp)
 80031e4:	3021883a 	mov	r16,r6
 80031e8:	e0001115 	stw	zero,68(fp)
 80031ec:	008005c4 	movi	r2,23
 80031f0:	1184c92e 	bgeu	r2,r6,8004518 <_dtoa_r+0x1674>
 80031f4:	00c00044 	movi	r3,1
 80031f8:	00800104 	movi	r2,4
 80031fc:	1085883a 	add	r2,r2,r2
 8003200:	11000504 	addi	r4,r2,20
 8003204:	180b883a 	mov	r5,r3
 8003208:	18c00044 	addi	r3,r3,1
 800320c:	313ffb2e 	bgeu	r6,r4,80031fc <__alt_data_end+0xf80031fc>
 8003210:	e1401115 	stw	r5,68(fp)
 8003214:	e009883a 	mov	r4,fp
 8003218:	80065400 	call	8006540 <_Balloc>
 800321c:	d8800715 	stw	r2,28(sp)
 8003220:	e0801015 	stw	r2,64(fp)
 8003224:	00800384 	movi	r2,14
 8003228:	1400f736 	bltu	r2,r16,8003608 <_dtoa_r+0x764>
 800322c:	8800f626 	beq	r17,zero,8003608 <_dtoa_r+0x764>
 8003230:	d9c00517 	ldw	r7,20(sp)
 8003234:	01c39a0e 	bge	zero,r7,80040a0 <_dtoa_r+0x11fc>
 8003238:	388003cc 	andi	r2,r7,15
 800323c:	100490fa 	slli	r2,r2,3
 8003240:	382bd13a 	srai	r21,r7,4
 8003244:	00c200b4 	movhi	r3,2050
 8003248:	18e41204 	addi	r3,r3,-28600
 800324c:	1885883a 	add	r2,r3,r2
 8003250:	a8c0040c 	andi	r3,r21,16
 8003254:	12400017 	ldw	r9,0(r2)
 8003258:	12000117 	ldw	r8,4(r2)
 800325c:	18037926 	beq	r3,zero,8004044 <_dtoa_r+0x11a0>
 8003260:	008200b4 	movhi	r2,2050
 8003264:	10a40804 	addi	r2,r2,-28640
 8003268:	11800817 	ldw	r6,32(r2)
 800326c:	11c00917 	ldw	r7,36(r2)
 8003270:	9009883a 	mov	r4,r18
 8003274:	980b883a 	mov	r5,r19
 8003278:	da001715 	stw	r8,92(sp)
 800327c:	da401615 	stw	r9,88(sp)
 8003280:	800b20c0 	call	800b20c <__divdf3>
 8003284:	da001717 	ldw	r8,92(sp)
 8003288:	da401617 	ldw	r9,88(sp)
 800328c:	ad4003cc 	andi	r21,r21,15
 8003290:	040000c4 	movi	r16,3
 8003294:	1023883a 	mov	r17,r2
 8003298:	1829883a 	mov	r20,r3
 800329c:	a8001126 	beq	r21,zero,80032e4 <_dtoa_r+0x440>
 80032a0:	05c200b4 	movhi	r23,2050
 80032a4:	bde40804 	addi	r23,r23,-28640
 80032a8:	4805883a 	mov	r2,r9
 80032ac:	4007883a 	mov	r3,r8
 80032b0:	a980004c 	andi	r6,r21,1
 80032b4:	1009883a 	mov	r4,r2
 80032b8:	a82bd07a 	srai	r21,r21,1
 80032bc:	180b883a 	mov	r5,r3
 80032c0:	30000426 	beq	r6,zero,80032d4 <_dtoa_r+0x430>
 80032c4:	b9800017 	ldw	r6,0(r23)
 80032c8:	b9c00117 	ldw	r7,4(r23)
 80032cc:	84000044 	addi	r16,r16,1
 80032d0:	800bd4c0 	call	800bd4c <__muldf3>
 80032d4:	bdc00204 	addi	r23,r23,8
 80032d8:	a83ff51e 	bne	r21,zero,80032b0 <__alt_data_end+0xf80032b0>
 80032dc:	1013883a 	mov	r9,r2
 80032e0:	1811883a 	mov	r8,r3
 80032e4:	480d883a 	mov	r6,r9
 80032e8:	400f883a 	mov	r7,r8
 80032ec:	8809883a 	mov	r4,r17
 80032f0:	a00b883a 	mov	r5,r20
 80032f4:	800b20c0 	call	800b20c <__divdf3>
 80032f8:	d8800f15 	stw	r2,60(sp)
 80032fc:	d8c01015 	stw	r3,64(sp)
 8003300:	d8c00e17 	ldw	r3,56(sp)
 8003304:	18000626 	beq	r3,zero,8003320 <_dtoa_r+0x47c>
 8003308:	d9000f17 	ldw	r4,60(sp)
 800330c:	d9401017 	ldw	r5,64(sp)
 8003310:	000d883a 	mov	r6,zero
 8003314:	01cffc34 	movhi	r7,16368
 8003318:	800bc580 	call	800bc58 <__ledf2>
 800331c:	10040b16 	blt	r2,zero,800434c <_dtoa_r+0x14a8>
 8003320:	8009883a 	mov	r4,r16
 8003324:	800cde00 	call	800cde0 <__floatsidf>
 8003328:	d9800f17 	ldw	r6,60(sp)
 800332c:	d9c01017 	ldw	r7,64(sp)
 8003330:	1009883a 	mov	r4,r2
 8003334:	180b883a 	mov	r5,r3
 8003338:	800bd4c0 	call	800bd4c <__muldf3>
 800333c:	000d883a 	mov	r6,zero
 8003340:	01d00734 	movhi	r7,16412
 8003344:	1009883a 	mov	r4,r2
 8003348:	180b883a 	mov	r5,r3
 800334c:	800a9600 	call	800a960 <__adddf3>
 8003350:	1021883a 	mov	r16,r2
 8003354:	d8800617 	ldw	r2,24(sp)
 8003358:	047f3034 	movhi	r17,64704
 800335c:	1c63883a 	add	r17,r3,r17
 8003360:	10031826 	beq	r2,zero,8003fc4 <_dtoa_r+0x1120>
 8003364:	d8c00517 	ldw	r3,20(sp)
 8003368:	db000617 	ldw	r12,24(sp)
 800336c:	d8c01315 	stw	r3,76(sp)
 8003370:	d9000b17 	ldw	r4,44(sp)
 8003374:	20038f26 	beq	r4,zero,80041b4 <_dtoa_r+0x1310>
 8003378:	60bfffc4 	addi	r2,r12,-1
 800337c:	100490fa 	slli	r2,r2,3
 8003380:	00c200b4 	movhi	r3,2050
 8003384:	18e41204 	addi	r3,r3,-28600
 8003388:	1885883a 	add	r2,r3,r2
 800338c:	11800017 	ldw	r6,0(r2)
 8003390:	11c00117 	ldw	r7,4(r2)
 8003394:	d8800717 	ldw	r2,28(sp)
 8003398:	0009883a 	mov	r4,zero
 800339c:	014ff834 	movhi	r5,16352
 80033a0:	db001615 	stw	r12,88(sp)
 80033a4:	15c00044 	addi	r23,r2,1
 80033a8:	800b20c0 	call	800b20c <__divdf3>
 80033ac:	800d883a 	mov	r6,r16
 80033b0:	880f883a 	mov	r7,r17
 80033b4:	1009883a 	mov	r4,r2
 80033b8:	180b883a 	mov	r5,r3
 80033bc:	800c4640 	call	800c464 <__subdf3>
 80033c0:	d9401017 	ldw	r5,64(sp)
 80033c4:	d9000f17 	ldw	r4,60(sp)
 80033c8:	102b883a 	mov	r21,r2
 80033cc:	d8c01215 	stw	r3,72(sp)
 80033d0:	800cd600 	call	800cd60 <__fixdfsi>
 80033d4:	1009883a 	mov	r4,r2
 80033d8:	1029883a 	mov	r20,r2
 80033dc:	800cde00 	call	800cde0 <__floatsidf>
 80033e0:	d9000f17 	ldw	r4,60(sp)
 80033e4:	d9401017 	ldw	r5,64(sp)
 80033e8:	100d883a 	mov	r6,r2
 80033ec:	180f883a 	mov	r7,r3
 80033f0:	800c4640 	call	800c464 <__subdf3>
 80033f4:	1823883a 	mov	r17,r3
 80033f8:	d8c00717 	ldw	r3,28(sp)
 80033fc:	d9401217 	ldw	r5,72(sp)
 8003400:	a2000c04 	addi	r8,r20,48
 8003404:	1021883a 	mov	r16,r2
 8003408:	1a000005 	stb	r8,0(r3)
 800340c:	800d883a 	mov	r6,r16
 8003410:	880f883a 	mov	r7,r17
 8003414:	a809883a 	mov	r4,r21
 8003418:	4029883a 	mov	r20,r8
 800341c:	800bb7c0 	call	800bb7c <__gedf2>
 8003420:	00841d16 	blt	zero,r2,8004498 <_dtoa_r+0x15f4>
 8003424:	800d883a 	mov	r6,r16
 8003428:	880f883a 	mov	r7,r17
 800342c:	0009883a 	mov	r4,zero
 8003430:	014ffc34 	movhi	r5,16368
 8003434:	800c4640 	call	800c464 <__subdf3>
 8003438:	d9401217 	ldw	r5,72(sp)
 800343c:	100d883a 	mov	r6,r2
 8003440:	180f883a 	mov	r7,r3
 8003444:	a809883a 	mov	r4,r21
 8003448:	800bb7c0 	call	800bb7c <__gedf2>
 800344c:	db001617 	ldw	r12,88(sp)
 8003450:	00840e16 	blt	zero,r2,800448c <_dtoa_r+0x15e8>
 8003454:	00800044 	movi	r2,1
 8003458:	13006b0e 	bge	r2,r12,8003608 <_dtoa_r+0x764>
 800345c:	d9000717 	ldw	r4,28(sp)
 8003460:	dd800f15 	stw	r22,60(sp)
 8003464:	dcc01015 	stw	r19,64(sp)
 8003468:	2319883a 	add	r12,r4,r12
 800346c:	dcc01217 	ldw	r19,72(sp)
 8003470:	602d883a 	mov	r22,r12
 8003474:	dc801215 	stw	r18,72(sp)
 8003478:	b825883a 	mov	r18,r23
 800347c:	00000906 	br	80034a4 <_dtoa_r+0x600>
 8003480:	800c4640 	call	800c464 <__subdf3>
 8003484:	a80d883a 	mov	r6,r21
 8003488:	980f883a 	mov	r7,r19
 800348c:	1009883a 	mov	r4,r2
 8003490:	180b883a 	mov	r5,r3
 8003494:	800bc580 	call	800bc58 <__ledf2>
 8003498:	1003e816 	blt	r2,zero,800443c <_dtoa_r+0x1598>
 800349c:	b825883a 	mov	r18,r23
 80034a0:	bd83e926 	beq	r23,r22,8004448 <_dtoa_r+0x15a4>
 80034a4:	a809883a 	mov	r4,r21
 80034a8:	980b883a 	mov	r5,r19
 80034ac:	000d883a 	mov	r6,zero
 80034b0:	01d00934 	movhi	r7,16420
 80034b4:	800bd4c0 	call	800bd4c <__muldf3>
 80034b8:	000d883a 	mov	r6,zero
 80034bc:	01d00934 	movhi	r7,16420
 80034c0:	8009883a 	mov	r4,r16
 80034c4:	880b883a 	mov	r5,r17
 80034c8:	102b883a 	mov	r21,r2
 80034cc:	1827883a 	mov	r19,r3
 80034d0:	800bd4c0 	call	800bd4c <__muldf3>
 80034d4:	180b883a 	mov	r5,r3
 80034d8:	1009883a 	mov	r4,r2
 80034dc:	1821883a 	mov	r16,r3
 80034e0:	1023883a 	mov	r17,r2
 80034e4:	800cd600 	call	800cd60 <__fixdfsi>
 80034e8:	1009883a 	mov	r4,r2
 80034ec:	1029883a 	mov	r20,r2
 80034f0:	800cde00 	call	800cde0 <__floatsidf>
 80034f4:	8809883a 	mov	r4,r17
 80034f8:	800b883a 	mov	r5,r16
 80034fc:	100d883a 	mov	r6,r2
 8003500:	180f883a 	mov	r7,r3
 8003504:	800c4640 	call	800c464 <__subdf3>
 8003508:	a5000c04 	addi	r20,r20,48
 800350c:	a80d883a 	mov	r6,r21
 8003510:	980f883a 	mov	r7,r19
 8003514:	1009883a 	mov	r4,r2
 8003518:	180b883a 	mov	r5,r3
 800351c:	95000005 	stb	r20,0(r18)
 8003520:	1021883a 	mov	r16,r2
 8003524:	1823883a 	mov	r17,r3
 8003528:	800bc580 	call	800bc58 <__ledf2>
 800352c:	bdc00044 	addi	r23,r23,1
 8003530:	800d883a 	mov	r6,r16
 8003534:	880f883a 	mov	r7,r17
 8003538:	0009883a 	mov	r4,zero
 800353c:	014ffc34 	movhi	r5,16368
 8003540:	103fcf0e 	bge	r2,zero,8003480 <__alt_data_end+0xf8003480>
 8003544:	d8c01317 	ldw	r3,76(sp)
 8003548:	d8c00515 	stw	r3,20(sp)
 800354c:	d9400917 	ldw	r5,36(sp)
 8003550:	e009883a 	mov	r4,fp
 8003554:	80065e80 	call	80065e8 <_Bfree>
 8003558:	d9000517 	ldw	r4,20(sp)
 800355c:	d9802317 	ldw	r6,140(sp)
 8003560:	d9c02517 	ldw	r7,148(sp)
 8003564:	b8000005 	stb	zero,0(r23)
 8003568:	20800044 	addi	r2,r4,1
 800356c:	30800015 	stw	r2,0(r6)
 8003570:	3802aa26 	beq	r7,zero,800401c <_dtoa_r+0x1178>
 8003574:	3dc00015 	stw	r23,0(r7)
 8003578:	d8800717 	ldw	r2,28(sp)
 800357c:	003e7906 	br	8002f64 <__alt_data_end+0xf8002f64>
 8003580:	00800434 	movhi	r2,16
 8003584:	10bfffc4 	addi	r2,r2,-1
 8003588:	88a2703a 	and	r17,r17,r2
 800358c:	883e851e 	bne	r17,zero,8002fa4 <__alt_data_end+0xf8002fa4>
 8003590:	008200b4 	movhi	r2,2050
 8003594:	10a3f304 	addi	r2,r2,-28724
 8003598:	003e8406 	br	8002fac <__alt_data_end+0xf8002fac>
 800359c:	10c00204 	addi	r3,r2,8
 80035a0:	003e8706 	br	8002fc0 <__alt_data_end+0xf8002fc0>
 80035a4:	01400434 	movhi	r5,16
 80035a8:	297fffc4 	addi	r5,r5,-1
 80035ac:	994a703a 	and	r5,r19,r5
 80035b0:	9009883a 	mov	r4,r18
 80035b4:	843f0044 	addi	r16,r16,-1023
 80035b8:	294ffc34 	orhi	r5,r5,16368
 80035bc:	dd800217 	ldw	r22,8(sp)
 80035c0:	d8001115 	stw	zero,68(sp)
 80035c4:	003ea506 	br	800305c <__alt_data_end+0xf800305c>
 80035c8:	008200b4 	movhi	r2,2050
 80035cc:	10a3ea04 	addi	r2,r2,-28760
 80035d0:	003e6406 	br	8002f64 <__alt_data_end+0xf8002f64>
 80035d4:	e0001115 	stw	zero,68(fp)
 80035d8:	000b883a 	mov	r5,zero
 80035dc:	e009883a 	mov	r4,fp
 80035e0:	80065400 	call	8006540 <_Balloc>
 80035e4:	01bfffc4 	movi	r6,-1
 80035e8:	01c00044 	movi	r7,1
 80035ec:	d8800715 	stw	r2,28(sp)
 80035f0:	d9800c15 	stw	r6,48(sp)
 80035f4:	e0801015 	stw	r2,64(fp)
 80035f8:	d8000315 	stw	zero,12(sp)
 80035fc:	d9c00b15 	stw	r7,44(sp)
 8003600:	d9800615 	stw	r6,24(sp)
 8003604:	d8002215 	stw	zero,136(sp)
 8003608:	d8800117 	ldw	r2,4(sp)
 800360c:	10008916 	blt	r2,zero,8003834 <_dtoa_r+0x990>
 8003610:	d9000517 	ldw	r4,20(sp)
 8003614:	00c00384 	movi	r3,14
 8003618:	19008616 	blt	r3,r4,8003834 <_dtoa_r+0x990>
 800361c:	200490fa 	slli	r2,r4,3
 8003620:	00c200b4 	movhi	r3,2050
 8003624:	d9802217 	ldw	r6,136(sp)
 8003628:	18e41204 	addi	r3,r3,-28600
 800362c:	1885883a 	add	r2,r3,r2
 8003630:	14000017 	ldw	r16,0(r2)
 8003634:	14400117 	ldw	r17,4(r2)
 8003638:	30016316 	blt	r6,zero,8003bc8 <_dtoa_r+0xd24>
 800363c:	800d883a 	mov	r6,r16
 8003640:	880f883a 	mov	r7,r17
 8003644:	9009883a 	mov	r4,r18
 8003648:	980b883a 	mov	r5,r19
 800364c:	800b20c0 	call	800b20c <__divdf3>
 8003650:	180b883a 	mov	r5,r3
 8003654:	1009883a 	mov	r4,r2
 8003658:	800cd600 	call	800cd60 <__fixdfsi>
 800365c:	1009883a 	mov	r4,r2
 8003660:	102b883a 	mov	r21,r2
 8003664:	800cde00 	call	800cde0 <__floatsidf>
 8003668:	800d883a 	mov	r6,r16
 800366c:	880f883a 	mov	r7,r17
 8003670:	1009883a 	mov	r4,r2
 8003674:	180b883a 	mov	r5,r3
 8003678:	800bd4c0 	call	800bd4c <__muldf3>
 800367c:	100d883a 	mov	r6,r2
 8003680:	180f883a 	mov	r7,r3
 8003684:	9009883a 	mov	r4,r18
 8003688:	980b883a 	mov	r5,r19
 800368c:	800c4640 	call	800c464 <__subdf3>
 8003690:	d9c00717 	ldw	r7,28(sp)
 8003694:	1009883a 	mov	r4,r2
 8003698:	a8800c04 	addi	r2,r21,48
 800369c:	38800005 	stb	r2,0(r7)
 80036a0:	3dc00044 	addi	r23,r7,1
 80036a4:	d9c00617 	ldw	r7,24(sp)
 80036a8:	01800044 	movi	r6,1
 80036ac:	180b883a 	mov	r5,r3
 80036b0:	2005883a 	mov	r2,r4
 80036b4:	39803826 	beq	r7,r6,8003798 <_dtoa_r+0x8f4>
 80036b8:	000d883a 	mov	r6,zero
 80036bc:	01d00934 	movhi	r7,16420
 80036c0:	800bd4c0 	call	800bd4c <__muldf3>
 80036c4:	000d883a 	mov	r6,zero
 80036c8:	000f883a 	mov	r7,zero
 80036cc:	1009883a 	mov	r4,r2
 80036d0:	180b883a 	mov	r5,r3
 80036d4:	1025883a 	mov	r18,r2
 80036d8:	1827883a 	mov	r19,r3
 80036dc:	800baf40 	call	800baf4 <__eqdf2>
 80036e0:	103f9a26 	beq	r2,zero,800354c <__alt_data_end+0xf800354c>
 80036e4:	d9c00617 	ldw	r7,24(sp)
 80036e8:	d8c00717 	ldw	r3,28(sp)
 80036ec:	b829883a 	mov	r20,r23
 80036f0:	38bfffc4 	addi	r2,r7,-1
 80036f4:	18ad883a 	add	r22,r3,r2
 80036f8:	00000a06 	br	8003724 <_dtoa_r+0x880>
 80036fc:	800bd4c0 	call	800bd4c <__muldf3>
 8003700:	000d883a 	mov	r6,zero
 8003704:	000f883a 	mov	r7,zero
 8003708:	1009883a 	mov	r4,r2
 800370c:	180b883a 	mov	r5,r3
 8003710:	1025883a 	mov	r18,r2
 8003714:	1827883a 	mov	r19,r3
 8003718:	b829883a 	mov	r20,r23
 800371c:	800baf40 	call	800baf4 <__eqdf2>
 8003720:	103f8a26 	beq	r2,zero,800354c <__alt_data_end+0xf800354c>
 8003724:	800d883a 	mov	r6,r16
 8003728:	880f883a 	mov	r7,r17
 800372c:	9009883a 	mov	r4,r18
 8003730:	980b883a 	mov	r5,r19
 8003734:	800b20c0 	call	800b20c <__divdf3>
 8003738:	180b883a 	mov	r5,r3
 800373c:	1009883a 	mov	r4,r2
 8003740:	800cd600 	call	800cd60 <__fixdfsi>
 8003744:	1009883a 	mov	r4,r2
 8003748:	102b883a 	mov	r21,r2
 800374c:	800cde00 	call	800cde0 <__floatsidf>
 8003750:	800d883a 	mov	r6,r16
 8003754:	880f883a 	mov	r7,r17
 8003758:	1009883a 	mov	r4,r2
 800375c:	180b883a 	mov	r5,r3
 8003760:	800bd4c0 	call	800bd4c <__muldf3>
 8003764:	100d883a 	mov	r6,r2
 8003768:	180f883a 	mov	r7,r3
 800376c:	9009883a 	mov	r4,r18
 8003770:	980b883a 	mov	r5,r19
 8003774:	800c4640 	call	800c464 <__subdf3>
 8003778:	aa000c04 	addi	r8,r21,48
 800377c:	a2000005 	stb	r8,0(r20)
 8003780:	000d883a 	mov	r6,zero
 8003784:	01d00934 	movhi	r7,16420
 8003788:	1009883a 	mov	r4,r2
 800378c:	180b883a 	mov	r5,r3
 8003790:	a5c00044 	addi	r23,r20,1
 8003794:	b53fd91e 	bne	r22,r20,80036fc <__alt_data_end+0xf80036fc>
 8003798:	100d883a 	mov	r6,r2
 800379c:	180f883a 	mov	r7,r3
 80037a0:	1009883a 	mov	r4,r2
 80037a4:	180b883a 	mov	r5,r3
 80037a8:	800a9600 	call	800a960 <__adddf3>
 80037ac:	100d883a 	mov	r6,r2
 80037b0:	180f883a 	mov	r7,r3
 80037b4:	8009883a 	mov	r4,r16
 80037b8:	880b883a 	mov	r5,r17
 80037bc:	1027883a 	mov	r19,r2
 80037c0:	1825883a 	mov	r18,r3
 80037c4:	800bc580 	call	800bc58 <__ledf2>
 80037c8:	10000816 	blt	r2,zero,80037ec <_dtoa_r+0x948>
 80037cc:	980d883a 	mov	r6,r19
 80037d0:	900f883a 	mov	r7,r18
 80037d4:	8009883a 	mov	r4,r16
 80037d8:	880b883a 	mov	r5,r17
 80037dc:	800baf40 	call	800baf4 <__eqdf2>
 80037e0:	103f5a1e 	bne	r2,zero,800354c <__alt_data_end+0xf800354c>
 80037e4:	ad40004c 	andi	r21,r21,1
 80037e8:	a83f5826 	beq	r21,zero,800354c <__alt_data_end+0xf800354c>
 80037ec:	bd3fffc3 	ldbu	r20,-1(r23)
 80037f0:	b8bfffc4 	addi	r2,r23,-1
 80037f4:	1007883a 	mov	r3,r2
 80037f8:	01400e44 	movi	r5,57
 80037fc:	d9800717 	ldw	r6,28(sp)
 8003800:	00000506 	br	8003818 <_dtoa_r+0x974>
 8003804:	18ffffc4 	addi	r3,r3,-1
 8003808:	11824726 	beq	r2,r6,8004128 <_dtoa_r+0x1284>
 800380c:	1d000003 	ldbu	r20,0(r3)
 8003810:	102f883a 	mov	r23,r2
 8003814:	10bfffc4 	addi	r2,r2,-1
 8003818:	a1003fcc 	andi	r4,r20,255
 800381c:	2100201c 	xori	r4,r4,128
 8003820:	213fe004 	addi	r4,r4,-128
 8003824:	217ff726 	beq	r4,r5,8003804 <__alt_data_end+0xf8003804>
 8003828:	a2000044 	addi	r8,r20,1
 800382c:	12000005 	stb	r8,0(r2)
 8003830:	003f4606 	br	800354c <__alt_data_end+0xf800354c>
 8003834:	d9000b17 	ldw	r4,44(sp)
 8003838:	2000c826 	beq	r4,zero,8003b5c <_dtoa_r+0xcb8>
 800383c:	d9800317 	ldw	r6,12(sp)
 8003840:	00c00044 	movi	r3,1
 8003844:	1980f90e 	bge	r3,r6,8003c2c <_dtoa_r+0xd88>
 8003848:	d8800617 	ldw	r2,24(sp)
 800384c:	d8c00a17 	ldw	r3,40(sp)
 8003850:	157fffc4 	addi	r21,r2,-1
 8003854:	1d41f316 	blt	r3,r21,8004024 <_dtoa_r+0x1180>
 8003858:	1d6bc83a 	sub	r21,r3,r21
 800385c:	d9c00617 	ldw	r7,24(sp)
 8003860:	3802aa16 	blt	r7,zero,800430c <_dtoa_r+0x1468>
 8003864:	dd000817 	ldw	r20,32(sp)
 8003868:	d8800617 	ldw	r2,24(sp)
 800386c:	d8c00817 	ldw	r3,32(sp)
 8003870:	01400044 	movi	r5,1
 8003874:	e009883a 	mov	r4,fp
 8003878:	1887883a 	add	r3,r3,r2
 800387c:	d8c00815 	stw	r3,32(sp)
 8003880:	b0ad883a 	add	r22,r22,r2
 8003884:	800694c0 	call	800694c <__i2b>
 8003888:	1023883a 	mov	r17,r2
 800388c:	a0000826 	beq	r20,zero,80038b0 <_dtoa_r+0xa0c>
 8003890:	0580070e 	bge	zero,r22,80038b0 <_dtoa_r+0xa0c>
 8003894:	a005883a 	mov	r2,r20
 8003898:	b500b916 	blt	r22,r20,8003b80 <_dtoa_r+0xcdc>
 800389c:	d9000817 	ldw	r4,32(sp)
 80038a0:	a0a9c83a 	sub	r20,r20,r2
 80038a4:	b0adc83a 	sub	r22,r22,r2
 80038a8:	2089c83a 	sub	r4,r4,r2
 80038ac:	d9000815 	stw	r4,32(sp)
 80038b0:	d9800a17 	ldw	r6,40(sp)
 80038b4:	0181810e 	bge	zero,r6,8003ebc <_dtoa_r+0x1018>
 80038b8:	d9c00b17 	ldw	r7,44(sp)
 80038bc:	3800b326 	beq	r7,zero,8003b8c <_dtoa_r+0xce8>
 80038c0:	a800b226 	beq	r21,zero,8003b8c <_dtoa_r+0xce8>
 80038c4:	880b883a 	mov	r5,r17
 80038c8:	a80d883a 	mov	r6,r21
 80038cc:	e009883a 	mov	r4,fp
 80038d0:	8006b800 	call	8006b80 <__pow5mult>
 80038d4:	d9800917 	ldw	r6,36(sp)
 80038d8:	100b883a 	mov	r5,r2
 80038dc:	e009883a 	mov	r4,fp
 80038e0:	1023883a 	mov	r17,r2
 80038e4:	80069880 	call	8006988 <__multiply>
 80038e8:	1021883a 	mov	r16,r2
 80038ec:	d8800a17 	ldw	r2,40(sp)
 80038f0:	d9400917 	ldw	r5,36(sp)
 80038f4:	e009883a 	mov	r4,fp
 80038f8:	1545c83a 	sub	r2,r2,r21
 80038fc:	d8800a15 	stw	r2,40(sp)
 8003900:	80065e80 	call	80065e8 <_Bfree>
 8003904:	d8c00a17 	ldw	r3,40(sp)
 8003908:	18009f1e 	bne	r3,zero,8003b88 <_dtoa_r+0xce4>
 800390c:	05c00044 	movi	r23,1
 8003910:	e009883a 	mov	r4,fp
 8003914:	b80b883a 	mov	r5,r23
 8003918:	800694c0 	call	800694c <__i2b>
 800391c:	d9000d17 	ldw	r4,52(sp)
 8003920:	102b883a 	mov	r21,r2
 8003924:	2000ce26 	beq	r4,zero,8003c60 <_dtoa_r+0xdbc>
 8003928:	200d883a 	mov	r6,r4
 800392c:	100b883a 	mov	r5,r2
 8003930:	e009883a 	mov	r4,fp
 8003934:	8006b800 	call	8006b80 <__pow5mult>
 8003938:	d9800317 	ldw	r6,12(sp)
 800393c:	102b883a 	mov	r21,r2
 8003940:	b981810e 	bge	r23,r6,8003f48 <_dtoa_r+0x10a4>
 8003944:	0027883a 	mov	r19,zero
 8003948:	a8800417 	ldw	r2,16(r21)
 800394c:	05c00804 	movi	r23,32
 8003950:	10800104 	addi	r2,r2,4
 8003954:	1085883a 	add	r2,r2,r2
 8003958:	1085883a 	add	r2,r2,r2
 800395c:	a885883a 	add	r2,r21,r2
 8003960:	11000017 	ldw	r4,0(r2)
 8003964:	80068340 	call	8006834 <__hi0bits>
 8003968:	b885c83a 	sub	r2,r23,r2
 800396c:	1585883a 	add	r2,r2,r22
 8003970:	108007cc 	andi	r2,r2,31
 8003974:	1000b326 	beq	r2,zero,8003c44 <_dtoa_r+0xda0>
 8003978:	00c00804 	movi	r3,32
 800397c:	1887c83a 	sub	r3,r3,r2
 8003980:	01000104 	movi	r4,4
 8003984:	20c2cd0e 	bge	r4,r3,80044bc <_dtoa_r+0x1618>
 8003988:	00c00704 	movi	r3,28
 800398c:	1885c83a 	sub	r2,r3,r2
 8003990:	d8c00817 	ldw	r3,32(sp)
 8003994:	a0a9883a 	add	r20,r20,r2
 8003998:	b0ad883a 	add	r22,r22,r2
 800399c:	1887883a 	add	r3,r3,r2
 80039a0:	d8c00815 	stw	r3,32(sp)
 80039a4:	d9800817 	ldw	r6,32(sp)
 80039a8:	0180040e 	bge	zero,r6,80039bc <_dtoa_r+0xb18>
 80039ac:	800b883a 	mov	r5,r16
 80039b0:	e009883a 	mov	r4,fp
 80039b4:	8006cc00 	call	8006cc0 <__lshift>
 80039b8:	1021883a 	mov	r16,r2
 80039bc:	0580050e 	bge	zero,r22,80039d4 <_dtoa_r+0xb30>
 80039c0:	a80b883a 	mov	r5,r21
 80039c4:	b00d883a 	mov	r6,r22
 80039c8:	e009883a 	mov	r4,fp
 80039cc:	8006cc00 	call	8006cc0 <__lshift>
 80039d0:	102b883a 	mov	r21,r2
 80039d4:	d9c00e17 	ldw	r7,56(sp)
 80039d8:	3801211e 	bne	r7,zero,8003e60 <_dtoa_r+0xfbc>
 80039dc:	d9800617 	ldw	r6,24(sp)
 80039e0:	0181380e 	bge	zero,r6,8003ec4 <_dtoa_r+0x1020>
 80039e4:	d8c00b17 	ldw	r3,44(sp)
 80039e8:	1800ab1e 	bne	r3,zero,8003c98 <_dtoa_r+0xdf4>
 80039ec:	dc800717 	ldw	r18,28(sp)
 80039f0:	dcc00617 	ldw	r19,24(sp)
 80039f4:	9029883a 	mov	r20,r18
 80039f8:	00000206 	br	8003a04 <_dtoa_r+0xb60>
 80039fc:	80066100 	call	8006610 <__multadd>
 8003a00:	1021883a 	mov	r16,r2
 8003a04:	a80b883a 	mov	r5,r21
 8003a08:	8009883a 	mov	r4,r16
 8003a0c:	8002ca40 	call	8002ca4 <quorem>
 8003a10:	10800c04 	addi	r2,r2,48
 8003a14:	90800005 	stb	r2,0(r18)
 8003a18:	94800044 	addi	r18,r18,1
 8003a1c:	9507c83a 	sub	r3,r18,r20
 8003a20:	000f883a 	mov	r7,zero
 8003a24:	01800284 	movi	r6,10
 8003a28:	800b883a 	mov	r5,r16
 8003a2c:	e009883a 	mov	r4,fp
 8003a30:	1cfff216 	blt	r3,r19,80039fc <__alt_data_end+0xf80039fc>
 8003a34:	1011883a 	mov	r8,r2
 8003a38:	d8800617 	ldw	r2,24(sp)
 8003a3c:	0082370e 	bge	zero,r2,800431c <_dtoa_r+0x1478>
 8003a40:	d9000717 	ldw	r4,28(sp)
 8003a44:	0025883a 	mov	r18,zero
 8003a48:	20af883a 	add	r23,r4,r2
 8003a4c:	01800044 	movi	r6,1
 8003a50:	800b883a 	mov	r5,r16
 8003a54:	e009883a 	mov	r4,fp
 8003a58:	da001715 	stw	r8,92(sp)
 8003a5c:	8006cc00 	call	8006cc0 <__lshift>
 8003a60:	a80b883a 	mov	r5,r21
 8003a64:	1009883a 	mov	r4,r2
 8003a68:	d8800915 	stw	r2,36(sp)
 8003a6c:	8006e080 	call	8006e08 <__mcmp>
 8003a70:	da001717 	ldw	r8,92(sp)
 8003a74:	0081800e 	bge	zero,r2,8004078 <_dtoa_r+0x11d4>
 8003a78:	b93fffc3 	ldbu	r4,-1(r23)
 8003a7c:	b8bfffc4 	addi	r2,r23,-1
 8003a80:	1007883a 	mov	r3,r2
 8003a84:	01800e44 	movi	r6,57
 8003a88:	d9c00717 	ldw	r7,28(sp)
 8003a8c:	00000506 	br	8003aa4 <_dtoa_r+0xc00>
 8003a90:	18ffffc4 	addi	r3,r3,-1
 8003a94:	11c12326 	beq	r2,r7,8003f24 <_dtoa_r+0x1080>
 8003a98:	19000003 	ldbu	r4,0(r3)
 8003a9c:	102f883a 	mov	r23,r2
 8003aa0:	10bfffc4 	addi	r2,r2,-1
 8003aa4:	21403fcc 	andi	r5,r4,255
 8003aa8:	2940201c 	xori	r5,r5,128
 8003aac:	297fe004 	addi	r5,r5,-128
 8003ab0:	29bff726 	beq	r5,r6,8003a90 <__alt_data_end+0xf8003a90>
 8003ab4:	21000044 	addi	r4,r4,1
 8003ab8:	11000005 	stb	r4,0(r2)
 8003abc:	a80b883a 	mov	r5,r21
 8003ac0:	e009883a 	mov	r4,fp
 8003ac4:	80065e80 	call	80065e8 <_Bfree>
 8003ac8:	883ea026 	beq	r17,zero,800354c <__alt_data_end+0xf800354c>
 8003acc:	90000426 	beq	r18,zero,8003ae0 <_dtoa_r+0xc3c>
 8003ad0:	94400326 	beq	r18,r17,8003ae0 <_dtoa_r+0xc3c>
 8003ad4:	900b883a 	mov	r5,r18
 8003ad8:	e009883a 	mov	r4,fp
 8003adc:	80065e80 	call	80065e8 <_Bfree>
 8003ae0:	880b883a 	mov	r5,r17
 8003ae4:	e009883a 	mov	r4,fp
 8003ae8:	80065e80 	call	80065e8 <_Bfree>
 8003aec:	003e9706 	br	800354c <__alt_data_end+0xf800354c>
 8003af0:	01800044 	movi	r6,1
 8003af4:	d9800e15 	stw	r6,56(sp)
 8003af8:	003d9606 	br	8003154 <__alt_data_end+0xf8003154>
 8003afc:	d8800817 	ldw	r2,32(sp)
 8003b00:	d8c00517 	ldw	r3,20(sp)
 8003b04:	d8000d15 	stw	zero,52(sp)
 8003b08:	10c5c83a 	sub	r2,r2,r3
 8003b0c:	00c9c83a 	sub	r4,zero,r3
 8003b10:	d8800815 	stw	r2,32(sp)
 8003b14:	d9000a15 	stw	r4,40(sp)
 8003b18:	003d9706 	br	8003178 <__alt_data_end+0xf8003178>
 8003b1c:	05adc83a 	sub	r22,zero,r22
 8003b20:	dd800815 	stw	r22,32(sp)
 8003b24:	002d883a 	mov	r22,zero
 8003b28:	003d8e06 	br	8003164 <__alt_data_end+0xf8003164>
 8003b2c:	d9000517 	ldw	r4,20(sp)
 8003b30:	800cde00 	call	800cde0 <__floatsidf>
 8003b34:	100d883a 	mov	r6,r2
 8003b38:	180f883a 	mov	r7,r3
 8003b3c:	a009883a 	mov	r4,r20
 8003b40:	880b883a 	mov	r5,r17
 8003b44:	800baf40 	call	800baf4 <__eqdf2>
 8003b48:	103d7126 	beq	r2,zero,8003110 <__alt_data_end+0xf8003110>
 8003b4c:	d9c00517 	ldw	r7,20(sp)
 8003b50:	39ffffc4 	addi	r7,r7,-1
 8003b54:	d9c00515 	stw	r7,20(sp)
 8003b58:	003d6d06 	br	8003110 <__alt_data_end+0xf8003110>
 8003b5c:	dd400a17 	ldw	r21,40(sp)
 8003b60:	dd000817 	ldw	r20,32(sp)
 8003b64:	0023883a 	mov	r17,zero
 8003b68:	003f4806 	br	800388c <__alt_data_end+0xf800388c>
 8003b6c:	10e3c83a 	sub	r17,r2,r3
 8003b70:	9448983a 	sll	r4,r18,r17
 8003b74:	003d3206 	br	8003040 <__alt_data_end+0xf8003040>
 8003b78:	d8000e15 	stw	zero,56(sp)
 8003b7c:	003d7506 	br	8003154 <__alt_data_end+0xf8003154>
 8003b80:	b005883a 	mov	r2,r22
 8003b84:	003f4506 	br	800389c <__alt_data_end+0xf800389c>
 8003b88:	dc000915 	stw	r16,36(sp)
 8003b8c:	d9800a17 	ldw	r6,40(sp)
 8003b90:	d9400917 	ldw	r5,36(sp)
 8003b94:	e009883a 	mov	r4,fp
 8003b98:	8006b800 	call	8006b80 <__pow5mult>
 8003b9c:	1021883a 	mov	r16,r2
 8003ba0:	003f5a06 	br	800390c <__alt_data_end+0xf800390c>
 8003ba4:	01c00044 	movi	r7,1
 8003ba8:	d9c00b15 	stw	r7,44(sp)
 8003bac:	d8802217 	ldw	r2,136(sp)
 8003bb0:	0081280e 	bge	zero,r2,8004054 <_dtoa_r+0x11b0>
 8003bb4:	100d883a 	mov	r6,r2
 8003bb8:	1021883a 	mov	r16,r2
 8003bbc:	d8800c15 	stw	r2,48(sp)
 8003bc0:	d8800615 	stw	r2,24(sp)
 8003bc4:	003d8806 	br	80031e8 <__alt_data_end+0xf80031e8>
 8003bc8:	d8800617 	ldw	r2,24(sp)
 8003bcc:	00be9b16 	blt	zero,r2,800363c <__alt_data_end+0xf800363c>
 8003bd0:	10010f1e 	bne	r2,zero,8004010 <_dtoa_r+0x116c>
 8003bd4:	880b883a 	mov	r5,r17
 8003bd8:	000d883a 	mov	r6,zero
 8003bdc:	01d00534 	movhi	r7,16404
 8003be0:	8009883a 	mov	r4,r16
 8003be4:	800bd4c0 	call	800bd4c <__muldf3>
 8003be8:	900d883a 	mov	r6,r18
 8003bec:	980f883a 	mov	r7,r19
 8003bf0:	1009883a 	mov	r4,r2
 8003bf4:	180b883a 	mov	r5,r3
 8003bf8:	800bb7c0 	call	800bb7c <__gedf2>
 8003bfc:	002b883a 	mov	r21,zero
 8003c00:	0023883a 	mov	r17,zero
 8003c04:	1000bf16 	blt	r2,zero,8003f04 <_dtoa_r+0x1060>
 8003c08:	d9802217 	ldw	r6,136(sp)
 8003c0c:	ddc00717 	ldw	r23,28(sp)
 8003c10:	018c303a 	nor	r6,zero,r6
 8003c14:	d9800515 	stw	r6,20(sp)
 8003c18:	a80b883a 	mov	r5,r21
 8003c1c:	e009883a 	mov	r4,fp
 8003c20:	80065e80 	call	80065e8 <_Bfree>
 8003c24:	883e4926 	beq	r17,zero,800354c <__alt_data_end+0xf800354c>
 8003c28:	003fad06 	br	8003ae0 <__alt_data_end+0xf8003ae0>
 8003c2c:	d9c01117 	ldw	r7,68(sp)
 8003c30:	3801bc26 	beq	r7,zero,8004324 <_dtoa_r+0x1480>
 8003c34:	10810cc4 	addi	r2,r2,1075
 8003c38:	dd400a17 	ldw	r21,40(sp)
 8003c3c:	dd000817 	ldw	r20,32(sp)
 8003c40:	003f0a06 	br	800386c <__alt_data_end+0xf800386c>
 8003c44:	00800704 	movi	r2,28
 8003c48:	d9000817 	ldw	r4,32(sp)
 8003c4c:	a0a9883a 	add	r20,r20,r2
 8003c50:	b0ad883a 	add	r22,r22,r2
 8003c54:	2089883a 	add	r4,r4,r2
 8003c58:	d9000815 	stw	r4,32(sp)
 8003c5c:	003f5106 	br	80039a4 <__alt_data_end+0xf80039a4>
 8003c60:	d8c00317 	ldw	r3,12(sp)
 8003c64:	b8c1fc0e 	bge	r23,r3,8004458 <_dtoa_r+0x15b4>
 8003c68:	0027883a 	mov	r19,zero
 8003c6c:	b805883a 	mov	r2,r23
 8003c70:	003f3e06 	br	800396c <__alt_data_end+0xf800396c>
 8003c74:	880b883a 	mov	r5,r17
 8003c78:	e009883a 	mov	r4,fp
 8003c7c:	000f883a 	mov	r7,zero
 8003c80:	01800284 	movi	r6,10
 8003c84:	80066100 	call	8006610 <__multadd>
 8003c88:	d9000c17 	ldw	r4,48(sp)
 8003c8c:	1023883a 	mov	r17,r2
 8003c90:	0102040e 	bge	zero,r4,80044a4 <_dtoa_r+0x1600>
 8003c94:	d9000615 	stw	r4,24(sp)
 8003c98:	0500050e 	bge	zero,r20,8003cb0 <_dtoa_r+0xe0c>
 8003c9c:	880b883a 	mov	r5,r17
 8003ca0:	a00d883a 	mov	r6,r20
 8003ca4:	e009883a 	mov	r4,fp
 8003ca8:	8006cc00 	call	8006cc0 <__lshift>
 8003cac:	1023883a 	mov	r17,r2
 8003cb0:	9801241e 	bne	r19,zero,8004144 <_dtoa_r+0x12a0>
 8003cb4:	8829883a 	mov	r20,r17
 8003cb8:	d9000617 	ldw	r4,24(sp)
 8003cbc:	dcc00717 	ldw	r19,28(sp)
 8003cc0:	9480004c 	andi	r18,r18,1
 8003cc4:	20bfffc4 	addi	r2,r4,-1
 8003cc8:	9885883a 	add	r2,r19,r2
 8003ccc:	d8800415 	stw	r2,16(sp)
 8003cd0:	dc800615 	stw	r18,24(sp)
 8003cd4:	a80b883a 	mov	r5,r21
 8003cd8:	8009883a 	mov	r4,r16
 8003cdc:	8002ca40 	call	8002ca4 <quorem>
 8003ce0:	880b883a 	mov	r5,r17
 8003ce4:	8009883a 	mov	r4,r16
 8003ce8:	102f883a 	mov	r23,r2
 8003cec:	8006e080 	call	8006e08 <__mcmp>
 8003cf0:	a80b883a 	mov	r5,r21
 8003cf4:	a00d883a 	mov	r6,r20
 8003cf8:	e009883a 	mov	r4,fp
 8003cfc:	102d883a 	mov	r22,r2
 8003d00:	8006e680 	call	8006e68 <__mdiff>
 8003d04:	1007883a 	mov	r3,r2
 8003d08:	10800317 	ldw	r2,12(r2)
 8003d0c:	bc800c04 	addi	r18,r23,48
 8003d10:	180b883a 	mov	r5,r3
 8003d14:	10004e1e 	bne	r2,zero,8003e50 <_dtoa_r+0xfac>
 8003d18:	8009883a 	mov	r4,r16
 8003d1c:	d8c01615 	stw	r3,88(sp)
 8003d20:	8006e080 	call	8006e08 <__mcmp>
 8003d24:	d8c01617 	ldw	r3,88(sp)
 8003d28:	e009883a 	mov	r4,fp
 8003d2c:	d8801615 	stw	r2,88(sp)
 8003d30:	180b883a 	mov	r5,r3
 8003d34:	80065e80 	call	80065e8 <_Bfree>
 8003d38:	d8801617 	ldw	r2,88(sp)
 8003d3c:	1000041e 	bne	r2,zero,8003d50 <_dtoa_r+0xeac>
 8003d40:	d9800317 	ldw	r6,12(sp)
 8003d44:	3000021e 	bne	r6,zero,8003d50 <_dtoa_r+0xeac>
 8003d48:	d8c00617 	ldw	r3,24(sp)
 8003d4c:	18003726 	beq	r3,zero,8003e2c <_dtoa_r+0xf88>
 8003d50:	b0002016 	blt	r22,zero,8003dd4 <_dtoa_r+0xf30>
 8003d54:	b000041e 	bne	r22,zero,8003d68 <_dtoa_r+0xec4>
 8003d58:	d9000317 	ldw	r4,12(sp)
 8003d5c:	2000021e 	bne	r4,zero,8003d68 <_dtoa_r+0xec4>
 8003d60:	d8c00617 	ldw	r3,24(sp)
 8003d64:	18001b26 	beq	r3,zero,8003dd4 <_dtoa_r+0xf30>
 8003d68:	00810716 	blt	zero,r2,8004188 <_dtoa_r+0x12e4>
 8003d6c:	d8c00417 	ldw	r3,16(sp)
 8003d70:	9d800044 	addi	r22,r19,1
 8003d74:	9c800005 	stb	r18,0(r19)
 8003d78:	b02f883a 	mov	r23,r22
 8003d7c:	98c10626 	beq	r19,r3,8004198 <_dtoa_r+0x12f4>
 8003d80:	800b883a 	mov	r5,r16
 8003d84:	000f883a 	mov	r7,zero
 8003d88:	01800284 	movi	r6,10
 8003d8c:	e009883a 	mov	r4,fp
 8003d90:	80066100 	call	8006610 <__multadd>
 8003d94:	1021883a 	mov	r16,r2
 8003d98:	000f883a 	mov	r7,zero
 8003d9c:	01800284 	movi	r6,10
 8003da0:	880b883a 	mov	r5,r17
 8003da4:	e009883a 	mov	r4,fp
 8003da8:	8d002526 	beq	r17,r20,8003e40 <_dtoa_r+0xf9c>
 8003dac:	80066100 	call	8006610 <__multadd>
 8003db0:	a00b883a 	mov	r5,r20
 8003db4:	000f883a 	mov	r7,zero
 8003db8:	01800284 	movi	r6,10
 8003dbc:	e009883a 	mov	r4,fp
 8003dc0:	1023883a 	mov	r17,r2
 8003dc4:	80066100 	call	8006610 <__multadd>
 8003dc8:	1029883a 	mov	r20,r2
 8003dcc:	b027883a 	mov	r19,r22
 8003dd0:	003fc006 	br	8003cd4 <__alt_data_end+0xf8003cd4>
 8003dd4:	9011883a 	mov	r8,r18
 8003dd8:	00800e0e 	bge	zero,r2,8003e14 <_dtoa_r+0xf70>
 8003ddc:	800b883a 	mov	r5,r16
 8003de0:	01800044 	movi	r6,1
 8003de4:	e009883a 	mov	r4,fp
 8003de8:	da001715 	stw	r8,92(sp)
 8003dec:	8006cc00 	call	8006cc0 <__lshift>
 8003df0:	a80b883a 	mov	r5,r21
 8003df4:	1009883a 	mov	r4,r2
 8003df8:	1021883a 	mov	r16,r2
 8003dfc:	8006e080 	call	8006e08 <__mcmp>
 8003e00:	da001717 	ldw	r8,92(sp)
 8003e04:	0081960e 	bge	zero,r2,8004460 <_dtoa_r+0x15bc>
 8003e08:	00800e44 	movi	r2,57
 8003e0c:	40817026 	beq	r8,r2,80043d0 <_dtoa_r+0x152c>
 8003e10:	ba000c44 	addi	r8,r23,49
 8003e14:	8825883a 	mov	r18,r17
 8003e18:	9dc00044 	addi	r23,r19,1
 8003e1c:	9a000005 	stb	r8,0(r19)
 8003e20:	a023883a 	mov	r17,r20
 8003e24:	dc000915 	stw	r16,36(sp)
 8003e28:	003f2406 	br	8003abc <__alt_data_end+0xf8003abc>
 8003e2c:	00800e44 	movi	r2,57
 8003e30:	9011883a 	mov	r8,r18
 8003e34:	90816626 	beq	r18,r2,80043d0 <_dtoa_r+0x152c>
 8003e38:	05bff516 	blt	zero,r22,8003e10 <__alt_data_end+0xf8003e10>
 8003e3c:	003ff506 	br	8003e14 <__alt_data_end+0xf8003e14>
 8003e40:	80066100 	call	8006610 <__multadd>
 8003e44:	1023883a 	mov	r17,r2
 8003e48:	1029883a 	mov	r20,r2
 8003e4c:	003fdf06 	br	8003dcc <__alt_data_end+0xf8003dcc>
 8003e50:	e009883a 	mov	r4,fp
 8003e54:	80065e80 	call	80065e8 <_Bfree>
 8003e58:	00800044 	movi	r2,1
 8003e5c:	003fbc06 	br	8003d50 <__alt_data_end+0xf8003d50>
 8003e60:	a80b883a 	mov	r5,r21
 8003e64:	8009883a 	mov	r4,r16
 8003e68:	8006e080 	call	8006e08 <__mcmp>
 8003e6c:	103edb0e 	bge	r2,zero,80039dc <__alt_data_end+0xf80039dc>
 8003e70:	800b883a 	mov	r5,r16
 8003e74:	000f883a 	mov	r7,zero
 8003e78:	01800284 	movi	r6,10
 8003e7c:	e009883a 	mov	r4,fp
 8003e80:	80066100 	call	8006610 <__multadd>
 8003e84:	1021883a 	mov	r16,r2
 8003e88:	d8800517 	ldw	r2,20(sp)
 8003e8c:	d8c00b17 	ldw	r3,44(sp)
 8003e90:	10bfffc4 	addi	r2,r2,-1
 8003e94:	d8800515 	stw	r2,20(sp)
 8003e98:	183f761e 	bne	r3,zero,8003c74 <__alt_data_end+0xf8003c74>
 8003e9c:	d9000c17 	ldw	r4,48(sp)
 8003ea0:	0101730e 	bge	zero,r4,8004470 <_dtoa_r+0x15cc>
 8003ea4:	d9000615 	stw	r4,24(sp)
 8003ea8:	003ed006 	br	80039ec <__alt_data_end+0xf80039ec>
 8003eac:	00800084 	movi	r2,2
 8003eb0:	3081861e 	bne	r6,r2,80044cc <_dtoa_r+0x1628>
 8003eb4:	d8000b15 	stw	zero,44(sp)
 8003eb8:	003f3c06 	br	8003bac <__alt_data_end+0xf8003bac>
 8003ebc:	dc000917 	ldw	r16,36(sp)
 8003ec0:	003e9206 	br	800390c <__alt_data_end+0xf800390c>
 8003ec4:	d9c00317 	ldw	r7,12(sp)
 8003ec8:	00800084 	movi	r2,2
 8003ecc:	11fec50e 	bge	r2,r7,80039e4 <__alt_data_end+0xf80039e4>
 8003ed0:	d9000617 	ldw	r4,24(sp)
 8003ed4:	20013c1e 	bne	r4,zero,80043c8 <_dtoa_r+0x1524>
 8003ed8:	a80b883a 	mov	r5,r21
 8003edc:	000f883a 	mov	r7,zero
 8003ee0:	01800144 	movi	r6,5
 8003ee4:	e009883a 	mov	r4,fp
 8003ee8:	80066100 	call	8006610 <__multadd>
 8003eec:	100b883a 	mov	r5,r2
 8003ef0:	8009883a 	mov	r4,r16
 8003ef4:	102b883a 	mov	r21,r2
 8003ef8:	8006e080 	call	8006e08 <__mcmp>
 8003efc:	dc000915 	stw	r16,36(sp)
 8003f00:	00bf410e 	bge	zero,r2,8003c08 <__alt_data_end+0xf8003c08>
 8003f04:	d9c00717 	ldw	r7,28(sp)
 8003f08:	00800c44 	movi	r2,49
 8003f0c:	38800005 	stb	r2,0(r7)
 8003f10:	d8800517 	ldw	r2,20(sp)
 8003f14:	3dc00044 	addi	r23,r7,1
 8003f18:	10800044 	addi	r2,r2,1
 8003f1c:	d8800515 	stw	r2,20(sp)
 8003f20:	003f3d06 	br	8003c18 <__alt_data_end+0xf8003c18>
 8003f24:	d9800517 	ldw	r6,20(sp)
 8003f28:	d9c00717 	ldw	r7,28(sp)
 8003f2c:	00800c44 	movi	r2,49
 8003f30:	31800044 	addi	r6,r6,1
 8003f34:	d9800515 	stw	r6,20(sp)
 8003f38:	38800005 	stb	r2,0(r7)
 8003f3c:	003edf06 	br	8003abc <__alt_data_end+0xf8003abc>
 8003f40:	d8000b15 	stw	zero,44(sp)
 8003f44:	003c9f06 	br	80031c4 <__alt_data_end+0xf80031c4>
 8003f48:	903e7e1e 	bne	r18,zero,8003944 <__alt_data_end+0xf8003944>
 8003f4c:	00800434 	movhi	r2,16
 8003f50:	10bfffc4 	addi	r2,r2,-1
 8003f54:	9884703a 	and	r2,r19,r2
 8003f58:	1000ea1e 	bne	r2,zero,8004304 <_dtoa_r+0x1460>
 8003f5c:	9cdffc2c 	andhi	r19,r19,32752
 8003f60:	9800e826 	beq	r19,zero,8004304 <_dtoa_r+0x1460>
 8003f64:	d9c00817 	ldw	r7,32(sp)
 8003f68:	b5800044 	addi	r22,r22,1
 8003f6c:	04c00044 	movi	r19,1
 8003f70:	39c00044 	addi	r7,r7,1
 8003f74:	d9c00815 	stw	r7,32(sp)
 8003f78:	d8800d17 	ldw	r2,52(sp)
 8003f7c:	103e721e 	bne	r2,zero,8003948 <__alt_data_end+0xf8003948>
 8003f80:	00800044 	movi	r2,1
 8003f84:	003e7906 	br	800396c <__alt_data_end+0xf800396c>
 8003f88:	8009883a 	mov	r4,r16
 8003f8c:	800cde00 	call	800cde0 <__floatsidf>
 8003f90:	d9800f17 	ldw	r6,60(sp)
 8003f94:	d9c01017 	ldw	r7,64(sp)
 8003f98:	1009883a 	mov	r4,r2
 8003f9c:	180b883a 	mov	r5,r3
 8003fa0:	800bd4c0 	call	800bd4c <__muldf3>
 8003fa4:	000d883a 	mov	r6,zero
 8003fa8:	01d00734 	movhi	r7,16412
 8003fac:	1009883a 	mov	r4,r2
 8003fb0:	180b883a 	mov	r5,r3
 8003fb4:	800a9600 	call	800a960 <__adddf3>
 8003fb8:	047f3034 	movhi	r17,64704
 8003fbc:	1021883a 	mov	r16,r2
 8003fc0:	1c63883a 	add	r17,r3,r17
 8003fc4:	d9000f17 	ldw	r4,60(sp)
 8003fc8:	d9401017 	ldw	r5,64(sp)
 8003fcc:	000d883a 	mov	r6,zero
 8003fd0:	01d00534 	movhi	r7,16404
 8003fd4:	800c4640 	call	800c464 <__subdf3>
 8003fd8:	800d883a 	mov	r6,r16
 8003fdc:	880f883a 	mov	r7,r17
 8003fe0:	1009883a 	mov	r4,r2
 8003fe4:	180b883a 	mov	r5,r3
 8003fe8:	102b883a 	mov	r21,r2
 8003fec:	1829883a 	mov	r20,r3
 8003ff0:	800bb7c0 	call	800bb7c <__gedf2>
 8003ff4:	00806c16 	blt	zero,r2,80041a8 <_dtoa_r+0x1304>
 8003ff8:	89e0003c 	xorhi	r7,r17,32768
 8003ffc:	800d883a 	mov	r6,r16
 8004000:	a809883a 	mov	r4,r21
 8004004:	a00b883a 	mov	r5,r20
 8004008:	800bc580 	call	800bc58 <__ledf2>
 800400c:	103d7e0e 	bge	r2,zero,8003608 <__alt_data_end+0xf8003608>
 8004010:	002b883a 	mov	r21,zero
 8004014:	0023883a 	mov	r17,zero
 8004018:	003efb06 	br	8003c08 <__alt_data_end+0xf8003c08>
 800401c:	d8800717 	ldw	r2,28(sp)
 8004020:	003bd006 	br	8002f64 <__alt_data_end+0xf8002f64>
 8004024:	d9000a17 	ldw	r4,40(sp)
 8004028:	d9800d17 	ldw	r6,52(sp)
 800402c:	dd400a15 	stw	r21,40(sp)
 8004030:	a905c83a 	sub	r2,r21,r4
 8004034:	308d883a 	add	r6,r6,r2
 8004038:	d9800d15 	stw	r6,52(sp)
 800403c:	002b883a 	mov	r21,zero
 8004040:	003e0606 	br	800385c <__alt_data_end+0xf800385c>
 8004044:	9023883a 	mov	r17,r18
 8004048:	9829883a 	mov	r20,r19
 800404c:	04000084 	movi	r16,2
 8004050:	003c9206 	br	800329c <__alt_data_end+0xf800329c>
 8004054:	04000044 	movi	r16,1
 8004058:	dc000c15 	stw	r16,48(sp)
 800405c:	dc000615 	stw	r16,24(sp)
 8004060:	dc002215 	stw	r16,136(sp)
 8004064:	e0001115 	stw	zero,68(fp)
 8004068:	000b883a 	mov	r5,zero
 800406c:	003c6906 	br	8003214 <__alt_data_end+0xf8003214>
 8004070:	3021883a 	mov	r16,r6
 8004074:	003ffb06 	br	8004064 <__alt_data_end+0xf8004064>
 8004078:	1000021e 	bne	r2,zero,8004084 <_dtoa_r+0x11e0>
 800407c:	4200004c 	andi	r8,r8,1
 8004080:	403e7d1e 	bne	r8,zero,8003a78 <__alt_data_end+0xf8003a78>
 8004084:	01000c04 	movi	r4,48
 8004088:	00000106 	br	8004090 <_dtoa_r+0x11ec>
 800408c:	102f883a 	mov	r23,r2
 8004090:	b8bfffc4 	addi	r2,r23,-1
 8004094:	10c00007 	ldb	r3,0(r2)
 8004098:	193ffc26 	beq	r3,r4,800408c <__alt_data_end+0xf800408c>
 800409c:	003e8706 	br	8003abc <__alt_data_end+0xf8003abc>
 80040a0:	d8800517 	ldw	r2,20(sp)
 80040a4:	00a3c83a 	sub	r17,zero,r2
 80040a8:	8800a426 	beq	r17,zero,800433c <_dtoa_r+0x1498>
 80040ac:	888003cc 	andi	r2,r17,15
 80040b0:	100490fa 	slli	r2,r2,3
 80040b4:	00c200b4 	movhi	r3,2050
 80040b8:	18e41204 	addi	r3,r3,-28600
 80040bc:	1885883a 	add	r2,r3,r2
 80040c0:	11800017 	ldw	r6,0(r2)
 80040c4:	11c00117 	ldw	r7,4(r2)
 80040c8:	9009883a 	mov	r4,r18
 80040cc:	980b883a 	mov	r5,r19
 80040d0:	8823d13a 	srai	r17,r17,4
 80040d4:	800bd4c0 	call	800bd4c <__muldf3>
 80040d8:	d8800f15 	stw	r2,60(sp)
 80040dc:	d8c01015 	stw	r3,64(sp)
 80040e0:	8800e826 	beq	r17,zero,8004484 <_dtoa_r+0x15e0>
 80040e4:	050200b4 	movhi	r20,2050
 80040e8:	a5240804 	addi	r20,r20,-28640
 80040ec:	04000084 	movi	r16,2
 80040f0:	8980004c 	andi	r6,r17,1
 80040f4:	1009883a 	mov	r4,r2
 80040f8:	8823d07a 	srai	r17,r17,1
 80040fc:	180b883a 	mov	r5,r3
 8004100:	30000426 	beq	r6,zero,8004114 <_dtoa_r+0x1270>
 8004104:	a1800017 	ldw	r6,0(r20)
 8004108:	a1c00117 	ldw	r7,4(r20)
 800410c:	84000044 	addi	r16,r16,1
 8004110:	800bd4c0 	call	800bd4c <__muldf3>
 8004114:	a5000204 	addi	r20,r20,8
 8004118:	883ff51e 	bne	r17,zero,80040f0 <__alt_data_end+0xf80040f0>
 800411c:	d8800f15 	stw	r2,60(sp)
 8004120:	d8c01015 	stw	r3,64(sp)
 8004124:	003c7606 	br	8003300 <__alt_data_end+0xf8003300>
 8004128:	00c00c04 	movi	r3,48
 800412c:	10c00005 	stb	r3,0(r2)
 8004130:	d8c00517 	ldw	r3,20(sp)
 8004134:	bd3fffc3 	ldbu	r20,-1(r23)
 8004138:	18c00044 	addi	r3,r3,1
 800413c:	d8c00515 	stw	r3,20(sp)
 8004140:	003db906 	br	8003828 <__alt_data_end+0xf8003828>
 8004144:	89400117 	ldw	r5,4(r17)
 8004148:	e009883a 	mov	r4,fp
 800414c:	80065400 	call	8006540 <_Balloc>
 8004150:	89800417 	ldw	r6,16(r17)
 8004154:	89400304 	addi	r5,r17,12
 8004158:	11000304 	addi	r4,r2,12
 800415c:	31800084 	addi	r6,r6,2
 8004160:	318d883a 	add	r6,r6,r6
 8004164:	318d883a 	add	r6,r6,r6
 8004168:	1027883a 	mov	r19,r2
 800416c:	80061740 	call	8006174 <memcpy>
 8004170:	01800044 	movi	r6,1
 8004174:	980b883a 	mov	r5,r19
 8004178:	e009883a 	mov	r4,fp
 800417c:	8006cc00 	call	8006cc0 <__lshift>
 8004180:	1029883a 	mov	r20,r2
 8004184:	003ecc06 	br	8003cb8 <__alt_data_end+0xf8003cb8>
 8004188:	00800e44 	movi	r2,57
 800418c:	90809026 	beq	r18,r2,80043d0 <_dtoa_r+0x152c>
 8004190:	92000044 	addi	r8,r18,1
 8004194:	003f1f06 	br	8003e14 <__alt_data_end+0xf8003e14>
 8004198:	9011883a 	mov	r8,r18
 800419c:	8825883a 	mov	r18,r17
 80041a0:	a023883a 	mov	r17,r20
 80041a4:	003e2906 	br	8003a4c <__alt_data_end+0xf8003a4c>
 80041a8:	002b883a 	mov	r21,zero
 80041ac:	0023883a 	mov	r17,zero
 80041b0:	003f5406 	br	8003f04 <__alt_data_end+0xf8003f04>
 80041b4:	61bfffc4 	addi	r6,r12,-1
 80041b8:	300490fa 	slli	r2,r6,3
 80041bc:	00c200b4 	movhi	r3,2050
 80041c0:	18e41204 	addi	r3,r3,-28600
 80041c4:	1885883a 	add	r2,r3,r2
 80041c8:	11000017 	ldw	r4,0(r2)
 80041cc:	11400117 	ldw	r5,4(r2)
 80041d0:	d8800717 	ldw	r2,28(sp)
 80041d4:	880f883a 	mov	r7,r17
 80041d8:	d9801215 	stw	r6,72(sp)
 80041dc:	800d883a 	mov	r6,r16
 80041e0:	db001615 	stw	r12,88(sp)
 80041e4:	15c00044 	addi	r23,r2,1
 80041e8:	800bd4c0 	call	800bd4c <__muldf3>
 80041ec:	d9401017 	ldw	r5,64(sp)
 80041f0:	d9000f17 	ldw	r4,60(sp)
 80041f4:	d8c01515 	stw	r3,84(sp)
 80041f8:	d8801415 	stw	r2,80(sp)
 80041fc:	800cd600 	call	800cd60 <__fixdfsi>
 8004200:	1009883a 	mov	r4,r2
 8004204:	1021883a 	mov	r16,r2
 8004208:	800cde00 	call	800cde0 <__floatsidf>
 800420c:	d9000f17 	ldw	r4,60(sp)
 8004210:	d9401017 	ldw	r5,64(sp)
 8004214:	100d883a 	mov	r6,r2
 8004218:	180f883a 	mov	r7,r3
 800421c:	800c4640 	call	800c464 <__subdf3>
 8004220:	1829883a 	mov	r20,r3
 8004224:	d8c00717 	ldw	r3,28(sp)
 8004228:	84000c04 	addi	r16,r16,48
 800422c:	1023883a 	mov	r17,r2
 8004230:	1c000005 	stb	r16,0(r3)
 8004234:	db001617 	ldw	r12,88(sp)
 8004238:	00800044 	movi	r2,1
 800423c:	60802226 	beq	r12,r2,80042c8 <_dtoa_r+0x1424>
 8004240:	d9c00717 	ldw	r7,28(sp)
 8004244:	8805883a 	mov	r2,r17
 8004248:	b82b883a 	mov	r21,r23
 800424c:	3b19883a 	add	r12,r7,r12
 8004250:	6023883a 	mov	r17,r12
 8004254:	a007883a 	mov	r3,r20
 8004258:	dc800f15 	stw	r18,60(sp)
 800425c:	000d883a 	mov	r6,zero
 8004260:	01d00934 	movhi	r7,16420
 8004264:	1009883a 	mov	r4,r2
 8004268:	180b883a 	mov	r5,r3
 800426c:	800bd4c0 	call	800bd4c <__muldf3>
 8004270:	180b883a 	mov	r5,r3
 8004274:	1009883a 	mov	r4,r2
 8004278:	1829883a 	mov	r20,r3
 800427c:	1025883a 	mov	r18,r2
 8004280:	800cd600 	call	800cd60 <__fixdfsi>
 8004284:	1009883a 	mov	r4,r2
 8004288:	1021883a 	mov	r16,r2
 800428c:	800cde00 	call	800cde0 <__floatsidf>
 8004290:	100d883a 	mov	r6,r2
 8004294:	180f883a 	mov	r7,r3
 8004298:	9009883a 	mov	r4,r18
 800429c:	a00b883a 	mov	r5,r20
 80042a0:	84000c04 	addi	r16,r16,48
 80042a4:	800c4640 	call	800c464 <__subdf3>
 80042a8:	ad400044 	addi	r21,r21,1
 80042ac:	ac3fffc5 	stb	r16,-1(r21)
 80042b0:	ac7fea1e 	bne	r21,r17,800425c <__alt_data_end+0xf800425c>
 80042b4:	1023883a 	mov	r17,r2
 80042b8:	d8801217 	ldw	r2,72(sp)
 80042bc:	dc800f17 	ldw	r18,60(sp)
 80042c0:	1829883a 	mov	r20,r3
 80042c4:	b8af883a 	add	r23,r23,r2
 80042c8:	d9001417 	ldw	r4,80(sp)
 80042cc:	d9401517 	ldw	r5,84(sp)
 80042d0:	000d883a 	mov	r6,zero
 80042d4:	01cff834 	movhi	r7,16352
 80042d8:	800a9600 	call	800a960 <__adddf3>
 80042dc:	880d883a 	mov	r6,r17
 80042e0:	a00f883a 	mov	r7,r20
 80042e4:	1009883a 	mov	r4,r2
 80042e8:	180b883a 	mov	r5,r3
 80042ec:	800bc580 	call	800bc58 <__ledf2>
 80042f0:	10003e0e 	bge	r2,zero,80043ec <_dtoa_r+0x1548>
 80042f4:	d9001317 	ldw	r4,76(sp)
 80042f8:	bd3fffc3 	ldbu	r20,-1(r23)
 80042fc:	d9000515 	stw	r4,20(sp)
 8004300:	003d3b06 	br	80037f0 <__alt_data_end+0xf80037f0>
 8004304:	0027883a 	mov	r19,zero
 8004308:	003f1b06 	br	8003f78 <__alt_data_end+0xf8003f78>
 800430c:	d8800817 	ldw	r2,32(sp)
 8004310:	11e9c83a 	sub	r20,r2,r7
 8004314:	0005883a 	mov	r2,zero
 8004318:	003d5406 	br	800386c <__alt_data_end+0xf800386c>
 800431c:	00800044 	movi	r2,1
 8004320:	003dc706 	br	8003a40 <__alt_data_end+0xf8003a40>
 8004324:	d8c00217 	ldw	r3,8(sp)
 8004328:	00800d84 	movi	r2,54
 800432c:	dd400a17 	ldw	r21,40(sp)
 8004330:	10c5c83a 	sub	r2,r2,r3
 8004334:	dd000817 	ldw	r20,32(sp)
 8004338:	003d4c06 	br	800386c <__alt_data_end+0xf800386c>
 800433c:	dc800f15 	stw	r18,60(sp)
 8004340:	dcc01015 	stw	r19,64(sp)
 8004344:	04000084 	movi	r16,2
 8004348:	003bed06 	br	8003300 <__alt_data_end+0xf8003300>
 800434c:	d9000617 	ldw	r4,24(sp)
 8004350:	203f0d26 	beq	r4,zero,8003f88 <__alt_data_end+0xf8003f88>
 8004354:	d9800c17 	ldw	r6,48(sp)
 8004358:	01bcab0e 	bge	zero,r6,8003608 <__alt_data_end+0xf8003608>
 800435c:	d9401017 	ldw	r5,64(sp)
 8004360:	d9000f17 	ldw	r4,60(sp)
 8004364:	000d883a 	mov	r6,zero
 8004368:	01d00934 	movhi	r7,16420
 800436c:	800bd4c0 	call	800bd4c <__muldf3>
 8004370:	81000044 	addi	r4,r16,1
 8004374:	d8800f15 	stw	r2,60(sp)
 8004378:	d8c01015 	stw	r3,64(sp)
 800437c:	800cde00 	call	800cde0 <__floatsidf>
 8004380:	d9800f17 	ldw	r6,60(sp)
 8004384:	d9c01017 	ldw	r7,64(sp)
 8004388:	1009883a 	mov	r4,r2
 800438c:	180b883a 	mov	r5,r3
 8004390:	800bd4c0 	call	800bd4c <__muldf3>
 8004394:	01d00734 	movhi	r7,16412
 8004398:	000d883a 	mov	r6,zero
 800439c:	1009883a 	mov	r4,r2
 80043a0:	180b883a 	mov	r5,r3
 80043a4:	800a9600 	call	800a960 <__adddf3>
 80043a8:	d9c00517 	ldw	r7,20(sp)
 80043ac:	047f3034 	movhi	r17,64704
 80043b0:	1021883a 	mov	r16,r2
 80043b4:	39ffffc4 	addi	r7,r7,-1
 80043b8:	d9c01315 	stw	r7,76(sp)
 80043bc:	1c63883a 	add	r17,r3,r17
 80043c0:	db000c17 	ldw	r12,48(sp)
 80043c4:	003bea06 	br	8003370 <__alt_data_end+0xf8003370>
 80043c8:	dc000915 	stw	r16,36(sp)
 80043cc:	003e0e06 	br	8003c08 <__alt_data_end+0xf8003c08>
 80043d0:	01000e44 	movi	r4,57
 80043d4:	8825883a 	mov	r18,r17
 80043d8:	9dc00044 	addi	r23,r19,1
 80043dc:	99000005 	stb	r4,0(r19)
 80043e0:	a023883a 	mov	r17,r20
 80043e4:	dc000915 	stw	r16,36(sp)
 80043e8:	003da406 	br	8003a7c <__alt_data_end+0xf8003a7c>
 80043ec:	d9801417 	ldw	r6,80(sp)
 80043f0:	d9c01517 	ldw	r7,84(sp)
 80043f4:	0009883a 	mov	r4,zero
 80043f8:	014ff834 	movhi	r5,16352
 80043fc:	800c4640 	call	800c464 <__subdf3>
 8004400:	880d883a 	mov	r6,r17
 8004404:	a00f883a 	mov	r7,r20
 8004408:	1009883a 	mov	r4,r2
 800440c:	180b883a 	mov	r5,r3
 8004410:	800bb7c0 	call	800bb7c <__gedf2>
 8004414:	00bc7c0e 	bge	zero,r2,8003608 <__alt_data_end+0xf8003608>
 8004418:	01000c04 	movi	r4,48
 800441c:	00000106 	br	8004424 <_dtoa_r+0x1580>
 8004420:	102f883a 	mov	r23,r2
 8004424:	b8bfffc4 	addi	r2,r23,-1
 8004428:	10c00007 	ldb	r3,0(r2)
 800442c:	193ffc26 	beq	r3,r4,8004420 <__alt_data_end+0xf8004420>
 8004430:	d9801317 	ldw	r6,76(sp)
 8004434:	d9800515 	stw	r6,20(sp)
 8004438:	003c4406 	br	800354c <__alt_data_end+0xf800354c>
 800443c:	d9801317 	ldw	r6,76(sp)
 8004440:	d9800515 	stw	r6,20(sp)
 8004444:	003cea06 	br	80037f0 <__alt_data_end+0xf80037f0>
 8004448:	dd800f17 	ldw	r22,60(sp)
 800444c:	dcc01017 	ldw	r19,64(sp)
 8004450:	dc801217 	ldw	r18,72(sp)
 8004454:	003c6c06 	br	8003608 <__alt_data_end+0xf8003608>
 8004458:	903e031e 	bne	r18,zero,8003c68 <__alt_data_end+0xf8003c68>
 800445c:	003ebb06 	br	8003f4c <__alt_data_end+0xf8003f4c>
 8004460:	103e6c1e 	bne	r2,zero,8003e14 <__alt_data_end+0xf8003e14>
 8004464:	4080004c 	andi	r2,r8,1
 8004468:	103e6a26 	beq	r2,zero,8003e14 <__alt_data_end+0xf8003e14>
 800446c:	003e6606 	br	8003e08 <__alt_data_end+0xf8003e08>
 8004470:	d8c00317 	ldw	r3,12(sp)
 8004474:	00800084 	movi	r2,2
 8004478:	10c02916 	blt	r2,r3,8004520 <_dtoa_r+0x167c>
 800447c:	d9000c17 	ldw	r4,48(sp)
 8004480:	003e8806 	br	8003ea4 <__alt_data_end+0xf8003ea4>
 8004484:	04000084 	movi	r16,2
 8004488:	003b9d06 	br	8003300 <__alt_data_end+0xf8003300>
 800448c:	d9001317 	ldw	r4,76(sp)
 8004490:	d9000515 	stw	r4,20(sp)
 8004494:	003cd606 	br	80037f0 <__alt_data_end+0xf80037f0>
 8004498:	d8801317 	ldw	r2,76(sp)
 800449c:	d8800515 	stw	r2,20(sp)
 80044a0:	003c2a06 	br	800354c <__alt_data_end+0xf800354c>
 80044a4:	d9800317 	ldw	r6,12(sp)
 80044a8:	00800084 	movi	r2,2
 80044ac:	11801516 	blt	r2,r6,8004504 <_dtoa_r+0x1660>
 80044b0:	d9c00c17 	ldw	r7,48(sp)
 80044b4:	d9c00615 	stw	r7,24(sp)
 80044b8:	003df706 	br	8003c98 <__alt_data_end+0xf8003c98>
 80044bc:	193d3926 	beq	r3,r4,80039a4 <__alt_data_end+0xf80039a4>
 80044c0:	00c00f04 	movi	r3,60
 80044c4:	1885c83a 	sub	r2,r3,r2
 80044c8:	003ddf06 	br	8003c48 <__alt_data_end+0xf8003c48>
 80044cc:	e009883a 	mov	r4,fp
 80044d0:	e0001115 	stw	zero,68(fp)
 80044d4:	000b883a 	mov	r5,zero
 80044d8:	80065400 	call	8006540 <_Balloc>
 80044dc:	d8800715 	stw	r2,28(sp)
 80044e0:	d8c00717 	ldw	r3,28(sp)
 80044e4:	00bfffc4 	movi	r2,-1
 80044e8:	01000044 	movi	r4,1
 80044ec:	d8800c15 	stw	r2,48(sp)
 80044f0:	e0c01015 	stw	r3,64(fp)
 80044f4:	d9000b15 	stw	r4,44(sp)
 80044f8:	d8800615 	stw	r2,24(sp)
 80044fc:	d8002215 	stw	zero,136(sp)
 8004500:	003c4106 	br	8003608 <__alt_data_end+0xf8003608>
 8004504:	d8c00c17 	ldw	r3,48(sp)
 8004508:	d8c00615 	stw	r3,24(sp)
 800450c:	003e7006 	br	8003ed0 <__alt_data_end+0xf8003ed0>
 8004510:	04400044 	movi	r17,1
 8004514:	003b2006 	br	8003198 <__alt_data_end+0xf8003198>
 8004518:	000b883a 	mov	r5,zero
 800451c:	003b3d06 	br	8003214 <__alt_data_end+0xf8003214>
 8004520:	d8800c17 	ldw	r2,48(sp)
 8004524:	d8800615 	stw	r2,24(sp)
 8004528:	003e6906 	br	8003ed0 <__alt_data_end+0xf8003ed0>

0800452c <__sflush_r>:
 800452c:	2880030b 	ldhu	r2,12(r5)
 8004530:	defffb04 	addi	sp,sp,-20
 8004534:	dcc00315 	stw	r19,12(sp)
 8004538:	dc400115 	stw	r17,4(sp)
 800453c:	dfc00415 	stw	ra,16(sp)
 8004540:	dc800215 	stw	r18,8(sp)
 8004544:	dc000015 	stw	r16,0(sp)
 8004548:	10c0020c 	andi	r3,r2,8
 800454c:	2823883a 	mov	r17,r5
 8004550:	2027883a 	mov	r19,r4
 8004554:	1800311e 	bne	r3,zero,800461c <__sflush_r+0xf0>
 8004558:	28c00117 	ldw	r3,4(r5)
 800455c:	10820014 	ori	r2,r2,2048
 8004560:	2880030d 	sth	r2,12(r5)
 8004564:	00c04b0e 	bge	zero,r3,8004694 <__sflush_r+0x168>
 8004568:	8a000a17 	ldw	r8,40(r17)
 800456c:	40002326 	beq	r8,zero,80045fc <__sflush_r+0xd0>
 8004570:	9c000017 	ldw	r16,0(r19)
 8004574:	10c4000c 	andi	r3,r2,4096
 8004578:	98000015 	stw	zero,0(r19)
 800457c:	18004826 	beq	r3,zero,80046a0 <__sflush_r+0x174>
 8004580:	89801417 	ldw	r6,80(r17)
 8004584:	10c0010c 	andi	r3,r2,4
 8004588:	18000626 	beq	r3,zero,80045a4 <__sflush_r+0x78>
 800458c:	88c00117 	ldw	r3,4(r17)
 8004590:	88800c17 	ldw	r2,48(r17)
 8004594:	30cdc83a 	sub	r6,r6,r3
 8004598:	10000226 	beq	r2,zero,80045a4 <__sflush_r+0x78>
 800459c:	88800f17 	ldw	r2,60(r17)
 80045a0:	308dc83a 	sub	r6,r6,r2
 80045a4:	89400717 	ldw	r5,28(r17)
 80045a8:	000f883a 	mov	r7,zero
 80045ac:	9809883a 	mov	r4,r19
 80045b0:	403ee83a 	callr	r8
 80045b4:	00ffffc4 	movi	r3,-1
 80045b8:	10c04426 	beq	r2,r3,80046cc <__sflush_r+0x1a0>
 80045bc:	88c0030b 	ldhu	r3,12(r17)
 80045c0:	89000417 	ldw	r4,16(r17)
 80045c4:	88000115 	stw	zero,4(r17)
 80045c8:	197dffcc 	andi	r5,r3,63487
 80045cc:	8940030d 	sth	r5,12(r17)
 80045d0:	89000015 	stw	r4,0(r17)
 80045d4:	18c4000c 	andi	r3,r3,4096
 80045d8:	18002c1e 	bne	r3,zero,800468c <__sflush_r+0x160>
 80045dc:	89400c17 	ldw	r5,48(r17)
 80045e0:	9c000015 	stw	r16,0(r19)
 80045e4:	28000526 	beq	r5,zero,80045fc <__sflush_r+0xd0>
 80045e8:	88801004 	addi	r2,r17,64
 80045ec:	28800226 	beq	r5,r2,80045f8 <__sflush_r+0xcc>
 80045f0:	9809883a 	mov	r4,r19
 80045f4:	8004c980 	call	8004c98 <_free_r>
 80045f8:	88000c15 	stw	zero,48(r17)
 80045fc:	0005883a 	mov	r2,zero
 8004600:	dfc00417 	ldw	ra,16(sp)
 8004604:	dcc00317 	ldw	r19,12(sp)
 8004608:	dc800217 	ldw	r18,8(sp)
 800460c:	dc400117 	ldw	r17,4(sp)
 8004610:	dc000017 	ldw	r16,0(sp)
 8004614:	dec00504 	addi	sp,sp,20
 8004618:	f800283a 	ret
 800461c:	2c800417 	ldw	r18,16(r5)
 8004620:	903ff626 	beq	r18,zero,80045fc <__alt_data_end+0xf80045fc>
 8004624:	2c000017 	ldw	r16,0(r5)
 8004628:	108000cc 	andi	r2,r2,3
 800462c:	2c800015 	stw	r18,0(r5)
 8004630:	84a1c83a 	sub	r16,r16,r18
 8004634:	1000131e 	bne	r2,zero,8004684 <__sflush_r+0x158>
 8004638:	28800517 	ldw	r2,20(r5)
 800463c:	88800215 	stw	r2,8(r17)
 8004640:	04000316 	blt	zero,r16,8004650 <__sflush_r+0x124>
 8004644:	003fed06 	br	80045fc <__alt_data_end+0xf80045fc>
 8004648:	90a5883a 	add	r18,r18,r2
 800464c:	043feb0e 	bge	zero,r16,80045fc <__alt_data_end+0xf80045fc>
 8004650:	88800917 	ldw	r2,36(r17)
 8004654:	89400717 	ldw	r5,28(r17)
 8004658:	800f883a 	mov	r7,r16
 800465c:	900d883a 	mov	r6,r18
 8004660:	9809883a 	mov	r4,r19
 8004664:	103ee83a 	callr	r2
 8004668:	80a1c83a 	sub	r16,r16,r2
 800466c:	00bff616 	blt	zero,r2,8004648 <__alt_data_end+0xf8004648>
 8004670:	88c0030b 	ldhu	r3,12(r17)
 8004674:	00bfffc4 	movi	r2,-1
 8004678:	18c01014 	ori	r3,r3,64
 800467c:	88c0030d 	sth	r3,12(r17)
 8004680:	003fdf06 	br	8004600 <__alt_data_end+0xf8004600>
 8004684:	0005883a 	mov	r2,zero
 8004688:	003fec06 	br	800463c <__alt_data_end+0xf800463c>
 800468c:	88801415 	stw	r2,80(r17)
 8004690:	003fd206 	br	80045dc <__alt_data_end+0xf80045dc>
 8004694:	28c00f17 	ldw	r3,60(r5)
 8004698:	00ffb316 	blt	zero,r3,8004568 <__alt_data_end+0xf8004568>
 800469c:	003fd706 	br	80045fc <__alt_data_end+0xf80045fc>
 80046a0:	89400717 	ldw	r5,28(r17)
 80046a4:	000d883a 	mov	r6,zero
 80046a8:	01c00044 	movi	r7,1
 80046ac:	9809883a 	mov	r4,r19
 80046b0:	403ee83a 	callr	r8
 80046b4:	100d883a 	mov	r6,r2
 80046b8:	00bfffc4 	movi	r2,-1
 80046bc:	30801426 	beq	r6,r2,8004710 <__sflush_r+0x1e4>
 80046c0:	8880030b 	ldhu	r2,12(r17)
 80046c4:	8a000a17 	ldw	r8,40(r17)
 80046c8:	003fae06 	br	8004584 <__alt_data_end+0xf8004584>
 80046cc:	98c00017 	ldw	r3,0(r19)
 80046d0:	183fba26 	beq	r3,zero,80045bc <__alt_data_end+0xf80045bc>
 80046d4:	01000744 	movi	r4,29
 80046d8:	19000626 	beq	r3,r4,80046f4 <__sflush_r+0x1c8>
 80046dc:	01000584 	movi	r4,22
 80046e0:	19000426 	beq	r3,r4,80046f4 <__sflush_r+0x1c8>
 80046e4:	88c0030b 	ldhu	r3,12(r17)
 80046e8:	18c01014 	ori	r3,r3,64
 80046ec:	88c0030d 	sth	r3,12(r17)
 80046f0:	003fc306 	br	8004600 <__alt_data_end+0xf8004600>
 80046f4:	8880030b 	ldhu	r2,12(r17)
 80046f8:	88c00417 	ldw	r3,16(r17)
 80046fc:	88000115 	stw	zero,4(r17)
 8004700:	10bdffcc 	andi	r2,r2,63487
 8004704:	8880030d 	sth	r2,12(r17)
 8004708:	88c00015 	stw	r3,0(r17)
 800470c:	003fb306 	br	80045dc <__alt_data_end+0xf80045dc>
 8004710:	98800017 	ldw	r2,0(r19)
 8004714:	103fea26 	beq	r2,zero,80046c0 <__alt_data_end+0xf80046c0>
 8004718:	00c00744 	movi	r3,29
 800471c:	10c00226 	beq	r2,r3,8004728 <__sflush_r+0x1fc>
 8004720:	00c00584 	movi	r3,22
 8004724:	10c0031e 	bne	r2,r3,8004734 <__sflush_r+0x208>
 8004728:	9c000015 	stw	r16,0(r19)
 800472c:	0005883a 	mov	r2,zero
 8004730:	003fb306 	br	8004600 <__alt_data_end+0xf8004600>
 8004734:	88c0030b 	ldhu	r3,12(r17)
 8004738:	3005883a 	mov	r2,r6
 800473c:	18c01014 	ori	r3,r3,64
 8004740:	88c0030d 	sth	r3,12(r17)
 8004744:	003fae06 	br	8004600 <__alt_data_end+0xf8004600>

08004748 <_fflush_r>:
 8004748:	defffd04 	addi	sp,sp,-12
 800474c:	dc000115 	stw	r16,4(sp)
 8004750:	dfc00215 	stw	ra,8(sp)
 8004754:	2021883a 	mov	r16,r4
 8004758:	20000226 	beq	r4,zero,8004764 <_fflush_r+0x1c>
 800475c:	20800e17 	ldw	r2,56(r4)
 8004760:	10000c26 	beq	r2,zero,8004794 <_fflush_r+0x4c>
 8004764:	2880030f 	ldh	r2,12(r5)
 8004768:	1000051e 	bne	r2,zero,8004780 <_fflush_r+0x38>
 800476c:	0005883a 	mov	r2,zero
 8004770:	dfc00217 	ldw	ra,8(sp)
 8004774:	dc000117 	ldw	r16,4(sp)
 8004778:	dec00304 	addi	sp,sp,12
 800477c:	f800283a 	ret
 8004780:	8009883a 	mov	r4,r16
 8004784:	dfc00217 	ldw	ra,8(sp)
 8004788:	dc000117 	ldw	r16,4(sp)
 800478c:	dec00304 	addi	sp,sp,12
 8004790:	800452c1 	jmpi	800452c <__sflush_r>
 8004794:	d9400015 	stw	r5,0(sp)
 8004798:	8004b240 	call	8004b24 <__sinit>
 800479c:	d9400017 	ldw	r5,0(sp)
 80047a0:	003ff006 	br	8004764 <__alt_data_end+0xf8004764>

080047a4 <fflush>:
 80047a4:	20000526 	beq	r4,zero,80047bc <fflush+0x18>
 80047a8:	008200b4 	movhi	r2,2050
 80047ac:	10ab9f04 	addi	r2,r2,-20868
 80047b0:	200b883a 	mov	r5,r4
 80047b4:	11000017 	ldw	r4,0(r2)
 80047b8:	80047481 	jmpi	8004748 <_fflush_r>
 80047bc:	008200b4 	movhi	r2,2050
 80047c0:	10ab9e04 	addi	r2,r2,-20872
 80047c4:	11000017 	ldw	r4,0(r2)
 80047c8:	01420034 	movhi	r5,2048
 80047cc:	2951d204 	addi	r5,r5,18248
 80047d0:	80055281 	jmpi	8005528 <_fwalk_reent>

080047d4 <__fp_unlock>:
 80047d4:	0005883a 	mov	r2,zero
 80047d8:	f800283a 	ret

080047dc <_cleanup_r>:
 80047dc:	01420074 	movhi	r5,2049
 80047e0:	29655004 	addi	r5,r5,-27328
 80047e4:	80055281 	jmpi	8005528 <_fwalk_reent>

080047e8 <__sinit.part.1>:
 80047e8:	defff704 	addi	sp,sp,-36
 80047ec:	00c20034 	movhi	r3,2048
 80047f0:	dfc00815 	stw	ra,32(sp)
 80047f4:	ddc00715 	stw	r23,28(sp)
 80047f8:	dd800615 	stw	r22,24(sp)
 80047fc:	dd400515 	stw	r21,20(sp)
 8004800:	dd000415 	stw	r20,16(sp)
 8004804:	dcc00315 	stw	r19,12(sp)
 8004808:	dc800215 	stw	r18,8(sp)
 800480c:	dc400115 	stw	r17,4(sp)
 8004810:	dc000015 	stw	r16,0(sp)
 8004814:	18d1f704 	addi	r3,r3,18396
 8004818:	24000117 	ldw	r16,4(r4)
 800481c:	20c00f15 	stw	r3,60(r4)
 8004820:	2080bb04 	addi	r2,r4,748
 8004824:	00c000c4 	movi	r3,3
 8004828:	20c0b915 	stw	r3,740(r4)
 800482c:	2080ba15 	stw	r2,744(r4)
 8004830:	2000b815 	stw	zero,736(r4)
 8004834:	05c00204 	movi	r23,8
 8004838:	00800104 	movi	r2,4
 800483c:	2025883a 	mov	r18,r4
 8004840:	b80d883a 	mov	r6,r23
 8004844:	81001704 	addi	r4,r16,92
 8004848:	000b883a 	mov	r5,zero
 800484c:	80000015 	stw	zero,0(r16)
 8004850:	80000115 	stw	zero,4(r16)
 8004854:	80000215 	stw	zero,8(r16)
 8004858:	8080030d 	sth	r2,12(r16)
 800485c:	80001915 	stw	zero,100(r16)
 8004860:	8000038d 	sth	zero,14(r16)
 8004864:	80000415 	stw	zero,16(r16)
 8004868:	80000515 	stw	zero,20(r16)
 800486c:	80000615 	stw	zero,24(r16)
 8004870:	80064180 	call	8006418 <memset>
 8004874:	05820034 	movhi	r22,2048
 8004878:	94400217 	ldw	r17,8(r18)
 800487c:	05420034 	movhi	r21,2048
 8004880:	05020034 	movhi	r20,2048
 8004884:	04c20034 	movhi	r19,2048
 8004888:	b59eda04 	addi	r22,r22,31592
 800488c:	ad5ef104 	addi	r21,r21,31684
 8004890:	a51f1004 	addi	r20,r20,31808
 8004894:	9cdf2704 	addi	r19,r19,31900
 8004898:	85800815 	stw	r22,32(r16)
 800489c:	85400915 	stw	r21,36(r16)
 80048a0:	85000a15 	stw	r20,40(r16)
 80048a4:	84c00b15 	stw	r19,44(r16)
 80048a8:	84000715 	stw	r16,28(r16)
 80048ac:	00800284 	movi	r2,10
 80048b0:	8880030d 	sth	r2,12(r17)
 80048b4:	00800044 	movi	r2,1
 80048b8:	b80d883a 	mov	r6,r23
 80048bc:	89001704 	addi	r4,r17,92
 80048c0:	000b883a 	mov	r5,zero
 80048c4:	88000015 	stw	zero,0(r17)
 80048c8:	88000115 	stw	zero,4(r17)
 80048cc:	88000215 	stw	zero,8(r17)
 80048d0:	88001915 	stw	zero,100(r17)
 80048d4:	8880038d 	sth	r2,14(r17)
 80048d8:	88000415 	stw	zero,16(r17)
 80048dc:	88000515 	stw	zero,20(r17)
 80048e0:	88000615 	stw	zero,24(r17)
 80048e4:	80064180 	call	8006418 <memset>
 80048e8:	94000317 	ldw	r16,12(r18)
 80048ec:	00800484 	movi	r2,18
 80048f0:	8c400715 	stw	r17,28(r17)
 80048f4:	8d800815 	stw	r22,32(r17)
 80048f8:	8d400915 	stw	r21,36(r17)
 80048fc:	8d000a15 	stw	r20,40(r17)
 8004900:	8cc00b15 	stw	r19,44(r17)
 8004904:	8080030d 	sth	r2,12(r16)
 8004908:	00800084 	movi	r2,2
 800490c:	80000015 	stw	zero,0(r16)
 8004910:	80000115 	stw	zero,4(r16)
 8004914:	80000215 	stw	zero,8(r16)
 8004918:	80001915 	stw	zero,100(r16)
 800491c:	8080038d 	sth	r2,14(r16)
 8004920:	80000415 	stw	zero,16(r16)
 8004924:	80000515 	stw	zero,20(r16)
 8004928:	80000615 	stw	zero,24(r16)
 800492c:	b80d883a 	mov	r6,r23
 8004930:	000b883a 	mov	r5,zero
 8004934:	81001704 	addi	r4,r16,92
 8004938:	80064180 	call	8006418 <memset>
 800493c:	00800044 	movi	r2,1
 8004940:	84000715 	stw	r16,28(r16)
 8004944:	85800815 	stw	r22,32(r16)
 8004948:	85400915 	stw	r21,36(r16)
 800494c:	85000a15 	stw	r20,40(r16)
 8004950:	84c00b15 	stw	r19,44(r16)
 8004954:	90800e15 	stw	r2,56(r18)
 8004958:	dfc00817 	ldw	ra,32(sp)
 800495c:	ddc00717 	ldw	r23,28(sp)
 8004960:	dd800617 	ldw	r22,24(sp)
 8004964:	dd400517 	ldw	r21,20(sp)
 8004968:	dd000417 	ldw	r20,16(sp)
 800496c:	dcc00317 	ldw	r19,12(sp)
 8004970:	dc800217 	ldw	r18,8(sp)
 8004974:	dc400117 	ldw	r17,4(sp)
 8004978:	dc000017 	ldw	r16,0(sp)
 800497c:	dec00904 	addi	sp,sp,36
 8004980:	f800283a 	ret

08004984 <__fp_lock>:
 8004984:	0005883a 	mov	r2,zero
 8004988:	f800283a 	ret

0800498c <__sfmoreglue>:
 800498c:	defffc04 	addi	sp,sp,-16
 8004990:	dc400115 	stw	r17,4(sp)
 8004994:	2c7fffc4 	addi	r17,r5,-1
 8004998:	8c401a24 	muli	r17,r17,104
 800499c:	dc800215 	stw	r18,8(sp)
 80049a0:	2825883a 	mov	r18,r5
 80049a4:	89401d04 	addi	r5,r17,116
 80049a8:	dc000015 	stw	r16,0(sp)
 80049ac:	dfc00315 	stw	ra,12(sp)
 80049b0:	80058840 	call	8005884 <_malloc_r>
 80049b4:	1021883a 	mov	r16,r2
 80049b8:	10000726 	beq	r2,zero,80049d8 <__sfmoreglue+0x4c>
 80049bc:	11000304 	addi	r4,r2,12
 80049c0:	10000015 	stw	zero,0(r2)
 80049c4:	14800115 	stw	r18,4(r2)
 80049c8:	11000215 	stw	r4,8(r2)
 80049cc:	89801a04 	addi	r6,r17,104
 80049d0:	000b883a 	mov	r5,zero
 80049d4:	80064180 	call	8006418 <memset>
 80049d8:	8005883a 	mov	r2,r16
 80049dc:	dfc00317 	ldw	ra,12(sp)
 80049e0:	dc800217 	ldw	r18,8(sp)
 80049e4:	dc400117 	ldw	r17,4(sp)
 80049e8:	dc000017 	ldw	r16,0(sp)
 80049ec:	dec00404 	addi	sp,sp,16
 80049f0:	f800283a 	ret

080049f4 <__sfp>:
 80049f4:	defffb04 	addi	sp,sp,-20
 80049f8:	dc000015 	stw	r16,0(sp)
 80049fc:	040200b4 	movhi	r16,2050
 8004a00:	842b9e04 	addi	r16,r16,-20872
 8004a04:	dcc00315 	stw	r19,12(sp)
 8004a08:	2027883a 	mov	r19,r4
 8004a0c:	81000017 	ldw	r4,0(r16)
 8004a10:	dfc00415 	stw	ra,16(sp)
 8004a14:	dc800215 	stw	r18,8(sp)
 8004a18:	20800e17 	ldw	r2,56(r4)
 8004a1c:	dc400115 	stw	r17,4(sp)
 8004a20:	1000021e 	bne	r2,zero,8004a2c <__sfp+0x38>
 8004a24:	80047e80 	call	80047e8 <__sinit.part.1>
 8004a28:	81000017 	ldw	r4,0(r16)
 8004a2c:	2480b804 	addi	r18,r4,736
 8004a30:	047fffc4 	movi	r17,-1
 8004a34:	91000117 	ldw	r4,4(r18)
 8004a38:	94000217 	ldw	r16,8(r18)
 8004a3c:	213fffc4 	addi	r4,r4,-1
 8004a40:	20000a16 	blt	r4,zero,8004a6c <__sfp+0x78>
 8004a44:	8080030f 	ldh	r2,12(r16)
 8004a48:	10000c26 	beq	r2,zero,8004a7c <__sfp+0x88>
 8004a4c:	80c01d04 	addi	r3,r16,116
 8004a50:	00000206 	br	8004a5c <__sfp+0x68>
 8004a54:	18bfe60f 	ldh	r2,-104(r3)
 8004a58:	10000826 	beq	r2,zero,8004a7c <__sfp+0x88>
 8004a5c:	213fffc4 	addi	r4,r4,-1
 8004a60:	1c3ffd04 	addi	r16,r3,-12
 8004a64:	18c01a04 	addi	r3,r3,104
 8004a68:	247ffa1e 	bne	r4,r17,8004a54 <__alt_data_end+0xf8004a54>
 8004a6c:	90800017 	ldw	r2,0(r18)
 8004a70:	10001d26 	beq	r2,zero,8004ae8 <__sfp+0xf4>
 8004a74:	1025883a 	mov	r18,r2
 8004a78:	003fee06 	br	8004a34 <__alt_data_end+0xf8004a34>
 8004a7c:	00bfffc4 	movi	r2,-1
 8004a80:	8080038d 	sth	r2,14(r16)
 8004a84:	00800044 	movi	r2,1
 8004a88:	8080030d 	sth	r2,12(r16)
 8004a8c:	80001915 	stw	zero,100(r16)
 8004a90:	80000015 	stw	zero,0(r16)
 8004a94:	80000215 	stw	zero,8(r16)
 8004a98:	80000115 	stw	zero,4(r16)
 8004a9c:	80000415 	stw	zero,16(r16)
 8004aa0:	80000515 	stw	zero,20(r16)
 8004aa4:	80000615 	stw	zero,24(r16)
 8004aa8:	01800204 	movi	r6,8
 8004aac:	000b883a 	mov	r5,zero
 8004ab0:	81001704 	addi	r4,r16,92
 8004ab4:	80064180 	call	8006418 <memset>
 8004ab8:	8005883a 	mov	r2,r16
 8004abc:	80000c15 	stw	zero,48(r16)
 8004ac0:	80000d15 	stw	zero,52(r16)
 8004ac4:	80001115 	stw	zero,68(r16)
 8004ac8:	80001215 	stw	zero,72(r16)
 8004acc:	dfc00417 	ldw	ra,16(sp)
 8004ad0:	dcc00317 	ldw	r19,12(sp)
 8004ad4:	dc800217 	ldw	r18,8(sp)
 8004ad8:	dc400117 	ldw	r17,4(sp)
 8004adc:	dc000017 	ldw	r16,0(sp)
 8004ae0:	dec00504 	addi	sp,sp,20
 8004ae4:	f800283a 	ret
 8004ae8:	01400104 	movi	r5,4
 8004aec:	9809883a 	mov	r4,r19
 8004af0:	800498c0 	call	800498c <__sfmoreglue>
 8004af4:	90800015 	stw	r2,0(r18)
 8004af8:	103fde1e 	bne	r2,zero,8004a74 <__alt_data_end+0xf8004a74>
 8004afc:	00800304 	movi	r2,12
 8004b00:	98800015 	stw	r2,0(r19)
 8004b04:	0005883a 	mov	r2,zero
 8004b08:	003ff006 	br	8004acc <__alt_data_end+0xf8004acc>

08004b0c <_cleanup>:
 8004b0c:	008200b4 	movhi	r2,2050
 8004b10:	10ab9e04 	addi	r2,r2,-20872
 8004b14:	11000017 	ldw	r4,0(r2)
 8004b18:	01420074 	movhi	r5,2049
 8004b1c:	29655004 	addi	r5,r5,-27328
 8004b20:	80055281 	jmpi	8005528 <_fwalk_reent>

08004b24 <__sinit>:
 8004b24:	20800e17 	ldw	r2,56(r4)
 8004b28:	10000126 	beq	r2,zero,8004b30 <__sinit+0xc>
 8004b2c:	f800283a 	ret
 8004b30:	80047e81 	jmpi	80047e8 <__sinit.part.1>

08004b34 <__sfp_lock_acquire>:
 8004b34:	f800283a 	ret

08004b38 <__sfp_lock_release>:
 8004b38:	f800283a 	ret

08004b3c <__sinit_lock_acquire>:
 8004b3c:	f800283a 	ret

08004b40 <__sinit_lock_release>:
 8004b40:	f800283a 	ret

08004b44 <__fp_lock_all>:
 8004b44:	008200b4 	movhi	r2,2050
 8004b48:	10ab9f04 	addi	r2,r2,-20868
 8004b4c:	11000017 	ldw	r4,0(r2)
 8004b50:	01420034 	movhi	r5,2048
 8004b54:	29526104 	addi	r5,r5,18820
 8004b58:	80054641 	jmpi	8005464 <_fwalk>

08004b5c <__fp_unlock_all>:
 8004b5c:	008200b4 	movhi	r2,2050
 8004b60:	10ab9f04 	addi	r2,r2,-20868
 8004b64:	11000017 	ldw	r4,0(r2)
 8004b68:	01420034 	movhi	r5,2048
 8004b6c:	2951f504 	addi	r5,r5,18388
 8004b70:	80054641 	jmpi	8005464 <_fwalk>

08004b74 <_malloc_trim_r>:
 8004b74:	defffb04 	addi	sp,sp,-20
 8004b78:	dcc00315 	stw	r19,12(sp)
 8004b7c:	04c200b4 	movhi	r19,2050
 8004b80:	dc800215 	stw	r18,8(sp)
 8004b84:	dc400115 	stw	r17,4(sp)
 8004b88:	dc000015 	stw	r16,0(sp)
 8004b8c:	dfc00415 	stw	ra,16(sp)
 8004b90:	2821883a 	mov	r16,r5
 8004b94:	9ce60c04 	addi	r19,r19,-26576
 8004b98:	2025883a 	mov	r18,r4
 8004b9c:	800dcc80 	call	800dcc8 <__malloc_lock>
 8004ba0:	98800217 	ldw	r2,8(r19)
 8004ba4:	14400117 	ldw	r17,4(r2)
 8004ba8:	00bfff04 	movi	r2,-4
 8004bac:	88a2703a 	and	r17,r17,r2
 8004bb0:	8c21c83a 	sub	r16,r17,r16
 8004bb4:	8403fbc4 	addi	r16,r16,4079
 8004bb8:	8020d33a 	srli	r16,r16,12
 8004bbc:	0083ffc4 	movi	r2,4095
 8004bc0:	843fffc4 	addi	r16,r16,-1
 8004bc4:	8020933a 	slli	r16,r16,12
 8004bc8:	1400060e 	bge	r2,r16,8004be4 <_malloc_trim_r+0x70>
 8004bcc:	000b883a 	mov	r5,zero
 8004bd0:	9009883a 	mov	r4,r18
 8004bd4:	8007b140 	call	8007b14 <_sbrk_r>
 8004bd8:	98c00217 	ldw	r3,8(r19)
 8004bdc:	1c47883a 	add	r3,r3,r17
 8004be0:	10c00a26 	beq	r2,r3,8004c0c <_malloc_trim_r+0x98>
 8004be4:	9009883a 	mov	r4,r18
 8004be8:	800dde80 	call	800dde8 <__malloc_unlock>
 8004bec:	0005883a 	mov	r2,zero
 8004bf0:	dfc00417 	ldw	ra,16(sp)
 8004bf4:	dcc00317 	ldw	r19,12(sp)
 8004bf8:	dc800217 	ldw	r18,8(sp)
 8004bfc:	dc400117 	ldw	r17,4(sp)
 8004c00:	dc000017 	ldw	r16,0(sp)
 8004c04:	dec00504 	addi	sp,sp,20
 8004c08:	f800283a 	ret
 8004c0c:	040bc83a 	sub	r5,zero,r16
 8004c10:	9009883a 	mov	r4,r18
 8004c14:	8007b140 	call	8007b14 <_sbrk_r>
 8004c18:	00ffffc4 	movi	r3,-1
 8004c1c:	10c00d26 	beq	r2,r3,8004c54 <_malloc_trim_r+0xe0>
 8004c20:	00c200b4 	movhi	r3,2050
 8004c24:	18f2de04 	addi	r3,r3,-13448
 8004c28:	18800017 	ldw	r2,0(r3)
 8004c2c:	99000217 	ldw	r4,8(r19)
 8004c30:	8c23c83a 	sub	r17,r17,r16
 8004c34:	8c400054 	ori	r17,r17,1
 8004c38:	1421c83a 	sub	r16,r2,r16
 8004c3c:	24400115 	stw	r17,4(r4)
 8004c40:	9009883a 	mov	r4,r18
 8004c44:	1c000015 	stw	r16,0(r3)
 8004c48:	800dde80 	call	800dde8 <__malloc_unlock>
 8004c4c:	00800044 	movi	r2,1
 8004c50:	003fe706 	br	8004bf0 <__alt_data_end+0xf8004bf0>
 8004c54:	000b883a 	mov	r5,zero
 8004c58:	9009883a 	mov	r4,r18
 8004c5c:	8007b140 	call	8007b14 <_sbrk_r>
 8004c60:	99000217 	ldw	r4,8(r19)
 8004c64:	014003c4 	movi	r5,15
 8004c68:	1107c83a 	sub	r3,r2,r4
 8004c6c:	28ffdd0e 	bge	r5,r3,8004be4 <__alt_data_end+0xf8004be4>
 8004c70:	014200b4 	movhi	r5,2050
 8004c74:	296ba104 	addi	r5,r5,-20860
 8004c78:	29400017 	ldw	r5,0(r5)
 8004c7c:	18c00054 	ori	r3,r3,1
 8004c80:	20c00115 	stw	r3,4(r4)
 8004c84:	00c200b4 	movhi	r3,2050
 8004c88:	1145c83a 	sub	r2,r2,r5
 8004c8c:	18f2de04 	addi	r3,r3,-13448
 8004c90:	18800015 	stw	r2,0(r3)
 8004c94:	003fd306 	br	8004be4 <__alt_data_end+0xf8004be4>

08004c98 <_free_r>:
 8004c98:	28004126 	beq	r5,zero,8004da0 <_free_r+0x108>
 8004c9c:	defffd04 	addi	sp,sp,-12
 8004ca0:	dc400115 	stw	r17,4(sp)
 8004ca4:	dc000015 	stw	r16,0(sp)
 8004ca8:	2023883a 	mov	r17,r4
 8004cac:	2821883a 	mov	r16,r5
 8004cb0:	dfc00215 	stw	ra,8(sp)
 8004cb4:	800dcc80 	call	800dcc8 <__malloc_lock>
 8004cb8:	81ffff17 	ldw	r7,-4(r16)
 8004cbc:	00bfff84 	movi	r2,-2
 8004cc0:	010200b4 	movhi	r4,2050
 8004cc4:	81bffe04 	addi	r6,r16,-8
 8004cc8:	3884703a 	and	r2,r7,r2
 8004ccc:	21260c04 	addi	r4,r4,-26576
 8004cd0:	308b883a 	add	r5,r6,r2
 8004cd4:	2a400117 	ldw	r9,4(r5)
 8004cd8:	22000217 	ldw	r8,8(r4)
 8004cdc:	00ffff04 	movi	r3,-4
 8004ce0:	48c6703a 	and	r3,r9,r3
 8004ce4:	2a005726 	beq	r5,r8,8004e44 <_free_r+0x1ac>
 8004ce8:	28c00115 	stw	r3,4(r5)
 8004cec:	39c0004c 	andi	r7,r7,1
 8004cf0:	3800091e 	bne	r7,zero,8004d18 <_free_r+0x80>
 8004cf4:	823ffe17 	ldw	r8,-8(r16)
 8004cf8:	22400204 	addi	r9,r4,8
 8004cfc:	320dc83a 	sub	r6,r6,r8
 8004d00:	31c00217 	ldw	r7,8(r6)
 8004d04:	1205883a 	add	r2,r2,r8
 8004d08:	3a406526 	beq	r7,r9,8004ea0 <_free_r+0x208>
 8004d0c:	32000317 	ldw	r8,12(r6)
 8004d10:	3a000315 	stw	r8,12(r7)
 8004d14:	41c00215 	stw	r7,8(r8)
 8004d18:	28cf883a 	add	r7,r5,r3
 8004d1c:	39c00117 	ldw	r7,4(r7)
 8004d20:	39c0004c 	andi	r7,r7,1
 8004d24:	38003a26 	beq	r7,zero,8004e10 <_free_r+0x178>
 8004d28:	10c00054 	ori	r3,r2,1
 8004d2c:	30c00115 	stw	r3,4(r6)
 8004d30:	3087883a 	add	r3,r6,r2
 8004d34:	18800015 	stw	r2,0(r3)
 8004d38:	00c07fc4 	movi	r3,511
 8004d3c:	18801936 	bltu	r3,r2,8004da4 <_free_r+0x10c>
 8004d40:	1004d0fa 	srli	r2,r2,3
 8004d44:	01c00044 	movi	r7,1
 8004d48:	21400117 	ldw	r5,4(r4)
 8004d4c:	10c00044 	addi	r3,r2,1
 8004d50:	18c7883a 	add	r3,r3,r3
 8004d54:	1005d0ba 	srai	r2,r2,2
 8004d58:	18c7883a 	add	r3,r3,r3
 8004d5c:	18c7883a 	add	r3,r3,r3
 8004d60:	1907883a 	add	r3,r3,r4
 8004d64:	3884983a 	sll	r2,r7,r2
 8004d68:	19c00017 	ldw	r7,0(r3)
 8004d6c:	1a3ffe04 	addi	r8,r3,-8
 8004d70:	1144b03a 	or	r2,r2,r5
 8004d74:	32000315 	stw	r8,12(r6)
 8004d78:	31c00215 	stw	r7,8(r6)
 8004d7c:	20800115 	stw	r2,4(r4)
 8004d80:	19800015 	stw	r6,0(r3)
 8004d84:	39800315 	stw	r6,12(r7)
 8004d88:	8809883a 	mov	r4,r17
 8004d8c:	dfc00217 	ldw	ra,8(sp)
 8004d90:	dc400117 	ldw	r17,4(sp)
 8004d94:	dc000017 	ldw	r16,0(sp)
 8004d98:	dec00304 	addi	sp,sp,12
 8004d9c:	800dde81 	jmpi	800dde8 <__malloc_unlock>
 8004da0:	f800283a 	ret
 8004da4:	100ad27a 	srli	r5,r2,9
 8004da8:	00c00104 	movi	r3,4
 8004dac:	19404a36 	bltu	r3,r5,8004ed8 <_free_r+0x240>
 8004db0:	100ad1ba 	srli	r5,r2,6
 8004db4:	28c00e44 	addi	r3,r5,57
 8004db8:	18c7883a 	add	r3,r3,r3
 8004dbc:	29400e04 	addi	r5,r5,56
 8004dc0:	18c7883a 	add	r3,r3,r3
 8004dc4:	18c7883a 	add	r3,r3,r3
 8004dc8:	1909883a 	add	r4,r3,r4
 8004dcc:	20c00017 	ldw	r3,0(r4)
 8004dd0:	01c200b4 	movhi	r7,2050
 8004dd4:	213ffe04 	addi	r4,r4,-8
 8004dd8:	39e60c04 	addi	r7,r7,-26576
 8004ddc:	20c04426 	beq	r4,r3,8004ef0 <_free_r+0x258>
 8004de0:	01ffff04 	movi	r7,-4
 8004de4:	19400117 	ldw	r5,4(r3)
 8004de8:	29ca703a 	and	r5,r5,r7
 8004dec:	1140022e 	bgeu	r2,r5,8004df8 <_free_r+0x160>
 8004df0:	18c00217 	ldw	r3,8(r3)
 8004df4:	20fffb1e 	bne	r4,r3,8004de4 <__alt_data_end+0xf8004de4>
 8004df8:	19000317 	ldw	r4,12(r3)
 8004dfc:	31000315 	stw	r4,12(r6)
 8004e00:	30c00215 	stw	r3,8(r6)
 8004e04:	21800215 	stw	r6,8(r4)
 8004e08:	19800315 	stw	r6,12(r3)
 8004e0c:	003fde06 	br	8004d88 <__alt_data_end+0xf8004d88>
 8004e10:	29c00217 	ldw	r7,8(r5)
 8004e14:	10c5883a 	add	r2,r2,r3
 8004e18:	00c200b4 	movhi	r3,2050
 8004e1c:	18e60e04 	addi	r3,r3,-26568
 8004e20:	38c03b26 	beq	r7,r3,8004f10 <_free_r+0x278>
 8004e24:	2a000317 	ldw	r8,12(r5)
 8004e28:	11400054 	ori	r5,r2,1
 8004e2c:	3087883a 	add	r3,r6,r2
 8004e30:	3a000315 	stw	r8,12(r7)
 8004e34:	41c00215 	stw	r7,8(r8)
 8004e38:	31400115 	stw	r5,4(r6)
 8004e3c:	18800015 	stw	r2,0(r3)
 8004e40:	003fbd06 	br	8004d38 <__alt_data_end+0xf8004d38>
 8004e44:	39c0004c 	andi	r7,r7,1
 8004e48:	10c5883a 	add	r2,r2,r3
 8004e4c:	3800071e 	bne	r7,zero,8004e6c <_free_r+0x1d4>
 8004e50:	81fffe17 	ldw	r7,-8(r16)
 8004e54:	31cdc83a 	sub	r6,r6,r7
 8004e58:	30c00317 	ldw	r3,12(r6)
 8004e5c:	31400217 	ldw	r5,8(r6)
 8004e60:	11c5883a 	add	r2,r2,r7
 8004e64:	28c00315 	stw	r3,12(r5)
 8004e68:	19400215 	stw	r5,8(r3)
 8004e6c:	10c00054 	ori	r3,r2,1
 8004e70:	30c00115 	stw	r3,4(r6)
 8004e74:	00c200b4 	movhi	r3,2050
 8004e78:	18eba204 	addi	r3,r3,-20856
 8004e7c:	18c00017 	ldw	r3,0(r3)
 8004e80:	21800215 	stw	r6,8(r4)
 8004e84:	10ffc036 	bltu	r2,r3,8004d88 <__alt_data_end+0xf8004d88>
 8004e88:	008200b4 	movhi	r2,2050
 8004e8c:	10b2bc04 	addi	r2,r2,-13584
 8004e90:	11400017 	ldw	r5,0(r2)
 8004e94:	8809883a 	mov	r4,r17
 8004e98:	8004b740 	call	8004b74 <_malloc_trim_r>
 8004e9c:	003fba06 	br	8004d88 <__alt_data_end+0xf8004d88>
 8004ea0:	28c9883a 	add	r4,r5,r3
 8004ea4:	21000117 	ldw	r4,4(r4)
