
rtos_game.elf:     file format elf32-littlenios2
rtos_game.elf
architecture: nios2:r1, flags 0x00000112:
EXEC_P, HAS_SYMS, D_PAGED
start address 0x08000244

Program Header:
    LOAD off    0x00001000 vaddr 0x08000000 paddr 0x08000000 align 2**12
         filesz 0x00000020 memsz 0x00000020 flags r-x
    LOAD off    0x00001020 vaddr 0x08000020 paddr 0x08000020 align 2**12
         filesz 0x0001a548 memsz 0x0001a548 flags r-x
    LOAD off    0x0001b568 vaddr 0x0801a568 paddr 0x0801c33c align 2**12
         filesz 0x00001dd4 memsz 0x00001dd4 flags rw-
    LOAD off    0x0001e110 vaddr 0x0801e110 paddr 0x0801e110 align 2**12
         filesz 0x00000000 memsz 0x00009440 flags rw-

Sections:
Idx Name          Size      VMA       LMA       File off  Algn
  0 .entry        00000020  08000000  08000000  00001000  2**5
                  CONTENTS, ALLOC, LOAD, READONLY, CODE
  1 .exceptions   00000224  08000020  08000020  00001020  2**2
                  CONTENTS, ALLOC, LOAD, READONLY, CODE
  2 .text         00019e58  08000244  08000244  00001244  2**2
                  CONTENTS, ALLOC, LOAD, READONLY, CODE
  3 .rodata       000004cc  0801a09c  0801a09c  0001b09c  2**2
                  CONTENTS, ALLOC, LOAD, READONLY, DATA
  4 .rwdata       00001dd4  0801a568  0801c33c  0001b568  2**2
                  CONTENTS, ALLOC, LOAD, DATA, SMALL_DATA
  5 .bss          00009440  0801e110  0801e110  0001e110  2**2
                  ALLOC, SMALL_DATA
  6 .onchip_memory2_0 00000000  00200000  00200000  0001d33c  2**0
                  CONTENTS
  7 .sdram        00000000  08027550  08027550  0001d33c  2**0
                  CONTENTS
  8 .comment      00000023  00000000  00000000  0001d33c  2**0
                  CONTENTS, READONLY
  9 .debug_aranges 000010f8  00000000  00000000  0001d360  2**3
                  CONTENTS, READONLY, DEBUGGING
 10 .debug_info   0002ed93  00000000  00000000  0001e458  2**0
                  CONTENTS, READONLY, DEBUGGING
 11 .debug_abbrev 0000b452  00000000  00000000  0004d1eb  2**0
                  CONTENTS, READONLY, DEBUGGING
 12 .debug_line   0000e686  00000000  00000000  0005863d  2**0
                  CONTENTS, READONLY, DEBUGGING
 13 .debug_frame  000036e8  00000000  00000000  00066cc4  2**2
                  CONTENTS, READONLY, DEBUGGING
 14 .debug_str    00004f31  00000000  00000000  0006a3ac  2**0
                  CONTENTS, READONLY, DEBUGGING
 15 .debug_loc    00018cc1  00000000  00000000  0006f2dd  2**0
                  CONTENTS, READONLY, DEBUGGING
 16 .debug_alt_sim_info 00000030  00000000  00000000  00087fa0  2**2
                  CONTENTS, READONLY, DEBUGGING
 17 .debug_ranges 00001b58  00000000  00000000  00087fd0  2**3
                  CONTENTS, READONLY, DEBUGGING
 18 .thread_model 00000006  00000000  00000000  0008eede  2**0
                  CONTENTS, READONLY
 19 .cpu          0000000c  00000000  00000000  0008eee4  2**0
                  CONTENTS, READONLY
 20 .qsys         00000001  00000000  00000000  0008eef0  2**0
                  CONTENTS, READONLY
 21 .simulation_enabled 00000001  00000000  00000000  0008eef1  2**0
                  CONTENTS, READONLY
 22 .sysid_hash   00000004  00000000  00000000  0008eef2  2**0
                  CONTENTS, READONLY
 23 .sysid_base   00000004  00000000  00000000  0008eef6  2**0
                  CONTENTS, READONLY
 24 .sysid_time   00000004  00000000  00000000  0008eefa  2**0
                  CONTENTS, READONLY
 25 .stderr_dev   0000000b  00000000  00000000  0008eefe  2**0
                  CONTENTS, READONLY
 26 .stdin_dev    0000000b  00000000  00000000  0008ef09  2**0
                  CONTENTS, READONLY
 27 .stdout_dev   0000000b  00000000  00000000  0008ef14  2**0
                  CONTENTS, READONLY
 28 .sopc_system_name 0000000a  00000000  00000000  0008ef1f  2**0
                  CONTENTS, READONLY
 29 .quartus_project_dir 00000014  00000000  00000000  0008ef29  2**0
                  CONTENTS, READONLY
 30 .jdi          000048e1  00000000  00000000  0008ef3d  2**0
                  CONTENTS, READONLY
 31 .sopcinfo     0009522d  00000000  00000000  0009381e  2**0
                  CONTENTS, READONLY
SYMBOL TABLE:
08000000 l    d  .entry	00000000 .entry
08000020 l    d  .exceptions	00000000 .exceptions
08000244 l    d  .text	00000000 .text
0801a09c l    d  .rodata	00000000 .rodata
0801a568 l    d  .rwdata	00000000 .rwdata
0801e110 l    d  .bss	00000000 .bss
00200000 l    d  .onchip_memory2_0	00000000 .onchip_memory2_0
08027550 l    d  .sdram	00000000 .sdram
00000000 l    d  .comment	00000000 .comment
00000000 l    d  .debug_aranges	00000000 .debug_aranges
00000000 l    d  .debug_info	00000000 .debug_info
00000000 l    d  .debug_abbrev	00000000 .debug_abbrev
00000000 l    d  .debug_line	00000000 .debug_line
00000000 l    d  .debug_frame	00000000 .debug_frame
00000000 l    d  .debug_str	00000000 .debug_str
00000000 l    d  .debug_loc	00000000 .debug_loc
00000000 l    d  .debug_alt_sim_info	00000000 .debug_alt_sim_info
00000000 l    d  .debug_ranges	00000000 .debug_ranges
00000000 l    df *ABS*	00000000 ../rtos_game_bsp//obj/HAL/src/crt0.o
0800028c l       .text	00000000 alt_after_alt_main
00000000 l    df *ABS*	00000000 alt_irq_handler.c
00000000 l    df *ABS*	00000000 alt_instruction_exception_entry.c
00000000 l    df *ABS*	00000000 hello_ucosii.c
08000b40 l     F .text	000000f0 timer_init
00000000 l    df *ABS*	00000000 libgcc2.c
00000000 l    df *ABS*	00000000 gesf2.c
00000000 l    df *ABS*	00000000 mulsf3.c
00000000 l    df *ABS*	00000000 subsf3.c
00000000 l    df *ABS*	00000000 fixsfsi.c
00000000 l    df *ABS*	00000000 libgcc2.c
00000000 l    df *ABS*	00000000 libgcc2.c
00000000 l    df *ABS*	00000000 printf.c
00000000 l    df *ABS*	00000000 puts.c
00000000 l    df *ABS*	00000000 strlen.c
00000000 l    df *ABS*	00000000 vfprintf.c
0801a27e l     O .rodata	00000010 zeroes.4404
08003cd8 l     F .text	000000bc __sbprintf
0801a28e l     O .rodata	00000010 blanks.4403
00000000 l    df *ABS*	00000000 wsetup.c
00000000 l    df *ABS*	00000000 dtoa.c
08003ee8 l     F .text	00000200 quorem
00000000 l    df *ABS*	00000000 fflush.c
00000000 l    df *ABS*	00000000 findfp.c
08005a18 l     F .text	00000008 __fp_unlock
08005a2c l     F .text	0000019c __sinit.part.1
08005bc8 l     F .text	00000008 __fp_lock
00000000 l    df *ABS*	00000000 mallocr.c
00000000 l    df *ABS*	00000000 fvwrite.c
00000000 l    df *ABS*	00000000 fwalk.c
00000000 l    df *ABS*	00000000 impure.c
0801a770 l     O .rwdata	00000424 impure_data
00000000 l    df *ABS*	00000000 locale.c
0801abb4 l     O .rwdata	00000020 lc_ctype_charset
0801ab94 l     O .rwdata	00000020 lc_message_charset
0801abd4 l     O .rwdata	00000038 lconv
00000000 l    df *ABS*	00000000 makebuf.c
00000000 l    df *ABS*	00000000 mallocr.c
00000000 l    df *ABS*	00000000 memchr.c
00000000 l    df *ABS*	00000000 memcpy.c
00000000 l    df *ABS*	00000000 memmove.c
00000000 l    df *ABS*	00000000 memset.c
00000000 l    df *ABS*	00000000 mprec.c
0801a2c0 l     O .rodata	0000000c p05.2768
00000000 l    df *ABS*	00000000 mallocr.c
00000000 l    df *ABS*	00000000 s_fpclassify.c
00000000 l    df *ABS*	00000000 sbrkr.c
00000000 l    df *ABS*	00000000 stdio.c
00000000 l    df *ABS*	00000000 strcmp.c
00000000 l    df *ABS*	00000000 vfprintf.c
08008fc4 l     F .text	000000fc __sprint_r.part.0
0801a3f4 l     O .rodata	00000010 blanks.4348
0801a3e4 l     O .rodata	00000010 zeroes.4349
0800a550 l     F .text	000000bc __sbprintf
00000000 l    df *ABS*	00000000 writer.c
00000000 l    df *ABS*	00000000 closer.c
00000000 l    df *ABS*	00000000 mallocr.c
00000000 l    df *ABS*	00000000 fclose.c
00000000 l    df *ABS*	00000000 fputwc.c
00000000 l    df *ABS*	00000000 fstatr.c
00000000 l    df *ABS*	00000000 int_errno.c
00000000 l    df *ABS*	00000000 isattyr.c
00000000 l    df *ABS*	00000000 lseekr.c
00000000 l    df *ABS*	00000000 readr.c
00000000 l    df *ABS*	00000000 wbuf.c
00000000 l    df *ABS*	00000000 wcrtomb.c
00000000 l    df *ABS*	00000000 wctomb_r.c
00000000 l    df *ABS*	00000000 libgcc2.c
00000000 l    df *ABS*	00000000 libgcc2.c
00000000 l    df *ABS*	00000000 lib2-divmod.c
00000000 l    df *ABS*	00000000 adddf3.c
00000000 l    df *ABS*	00000000 divdf3.c
00000000 l    df *ABS*	00000000 eqdf2.c
00000000 l    df *ABS*	00000000 gedf2.c
00000000 l    df *ABS*	00000000 ledf2.c
00000000 l    df *ABS*	00000000 muldf3.c
00000000 l    df *ABS*	00000000 subdf3.c
00000000 l    df *ABS*	00000000 fixdfsi.c
00000000 l    df *ABS*	00000000 floatsidf.c
00000000 l    df *ABS*	00000000 floatunsidf.c
00000000 l    df *ABS*	00000000 alt_close.c
0800e1a8 l     F .text	0000003c alt_get_errno
00000000 l    df *ABS*	00000000 alt_dev.c
0800e2b4 l     F .text	0000002c alt_dev_null_write
00000000 l    df *ABS*	00000000 alt_errno.c
00000000 l    df *ABS*	00000000 alt_fstat.c
0800e2e0 l     F .text	0000003c alt_get_errno
00000000 l    df *ABS*	00000000 alt_iic.c
00000000 l    df *ABS*	00000000 alt_iic_isr_register.c
00000000 l    df *ABS*	00000000 alt_irq_vars.c
00000000 l    df *ABS*	00000000 alt_isatty.c
0800e66c l     F .text	0000003c alt_get_errno
00000000 l    df *ABS*	00000000 alt_load.c
0800e74c l     F .text	00000068 alt_load_section
00000000 l    df *ABS*	00000000 alt_lseek.c
0800e838 l     F .text	0000003c alt_get_errno
00000000 l    df *ABS*	00000000 alt_main.c
00000000 l    df *ABS*	00000000 alt_read.c
0800ea04 l     F .text	0000003c alt_get_errno
00000000 l    df *ABS*	00000000 alt_release_fd.c
00000000 l    df *ABS*	00000000 alt_sbrk.c
0801c2b4 l     O .rwdata	00000004 heap_end
00000000 l    df *ABS*	00000000 alt_write.c
0800ec50 l     F .text	0000003c alt_get_errno
00000000 l    df *ABS*	00000000 alt_env_lock.c
0801c2b8 l     O .rwdata	00000004 lockid
0801e184 l     O .bss	00000004 locks
00000000 l    df *ABS*	00000000 alt_malloc_lock.c
0801c2bc l     O .rwdata	00000004 lockid
0801e18c l     O .bss	00000004 locks
00000000 l    df *ABS*	00000000 os_core.c
08010680 l     F .text	00000048 OS_InitMisc
080106c8 l     F .text	0000006c OS_InitRdyList
08010834 l     F .text	000000e4 OS_InitTCBList
080105a0 l     F .text	000000e0 OS_InitEventList
08010734 l     F .text	00000080 OS_InitTaskIdle
080107b4 l     F .text	00000080 OS_InitTaskStat
08010aa4 l     F .text	00000074 OS_SchedNew
00000000 l    df *ABS*	00000000 os_dbg.c
00000000 l    df *ABS*	00000000 os_flag.c
080127b4 l     F .text	000000f4 OS_FlagTaskRdy
08012574 l     F .text	00000160 OS_FlagBlock
00000000 l    df *ABS*	00000000 os_mem.c
00000000 l    df *ABS*	00000000 os_mutex.c
08014028 l     F .text	00000190 OSMutex_RdyAtPrio
00000000 l    df *ABS*	00000000 os_q.c
00000000 l    df *ABS*	00000000 os_sem.c
00000000 l    df *ABS*	00000000 os_task.c
00000000 l    df *ABS*	00000000 os_time.c
00000000 l    df *ABS*	00000000 alt_sys_init.c
08017970 l     F .text	00000034 alt_dev_reg
0801b1bc l     O .rwdata	0000106c jtag_uart_0
0801c228 l     O .rwdata	0000002c lcd
00000000 l    df *ABS*	00000000 altera_avalon_jtag_uart_fd.c
00000000 l    df *ABS*	00000000 altera_avalon_jtag_uart_init.c
08017d04 l     F .text	000002a4 altera_avalon_jtag_uart_irq
08017fa8 l     F .text	00000104 altera_avalon_jtag_uart_timeout
00000000 l    df *ABS*	00000000 altera_avalon_jtag_uart_ioctl.c
00000000 l    df *ABS*	00000000 altera_avalon_jtag_uart_read.c
00000000 l    df *ABS*	00000000 altera_avalon_jtag_uart_write.c
00000000 l    df *ABS*	00000000 altera_avalon_timer_sc.c
08018784 l     F .text	00000078 alt_avalon_timer_sc_irq
00000000 l    df *ABS*	00000000 altera_up_avalon_character_lcd.c
00000000 l    df *ABS*	00000000 alt_alarm_start.c
00000000 l    df *ABS*	00000000 alt_dcache_flush_all.c
00000000 l    df *ABS*	00000000 alt_dev_llist_insert.c
08018ee0 l     F .text	0000003c alt_get_errno
00000000 l    df *ABS*	00000000 alt_do_ctors.c
00000000 l    df *ABS*	00000000 alt_do_dtors.c
00000000 l    df *ABS*	00000000 alt_find_dev.c
00000000 l    df *ABS*	00000000 alt_icache_flush_all.c
00000000 l    df *ABS*	00000000 alt_io_redirect.c
080191e0 l     F .text	000000c4 alt_open_fd
00000000 l    df *ABS*	00000000 alt_open.c
08019320 l     F .text	0000003c alt_get_errno
0801935c l     F .text	000000c4 alt_file_locked
00000000 l    df *ABS*	00000000 alt_tick.c
00000000 l    df *ABS*	00000000 altera_nios2_gen2_irq.c
00000000 l    df *ABS*	00000000 os_cpu_a.o
00000040 l       *ABS*	00000000 OSCtxSw_SWITCH_PC
00000000 l    df *ABS*	00000000 os_cpu_c.c
00000014 l       *ABS*	00000000 OSTCBNext_OFFSET
00000032 l       *ABS*	00000000 OSTCBPrio_OFFSET
00000000 l       *ABS*	00000000 OSTCBStkPtr_OFFSET
00000000 l    df *ABS*	00000000 alt_find_file.c
00000000 l    df *ABS*	00000000 alt_get_fd.c
00000000 l    df *ABS*	00000000 alt_icache_flush.c
00000000 l    df *ABS*	00000000 atexit.c
00000000 l    df *ABS*	00000000 exit.c
00000000 l    df *ABS*	00000000 memcmp.c
00000000 l    df *ABS*	00000000 __atexit.c
00000000 l    df *ABS*	00000000 __call_atexit.c
00000000 l    df *ABS*	00000000 alt_exit.c
0801e1e4 g     O .bss	00000004 alt_instruction_exception_handler
08008608 g     F .text	00000074 _mprec_log10
0801c30a g     O .rwdata	00000002 OSTaskNameSize
080086f4 g     F .text	0000008c __any_on
0800aaec g     F .text	00000054 _isatty_r
0801a2cc g     O .rodata	00000028 __mprec_tinytens
0800e948 g     F .text	000000bc alt_main
08001958 g     F .text	000000c0 _puts_r
0801e134 g     O .bss	00000004 t
0802422c g     O .bss	00000100 alt_irq
0800ab40 g     F .text	00000060 _lseek_r
08012fd4 g     F .text	000000cc OS_MemInit
0801c33c g       *ABS*	00000000 __flash_rwdata_start
08017910 g     F .text	00000060 OSTimeSet
080188ec g     F .text	00000040 alt_up_character_lcd_send_cmd
0800cd38 g     F .text	00000088 .hidden __eqdf2
0800f2f4 g     F .text	00000610 OSEventPendMulti
08027550 g       *ABS*	00000000 __alt_heap_start
08019968 g     F .text	00000024 OSTaskCreateHook
0801e22c g     O .bss	00002000 task1_stk
0800191c g     F .text	0000003c printf
0801c2e2 g     O .rwdata	00000002 OSMboxEn
0800f95c g     F .text	0000004c OSIntEnter
0800ad58 g     F .text	0000009c _wcrtomb_r
0801c260 g     O .rwdata	00000004 clock_period_l
08008e84 g     F .text	0000005c __sseek
08005d68 g     F .text	00000010 __sinit
0800ac00 g     F .text	00000140 __swbuf_r
0801c2f2 g     O .rwdata	00000002 OSQEn
08006830 g     F .text	0000007c _setlocale_r
08005bd0 g     F .text	00000068 __sfmoreglue
0801a5a8 g     O .rwdata	00000018 Pattern2
0800efc8 g     F .text	000000cc __malloc_unlock
0801c274 g     O .rwdata	00000001 character
080199d0 g     F .text	00000020 OSTaskStatHook
0801e194 g     O .bss	00000001 OSLockNesting
0801c330 g     O .rwdata	00000002 OSDataSize
0801e195 g     O .bss	00000001 OSRunning
0801e138 g     O .bss	00000004 time_capture
08007500 g     F .text	0000015c memmove
08019a10 g     F .text	00000020 OSInitHookBegin
0801c328 g     O .rwdata	00000002 OSTmrSize
08005d50 g     F .text	00000018 _cleanup
08007784 g     F .text	000000a8 _Balloc
08001818 g     F .text	00000070 .hidden __fixsfsi
0801e198 g     O .bss	00000004 OSIdleCtr
0800cdc0 g     F .text	000000dc .hidden __gtdf2
08019718 g     F .text	00000024 altera_nios2_gen2_irq_init
080197e8 g       .text	00000000 OSStartTsk
08018878 g     F .text	00000074 get_DDRAM_addr
08010dd4 g     F .text	000002d4 OS_TCBInit
08000000 g     F .entry	0000001c __reset
0801e13c g     O .bss	00000004 edge_capture
0801c258 g     O .rwdata	00000006 text_hello
0801c32e g     O .rwdata	00000002 OSTmrWheelTblSize
08000020 g       *ABS*	00000000 __flash_exceptions_start
0801c2ce g     O .rwdata	00000002 OSEventSize
0801e19c g     O .bss	00000001 OSPrioHighRdy
0800aa90 g     F .text	0000005c _fstat_r
0801998c g     F .text	00000024 OSTaskDelHook
0801e16c g     O .bss	00000004 errno
08008e00 g     F .text	00000008 __seofread
080197c8 g       .text	00000000 OSStartHighRdy
080163b8 g     F .text	000001e4 OSTaskCreateExt
08000644 g     F .text	0000006c pio_init
080120bc g     F .text	00000060 OSFlagPendGetFlagsRdy
0801c30e g     O .rwdata	00000002 OSTaskStatStkSize
08011238 g     F .text	00000308 OSFlagAccept
08014724 g     F .text	000000b8 OSQFlush
080141b8 g     F .text	00000140 OSQAccept
0801e17c g     O .bss	00000004 alt_argv
08024254 g       *ABS*	00000000 _gp
0801c27c g     O .rwdata	00000001 bullet
08001334 g     F .text	000004e4 .hidden __subsf3
0801620c g     F .text	000001ac OSTaskCreate
08015d1c g     F .text	000004f0 OSTaskChangePrio
0801e190 g     O .bss	00000004 alt_heapsem
080110a8 g     F .text	00000190 OSDebugInit
0801659c g     F .text	00000344 OSTaskDel
080130a0 g     F .text	000001a4 OSMutexAccept
0801b03c g     O .rwdata	00000180 alt_fd_list
0802432c g     O .bss	00000370 OSFlagTbl
08010380 g     F .text	000000b8 OS_EventTaskRemove
0801e128 g     O .bss	00000004 flag_timer
08019080 g     F .text	00000090 alt_find_dev
080073b8 g     F .text	00000148 memcpy
0801c2f8 g     O .rwdata	00000002 OSRdyTblSize
08018a94 g     F .text	00000050 alt_up_character_lcd_write_fd
08005a20 g     F .text	0000000c _cleanup_r
0800e024 g     F .text	000000dc .hidden __floatsidf
08000330 g     F .text	000000d4 moveBullet
080192a4 g     F .text	0000007c alt_io_redirect
0800ce9c g     F .text	000000f4 .hidden __ltdf2
0801a09c g       *ABS*	00000000 __DTOR_END__
0801a750 g     O .rwdata	00000020 tombstone
08001a18 g     F .text	00000014 puts
08019144 g     F .text	0000009c alt_exception_cause_generated_bad_addr
0800f094 g     F .text	00000120 OSEventNameGet
0801c2dc g     O .rwdata	00000002 OSFlagMax
08008ce4 g     F .text	00000074 __fpclassifyd
08013708 g     F .text	0000059c OSMutexPend
08008564 g     F .text	000000a4 __ratio
0800f9a8 g     F .text	000000f8 OSIntExit
0800a534 g     F .text	0000001c __vfiprintf_internal
0801c316 g     O .rwdata	00000002 OSTCBSize
0801e19d g     O .bss	00000001 OSPrioCur
08018204 g     F .text	000002bc altera_avalon_jtag_uart_read
080018ec g     F .text	00000030 _printf_r
00200000 g       *ABS*	00000000 __alt_mem_onchip_memory2_0
0800bae8 g     F .text	00000064 .hidden __udivsi3
0800e6a8 g     F .text	000000a4 isatty
0801c2fc g     O .rwdata	00000002 OSStkWidth
0801a31c g     O .rodata	000000c8 __mprec_tens
0801c2f0 g     O .rwdata	00000002 OSPtrSize
080068ac g     F .text	0000000c __locale_charset
0801c2d0 g     O .rwdata	00000002 OSEventTblSize
0801973c g       .text	00000000 OSCtxSw
08019c78 g     F .text	00000090 alt_icache_flush
0801e168 g     O .bss	00000004 __malloc_top_pad
0801e124 g     O .bss	00000004 flag
0801e1a0 g     O .bss	00000004 OSTCBList
0801e1f0 g     O .bss	00000014 customPattern
0801e170 g     O .bss	00000004 alt_fd_list_lock
0801c288 g     O .rwdata	00000004 __mb_cur_max
080068dc g     F .text	0000000c _localeconv_r
0801c278 g     O .rwdata	00000004 bulletPosition
08007b90 g     F .text	0000003c __i2b
080061ec g     F .text	000004bc __sfvwrite_r
0802469c g     O .bss	00000c30 OSMemTbl
0801e1a4 g     O .bss	00000001 OSTickStepState
08008d58 g     F .text	00000054 _sbrk_r
0801c2f4 g     O .rwdata	00000002 OSQMax
0801340c g     F .text	000002fc OSMutexDel
080252cc g     O .bss	00000800 OSTaskStatStk
08012c10 g     F .text	000000f0 OSMemNameGet
0801c2d4 g     O .rwdata	00000002 OSFlagEn
0800aba0 g     F .text	00000060 _read_r
0801c31a g     O .rwdata	00000002 OSTimeTickHookEn
08014bd4 g     F .text	00000168 OSQPost
080128a8 g     F .text	000000a4 OS_FlagUnlink
0801c2a8 g     O .rwdata	00000004 alt_max_fd
0801096c g     F .text	00000068 OS_MemCopy
080109d4 g     F .text	000000d0 OS_Sched
0800a784 g     F .text	000000f0 _fclose_r
08012b20 g     F .text	000000f0 OSMemGet
08016bc8 g     F .text	000001b4 OSTaskNameSet
080059e8 g     F .text	00000030 fflush
0801e164 g     O .bss	00000004 __malloc_max_sbrked_mem
0801e1a8 g     O .bss	00000004 OSCtxSwCtr
080199f0 g     F .text	00000020 OSTimeTickHook
0801c2de g     O .rwdata	00000002 OSFlagNameSize
08010438 g     F .text	00000100 OS_EventTaskRemoveMulti
0800bba4 g     F .text	000008ac .hidden __adddf3
0801c268 g     O .rwdata	00000004 second
08010230 g     F .text	00000150 OS_EventTaskWaitMulti
0800830c g     F .text	0000010c __b2d
0801c2f6 g     O .rwdata	00000002 OSQSize
0800b4b8 g     F .text	00000538 .hidden __umoddi3
0800e874 g     F .text	000000d4 lseek
0801a690 g     O .rwdata	00000020 customChar
08015684 g     F .text	0000020c OSSemPend
0801c280 g     O .rwdata	00000004 _global_impure_ptr
08008780 g     F .text	00000564 _realloc_r
0801c2e0 g     O .rwdata	00000002 OSLowestPrio
08027550 g       *ABS*	00000000 __bss_end
0800e57c g     F .text	000000f0 alt_iic_isr_register
08019a70 g     F .text	00000024 OSTCBInitHook
0801c326 g     O .rwdata	00000002 OSTmrCfgTicksPerSec
08019610 g     F .text	00000108 alt_tick
0800af40 g     F .text	00000578 .hidden __udivdi3
0800a9ec g     F .text	00000024 _fputwc_r
0801c2c8 g     O .rwdata	00000002 OSEventEn
0801a2f4 g     O .rodata	00000028 __mprec_bigtens
08007974 g     F .text	00000104 __s2b
0801c322 g     O .rwdata	00000002 OSTmrCfgNameSize
0800e100 g     F .text	000000a8 .hidden __floatunsidf
0800804c g     F .text	00000060 __mcmp
0802022c g     O .bss	00002000 bulletTsk_stk
0801a6b0 g     O .rwdata	00000020 player_still
08005d88 g     F .text	00000018 __fp_lock_all
0800e530 g     F .text	0000004c alt_ic_irq_enabled
080126d4 g     F .text	000000e0 OS_FlagInit
08019574 g     F .text	0000009c alt_alarm_stop
0801c304 g     O .rwdata	00000002 OSTaskIdleStkSize
0801e174 g     O .bss	00000004 alt_irq_active
080152bc g     F .text	000000b0 OSSemAccept
08012e14 g     F .text	000000d8 OSMemPut
0801294c g     F .text	000001d4 OSMemCreate
0801e1ac g     O .bss	00000004 OSIdleCtrMax
080000fc g     F .exceptions	000000d4 alt_irq_handler
0801b014 g     O .rwdata	00000028 alt_dev_null
0801c318 g     O .rwdata	00000002 OSTicksPerSec
08018d34 g     F .text	00000038 alt_up_character_lcd_cursor_blink_on
0801973c g       .text	00000000 OSIntCtxSw
08018e98 g     F .text	00000048 alt_dcache_flush_all
08007a78 g     F .text	00000068 __hi0bits
0800dfa4 g     F .text	00000080 .hidden __fixdfsi
0801e1b0 g     O .bss	00000004 OSTCBFreeList
0801c33c g       *ABS*	00000000 __ram_rwdata_end
08015890 g     F .text	0000016c OSSemPendAbort
0801c2a0 g     O .rwdata	00000008 alt_dev_list
0801e12c g     O .bss	00000004 bulletActive
0800ec8c g     F .text	000000f8 write
0801c31c g     O .rwdata	00000002 OSVersionNbr
08000e7c g     F .text	000000bc .hidden __gtsf2
0801a568 g       *ABS*	00000000 __ram_rodata_end
0800e31c g     F .text	000000b0 fstat
0800ce9c g     F .text	000000f4 .hidden __ledf2
0801c2c4 g     O .rwdata	00000004 OSEndiannessTest
08007dc4 g     F .text	00000140 __pow5mult
080090d8 g     F .text	0000145c ___vfiprintf_internal_r
0801e15c g     O .bss	00000004 __nlocale_changed
0800bb4c g     F .text	00000058 .hidden __umodsi3
0801a6d0 g     O .rwdata	00000020 player_walk
0801c2d6 g     O .rwdata	00000002 OSFlagGrpSize
08027550 g       *ABS*	00000000 end
08017bbc g     F .text	00000148 altera_avalon_jtag_uart_init
08010c3c g     F .text	000000cc OS_TaskStat
080001d0 g     F .exceptions	00000074 alt_instruction_exception_entry
0801a09c g       *ABS*	00000000 __CTOR_LIST__
10000000 g       *ABS*	00000000 __alt_stack_pointer
080187fc g     F .text	0000007c alt_avalon_timer_sc_init
08001888 g     F .text	00000064 .hidden __clzsi2
080184c0 g     F .text	000002c4 altera_avalon_jtag_uart_write
08005d78 g     F .text	00000004 __sfp_lock_acquire
080072d4 g     F .text	000000e4 memchr
08010918 g     F .text	00000054 OS_MemClr
080189a0 g     F .text	0000007c alt_up_character_lcd_write
08001ac4 g     F .text	000021f8 ___vfprintf_internal_r
0801980c g     F .text	0000015c OSTaskStkInit
0800050c g     F .text	0000009c task1
08005edc g     F .text	00000310 _free_r
080068b8 g     F .text	00000010 __locale_mb_cur_max
0800ff88 g     F .text	00000198 OS_EventTaskRdy
0801a568 g     O .rwdata	00000040 HEX_DISPLAY
08019ee8 g     F .text	00000180 __call_exitprocs
0801e1b4 g     O .bss	00000001 OSCPUUsage
0801e110 g     O .bss	00000004 out_LED
0801e158 g     O .bss	00000004 __mlocale_changed
0801c28c g     O .rwdata	00000004 __malloc_sbrk_base
08000244 g     F .text	0000004c _start
080005a8 g     F .text	0000009c task2
0801e1e8 g     O .bss	00000004 _alt_tick_rate
080147dc g     F .text	0000028c OSQPend
08017488 g     F .text	00000104 OSTimeDly
08007f04 g     F .text	00000148 __lshift
0801e1ec g     O .bss	00000004 _alt_nticks
080007f8 g     F .text	0000004c key3_isr
0800ea40 g     F .text	000000fc read
080179dc g     F .text	0000007c alt_sys_init
08018be4 g     F .text	0000008c alt_up_character_lcd_shift_display
08019dd0 g     F .text	00000118 __register_exitproc
0801e1b5 g     O .bss	00000001 OSTaskCtr
0801758c g     F .text	00000154 OSTimeDlyHMSM
08007bcc g     F .text	000001f8 __multiply
08018c70 g     F .text	0000008c alt_up_character_lcd_erase_pos
0801e140 g     O .bss	00000004 clock_period
080180ac g     F .text	00000068 altera_avalon_jtag_uart_close
0801a568 g       *ABS*	00000000 __ram_rwdata_start
0801a09c g       *ABS*	00000000 __ram_rodata_start
0801e204 g     O .bss	00000028 __malloc_current_mallinfo
0801c2ca g     O .rwdata	00000002 OSEventMax
0801e144 g     O .bss	00000004 push_val
08008418 g     F .text	0000014c __d2b
080159fc g     F .text	00000110 OSSemPost
0800fb2c g     F .text	000000dc OSSchedUnlock
08017a58 g     F .text	00000060 altera_avalon_jtag_uart_read_fd
08019b9c g     F .text	000000dc alt_get_fd
0801e1b8 g     O .bss	00000004 OSMemFreeList
0800fc78 g     F .text	000000b0 OSStatInit
080006b0 g     F .text	000000b4 handle_key_interrupts
080124b0 g     F .text	000000c4 OSFlagQuery
0801c300 g     O .rwdata	00000002 OSTaskCreateExtEn
0800a66c g     F .text	00000054 _close_r
0801c270 g     O .rwdata	00000004 pattern3
08000404 g     F .text	00000108 movePlayer
08019d54 g     F .text	0000007c memcmp
0800ff68 g     F .text	00000020 OS_Dummy
08017b18 g     F .text	00000050 altera_avalon_jtag_uart_close_fd
08027550 g       *ABS*	00000000 __alt_stack_base
08017b68 g     F .text	00000054 altera_avalon_jtag_uart_ioctl_fd
08003d94 g     F .text	00000154 __swsetup_r
08025acc g     O .bss	000001e0 OSQTbl
0800c450 g     F .text	000008e8 .hidden __divdf3
08005c38 g     F .text	00000118 __sfp
0800867c g     F .text	00000078 __copybits
0801ac0c g     O .rwdata	00000408 __malloc_av_
0801e130 g     O .bss	00000004 playerPosition
08005d84 g     F .text	00000004 __sinit_lock_release
0801e148 g     O .bss	00000004 ledMutex
0801e1bc g     O .bss	00000004 OSTCBHighRdy
0800cf90 g     F .text	00000718 .hidden __muldf3
08008dac g     F .text	00000054 __sread
0801e1c0 g     O .bss	00000004 OSQFreeList
08019a94 g     F .text	00000108 alt_find_file
08018f1c g     F .text	000000a4 alt_dev_llist_insert
0800eea8 g     F .text	00000120 __malloc_lock
0800eba0 g     F .text	000000b0 sbrk
0800f1b4 g     F .text	00000140 OSEventNameSet
0800598c g     F .text	0000005c _fflush_r
0800a6c0 g     F .text	000000c4 _calloc_r
0801e1c4 g     O .bss	00000001 OSRdyGrp
0801e14c g     O .bss	00000001 jtag_capture
0801e110 g       *ABS*	00000000 __bss_start
0800765c g     F .text	00000128 memset
08000844 g     F .text	00000268 main
0801e180 g     O .bss	00000004 alt_envp
0801e160 g     O .bss	00000004 __malloc_max_total_mem
08017ab8 g     F .text	00000060 altera_avalon_jtag_uart_write_fd
0800ad40 g     F .text	00000018 __swbuf
0801a5c0 g     O .rwdata	000000d0 sevseg_list
0801a424 g     O .rodata	00000100 OSUnMapTbl
0801c2fa g     O .rwdata	00000002 OSSemEn
08018b58 g     F .text	0000008c alt_up_character_lcd_shift_cursor
0801211c g     F .text	00000394 OSFlagPost
08008ee0 g     F .text	00000008 __sclose
08000764 g     F .text	00000048 key1_isr
10000000 g       *ABS*	00000000 __alt_heap_limit
0801a6f0 g     O .rwdata	00000020 zombie_still
0800a874 g     F .text	00000014 fclose
08010120 g     F .text	00000110 OS_EventTaskWait
0802222c g     O .bss	00002000 task2_stk
08010d08 g     F .text	000000cc OS_TaskStatStkChk
080168e0 g     F .text	00000150 OSTaskDelReq
080040e8 g     F .text	00001688 _dtoa_r
08006ac8 g     F .text	0000080c _malloc_r
0800aeb4 g     F .text	00000030 __ascii_wctomb
08013244 g     F .text	000001c8 OSMutexCreate
0801c2ac g     O .rwdata	00000004 alt_errno
0800fc08 g     F .text	00000070 OSStart
0800ee48 g     F .text	00000060 __env_unlock
080066a8 g     F .text	000000c4 _fwalk
08016d7c g     F .text	000001d4 OSTaskResume
08012eec g     F .text	000000e8 OSMemQuery
0801c30c g     O .rwdata	00000002 OSTaskStatEn
0801c2e6 g     O .rwdata	00000002 OSMemMax
08014d3c g     F .text	00000170 OSQPostFront
080007ac g     F .text	0000004c key2_isr
0800b9f0 g     F .text	00000084 .hidden __divsi3
0801e1c5 g     O .bss	00000003 OSRdyTbl
0801c2c0 g     O .rwdata	00000002 OSDebugEn
08018964 g     F .text	0000003c alt_up_character_lcd_open_dev
08005db8 g     F .text	00000124 _malloc_trim_r
0801c254 g     O .rwdata	00000004 mask_LED
0801a09c g       *ABS*	00000000 __CTOR_END__
08000f38 g     F .text	000003fc .hidden __mulsf3
0801c2d8 g     O .rwdata	00000002 OSFlagNodeSize
0801c26c g     O .rwdata	00000004 Pattern1
0801c320 g     O .rwdata	00000002 OSTmrCfgMax
0801892c g     F .text	00000038 alt_up_character_lcd_init
08008ee8 g     F .text	000000dc strcmp
080142f8 g     F .text	000001ac OSQCreate
08016a30 g     F .text	00000198 OSTaskNameGet
0801a09c g       *ABS*	00000000 __flash_rodata_start
08014eac g     F .text	0000020c OSQPostOpt
0800fd28 g     F .text	00000220 OSTimeTick
0801c308 g     O .rwdata	00000002 OSTaskMax
0801a09c g       *ABS*	00000000 __DTOR_LIST__
0801536c g     F .text	000000d8 OSSemCreate
0801c32c g     O .rwdata	00000002 OSTmrWheelSize
08013ebc g     F .text	0000016c OSMutexQuery
0800cd38 g     F .text	00000088 .hidden __nedf2
0801c302 g     O .rwdata	00000002 OSTaskDelEn
0801a710 g     O .rwdata	00000020 zombie_walk
08015b0c g     F .text	00000110 OSSemQuery
080144a4 g     F .text	00000280 OSQDel
08014a68 g     F .text	0000016c OSQPendAbort
080179a4 g     F .text	00000038 alt_irq_init
0800eb3c g     F .text	00000064 alt_release_fd
08018cfc g     F .text	00000038 alt_up_character_lcd_cursor_off
0801a136 g     O .rodata	00000100 .hidden __clz_tab
0801e154 g     O .bss	00000004 _PathLocale
08019d08 g     F .text	00000014 atexit
08000e7c g     F .text	000000bc .hidden __gesf2
0800a60c g     F .text	00000060 _write_r
0800faa0 g     F .text	0000008c OSSchedLock
080068e8 g     F .text	00000018 setlocale
08011540 g     F .text	00000108 OSFlagCreate
0801c284 g     O .rwdata	00000004 _impure_ptr
0801e178 g     O .bss	00000004 alt_argc
08005770 g     F .text	0000021c __sflush_r
08019020 g     F .text	00000060 _do_dtors
080068d4 g     F .text	00000008 __locale_cjk_lang
0801c2d2 g     O .rwdata	00000002 OSEventMultiEn
08011648 g     F .text	00000248 OSFlagDel
0801e1c8 g     O .bss	00000004 OSEventFreeList
08000020 g       .exceptions	00000000 alt_irq_entry
080082a8 g     F .text	00000064 __ulp
08011b04 g     F .text	000005b8 OSFlagPend
0801c31e g     O .rwdata	00000002 OSTmrEn
08005da0 g     F .text	00000018 __fp_unlock_all
08000c30 g     F .text	000000dc display_init
0801c298 g     O .rwdata	00000008 alt_fs_list
0801e118 g     O .bss	00000004 offset
08010b18 g     F .text	00000074 OS_StrCopy
0801c2e8 g     O .rwdata	00000002 OSMemNameSize
08019a30 g     F .text	00000020 OSInitHookEnd
08000020 g       *ABS*	00000000 __ram_exceptions_start
0801c314 g     O .rwdata	00000002 OSTCBPrioTblMax
08006900 g     F .text	0000000c localeconv
0801c310 g     O .rwdata	00000002 OSTaskStatStkChkEn
0800e3cc g     F .text	00000050 alt_ic_isr_register
0801c2e4 g     O .rwdata	00000002 OSMemEn
0801c2ee g     O .rwdata	00000002 OSMutexEn
0801c33c g       *ABS*	00000000 _edata
08027550 g       *ABS*	00000000 _end
0801e1cc g     O .bss	00000001 OSIntNesting
0801c264 g     O .rwdata	00000004 clock_period_h
0800a888 g     F .text	00000164 __fputwc
08000244 g       *ABS*	00000000 __ram_exceptions_end
08000290 g     F .text	000000a0 shootBullet
08018114 g     F .text	000000f0 altera_avalon_jtag_uart_ioctl
080176e0 g     F .text	000001d4 OSTimeDlyResume
080119b8 g     F .text	0000014c OSFlagNameSet
08016f50 g     F .text	000001c0 OSTaskStkChk
0800e4a4 g     F .text	0000008c alt_ic_irq_disable
0801c2ea g     O .rwdata	00000002 OSMemSize
08008e08 g     F .text	0000007c __swrite
0801c290 g     O .rwdata	00000004 __malloc_trim_threshold
0801e11c g     O .bss	00000004 time_sec
080068c8 g     F .text	0000000c __locale_msgcharset
0801e1d0 g     O .bss	00000004 OSTCBCur
08019d1c g     F .text	00000038 exit
08013ca4 g     F .text	00000218 OSMutexPost
0801c2ec g     O .rwdata	00000002 OSMemTblSize
0800676c g     F .text	000000c4 _fwalk_reent
080080ac g     F .text	000001fc __mdiff
0800ba74 g     F .text	00000074 .hidden __modsi3
0801a730 g     O .rwdata	00000020 bullet_move
10000000 g       *ABS*	00000000 __alt_data_end
08000020 g     F .exceptions	00000000 alt_exception
08005d7c g     F .text	00000004 __sfp_lock_release
0800f904 g     F .text	00000058 OSInit
08000000 g       *ABS*	00000000 __alt_mem_sdram
080172f4 g     F .text	00000124 OSTaskQuery
08018a1c g     F .text	00000078 alt_up_character_lcd_string
08015214 g     F .text	000000a8 OS_QInit
08010b8c g     F .text	00000054 OS_StrLen
08012d00 g     F .text	00000114 OSMemNameSet
0801c306 g     O .rwdata	00000002 OSTaskProfileEn
0801e1d4 g     O .bss	00000004 OSTime
08000e1c g     F .text	00000060 .hidden __fixunssfsi
08025cac g     O .bss	00000800 OSTaskIdleStk
0801a068 g     F .text	00000034 _exit
08000aac g     F .text	00000094 timer_isr
08018d6c g     F .text	0000012c alt_alarm_start
08011890 g     F .text	00000128 OSFlagNameGet
080178b4 g     F .text	0000005c OSTimeGet
0800690c g     F .text	000001bc __smakebuf_r
08001a2c g     F .text	00000098 strlen
080199b0 g     F .text	00000020 OSTaskSwHook
08019420 g     F .text	00000154 open
080264ac g     O .bss	00000b40 OSEventTbl
0800cdc0 g     F .text	000000dc .hidden __gedf2
08026fec g     O .bss	00000510 OSTCBTbl
08015c1c g     F .text	00000100 OSSemSet
0801c294 g     O .rwdata	00000004 __wctomb
080090c0 g     F .text	00000018 __sprint_r
08019110 g     F .text	00000034 alt_icache_flush_all
08018ae4 g     F .text	00000074 alt_up_character_lcd_set_cursor_pos
0801c2b0 g     O .rwdata	00000004 alt_priority_mask
08015444 g     F .text	00000240 OSSemDel
0801e1d8 g     O .bss	00000004 OSFlagFreeList
0801e150 g     O .bss	00000004 lcdMutex
0800e41c g     F .text	00000088 alt_ic_irq_enable
0801c2cc g     O .rwdata	00000002 OSEventNameSize
08003cbc g     F .text	0000001c __vfprintf_internal
0801e1dc g     O .bss	00000001 OSStatRdy
0801e120 g     O .bss	00000004 sample
080274fc g     O .bss	00000054 OSTCBPrioTbl
0800aee4 g     F .text	0000005c _wctomb_r
0800ed84 g     F .text	000000c4 __env_lock
0801c312 g     O .rwdata	00000002 OSTaskSwHookEn
0800d6a8 g     F .text	000008fc .hidden __subdf3
08000d0c g     F .text	00000110 printword
0801e114 g     O .bss	00000004 currTime
08007ae0 g     F .text	000000b0 __lo0bits
0801c334 g     O .rwdata	00000008 alt_alarm_list
0801c2da g     O .rwdata	00000002 OSFlagWidth
08018fc0 g     F .text	00000060 _do_ctors
0800adf4 g     F .text	000000c0 wcrtomb
0800e1e4 g     F .text	000000d0 close
0801e188 g     O .bss	00000004 alt_envsem
0801e1e0 g     O .bss	00000004 OSIdleCtrRun
0800ff48 g     F .text	00000020 OSVersion
0801c324 g     O .rwdata	00000002 OSTmrCfgWheelSize
0800e7b4 g     F .text	00000084 alt_load
08017418 g     F .text	00000070 OS_TaskStkClr
0801c2fe g     O .rwdata	00000002 OSTaskCreateEn
08010538 g     F .text	00000068 OS_EventWaitListInit
0800aa10 g     F .text	00000080 fputwc
08019a50 g     F .text	00000020 OSTaskIdleHook
08005d80 g     F .text	00000004 __sinit_lock_acquire
08007854 g     F .text	00000120 __multadd
08017110 g     F .text	000001e4 OSTaskSuspend
0800782c g     F .text	00000028 _Bfree
08010be0 g     F .text	0000005c OS_TaskIdle
0801c32a g     O .rwdata	00000002 OSTmrTblSize
080150b8 g     F .text	0000015c OSQQuery



Disassembly of section .entry:

08000000 <__reset>:
#if NIOS2_ICACHE_SIZE > 0 && defined(ALT_ALLOW_CODE_AT_RESET) && (!defined(ALT_SIM_OPTIMIZE) || defined(NIOS2_ECC_PRESENT))
    /* Assume the instruction cache size is always a power of two. */
#if NIOS2_ICACHE_SIZE > 0x8000
    movhi r2, %hi(NIOS2_ICACHE_SIZE)
#else
    movui r2, NIOS2_ICACHE_SIZE
 8000000:	00840014 	movui	r2,4096
#endif

0:
    initi r2
 8000004:	1001483a 	initi	r2
    addi r2, r2, -NIOS2_ICACHE_LINE_SIZE
 8000008:	10bff804 	addi	r2,r2,-32
    bgt r2, zero, 0b
 800000c:	00bffd16 	blt	zero,r2,8000004 <__alt_data_end+0xf8000004>
 * Jump to the _start entry point in the .text section if reset code
 * is allowed or if optimizing for RTL simulation.
 */
#if defined(ALT_ALLOW_CODE_AT_RESET) || defined(ALT_SIM_OPTIMIZE)
    /* Jump to the _start entry point in the .text section. */
    movhi r1, %hi(_start)
 8000010:	00420034 	movhi	at,2048
    ori r1, r1, %lo(_start)
 8000014:	08409114 	ori	at,at,580
    jmp r1
 8000018:	0800683a 	jmp	at
 800001c:	00000000 	call	0 <OSTCBStkPtr_OFFSET>

Disassembly of section .exceptions:

08000020 <alt_exception>:

#else /* ALT_EXCEPTION_STACK disabled */
        /* 
         * Reserve space on normal stack for registers about to be pushed.
         */
        addi  sp, sp, -76
 8000020:	deffed04 	addi	sp,sp,-76
         * documentation for details).
         *
         * Leave a gap in the stack frame at 4(sp) for the muldiv handler to
         * store zero into.
         */
        stw   ra,  0(sp)
 8000024:	dfc00015 	stw	ra,0(sp)
        stw   r1,   8(sp)
 8000028:	d8400215 	stw	at,8(sp)
        stw   r2,  12(sp)
 800002c:	d8800315 	stw	r2,12(sp)
        stw   r3,  16(sp)
 8000030:	d8c00415 	stw	r3,16(sp)
        stw   r4,  20(sp)
 8000034:	d9000515 	stw	r4,20(sp)
        stw   r5,  24(sp)
 8000038:	d9400615 	stw	r5,24(sp)
        stw   r6,  28(sp)
 800003c:	d9800715 	stw	r6,28(sp)
        stw   r7,  32(sp)
 8000040:	d9c00815 	stw	r7,32(sp)
        rdctl r5, estatus   /* Read early to avoid usage stall */
 8000044:	000b307a 	rdctl	r5,estatus
        stw   r8,  36(sp)
 8000048:	da000915 	stw	r8,36(sp)
        stw   r9,  40(sp)
 800004c:	da400a15 	stw	r9,40(sp)
        stw   r10, 44(sp)
 8000050:	da800b15 	stw	r10,44(sp)
        stw   r11, 48(sp)
 8000054:	dac00c15 	stw	r11,48(sp)
        stw   r12, 52(sp)
 8000058:	db000d15 	stw	r12,52(sp)
        stw   r13, 56(sp)
 800005c:	db400e15 	stw	r13,56(sp)
        stw   r14, 60(sp)
 8000060:	db800f15 	stw	r14,60(sp)
        stw   r15, 64(sp)
 8000064:	dbc01015 	stw	r15,64(sp)
        /*
         * ea-4 contains the address of the instruction being executed
         * when the exception occured. For interrupt exceptions, we will
         * will be re-issue the isntruction. Store it in 72(sp)
         */
        stw   r5,  68(sp)  /* estatus */
 8000068:	d9401115 	stw	r5,68(sp)
        addi  r15, ea, -4  /* instruction that caused exception */
 800006c:	ebffff04 	addi	r15,ea,-4
        stw   r15,  72(sp)
 8000070:	dbc01215 	stw	r15,72(sp)
#else
        /*
         * Test to see if the exception was a software exception or caused 
         * by an external interrupt, and vector accordingly.
         */
        rdctl r4, ipending
 8000074:	0009313a 	rdctl	r4,ipending
        andi  r2, r5, 1
 8000078:	2880004c 	andi	r2,r5,1
        beq   r2, zero, .Lnot_irq
 800007c:	10000326 	beq	r2,zero,800008c <alt_exception+0x6c>
        beq   r4, zero, .Lnot_irq
 8000080:	20000226 	beq	r4,zero,800008c <alt_exception+0x6c>
        /*
         * Now that all necessary registers have been preserved, call 
         * alt_irq_handler() to process the interrupts.
         */

        call alt_irq_handler
 8000084:	80000fc0 	call	80000fc <alt_irq_handler>

        .section .exceptions.irqreturn, "xa"

        br    .Lexception_exit
 8000088:	00000706 	br	80000a8 <alt_exception+0x88>
         * upon completion, so we write ea (address of instruction *after*
         * the one where the exception occured) into 72(sp). The actual
         * instruction that caused the exception is written in r2, which these
         * handlers will utilize.
         */
        stw ea, 72(sp) /* EA is PC+4 so will skip over instruction causing exception */
 800008c:	df401215 	stw	ea,72(sp)
.Lunknown_16bit:
        addi.n r4, r4, 2 /* Need PC+2 to skip over instruction causing exception */
        stw r4, 72(sp)

#else /* CDX is not Enabled and all instructions are 32bits */
        ldw r2, -4(ea) /* Instruction value that caused exception */
 8000090:	e8bfff17 	ldw	r2,-4(ea)
         * debugger is present) or go into an infinite loop since the
         * handling behavior is undefined; in that case we will not return here.
         */

        /* Load exception-causing address as first argument (r4) */
        addi   r4, ea, -4
 8000094:	e93fff04 	addi	r4,ea,-4

        /* Call the instruction-exception entry */
        call   alt_instruction_exception_entry
 8000098:	80001d00 	call	80001d0 <alt_instruction_exception_entry>
         * instruction
         *
         * Return code was 0: Skip. The instruction after the exception is
         * already stored in 72(sp).
         */
        bne   r2, r0, .Lexception_exit
 800009c:	1000021e 	bne	r2,zero,80000a8 <alt_exception+0x88>

        /*
         * Otherwise, modify 72(sp) to re-issue the instruction that caused the
         * exception.
         */
        addi  r15, ea, -4  /* instruction that caused exception */
 80000a0:	ebffff04 	addi	r15,ea,-4
        stw   r15,  72(sp)
 80000a4:	dbc01215 	stw	r15,72(sp)
        /* 
         * Restore the saved registers, so that all general purpose registers 
         * have been restored to their state at the time the interrupt occured.
         */

        ldw   r5,  68(sp)
 80000a8:	d9401117 	ldw	r5,68(sp)
        ldw   ea,  72(sp)  /* This becomes the PC once eret is executed */
 80000ac:	df401217 	ldw	ea,72(sp)
        ldw   ra,   0(sp)
 80000b0:	dfc00017 	ldw	ra,0(sp)

        wrctl estatus, r5
 80000b4:	2801707a 	wrctl	estatus,r5

        ldw   r1,   8(sp)
 80000b8:	d8400217 	ldw	at,8(sp)
        ldw   r2,  12(sp)
 80000bc:	d8800317 	ldw	r2,12(sp)
        ldw   r3,  16(sp)
 80000c0:	d8c00417 	ldw	r3,16(sp)
        ldw   r4,  20(sp)
 80000c4:	d9000517 	ldw	r4,20(sp)
        ldw   r5,  24(sp)
 80000c8:	d9400617 	ldw	r5,24(sp)
        ldw   r6,  28(sp)
 80000cc:	d9800717 	ldw	r6,28(sp)
        ldw   r7,  32(sp)
 80000d0:	d9c00817 	ldw	r7,32(sp)

#if defined(ALT_EXCEPTION_STACK) && defined(ALT_STACK_CHECK)
        ldw   et, %gprel(alt_exception_old_stack_limit)(gp)
#endif

        ldw   r8,  36(sp)
 80000d4:	da000917 	ldw	r8,36(sp)
        ldw   r9,  40(sp)
 80000d8:	da400a17 	ldw	r9,40(sp)
        ldw   r10, 44(sp)
 80000dc:	da800b17 	ldw	r10,44(sp)
        ldw   r11, 48(sp)
 80000e0:	dac00c17 	ldw	r11,48(sp)
        ldw   r12, 52(sp)
 80000e4:	db000d17 	ldw	r12,52(sp)
        ldw   r13, 56(sp)
 80000e8:	db400e17 	ldw	r13,56(sp)
        ldw   r14, 60(sp)
 80000ec:	db800f17 	ldw	r14,60(sp)
        ldw   r15, 64(sp)
 80000f0:	dbc01017 	ldw	r15,64(sp)
        stw   et, %gprel(alt_stack_limit_value)(gp)
        stw   zero, %gprel(alt_exception_old_stack_limit)(gp)
#endif /* ALT_STACK_CHECK */
        ldw   sp,  76(sp)
#else /* ALT_EXCEPTION_STACK disabled */
        addi  sp, sp, 76
 80000f4:	dec01304 	addi	sp,sp,76

        /*
         * Return to the interrupted instruction.
         */

        eret
 80000f8:	ef80083a 	eret

080000fc <alt_irq_handler>:
 * instruction is present if the macro ALT_CI_INTERRUPT_VECTOR defined.
 */

void alt_irq_handler (void) __attribute__ ((section (".exceptions")));
void alt_irq_handler (void)
{
 80000fc:	defff904 	addi	sp,sp,-28
 8000100:	dfc00615 	stw	ra,24(sp)
 8000104:	df000515 	stw	fp,20(sp)
 8000108:	df000504 	addi	fp,sp,20
  
  /*
   * Notify the operating system that we are at interrupt level.
   */ 
  
  ALT_OS_INT_ENTER();
 800010c:	800f95c0 	call	800f95c <OSIntEnter>
#ifndef NIOS2_EIC_PRESENT
static ALT_INLINE alt_u32 ALT_ALWAYS_INLINE alt_irq_pending (void)
{
  alt_u32 active;

  NIOS2_READ_IPENDING (active);
 8000110:	0005313a 	rdctl	r2,ipending
 8000114:	e0bffe15 	stw	r2,-8(fp)

  return active;
 8000118:	e0bffe17 	ldw	r2,-8(fp)
   * Consider the case where the high priority interupt is asserted during
   * the interrupt entry sequence for a lower priority interrupt to see why
   * this is the case.
   */

  active = alt_irq_pending ();
 800011c:	e0bffb15 	stw	r2,-20(fp)

  do
  {
    i = 0;
 8000120:	e03ffd15 	stw	zero,-12(fp)
    mask = 1;
 8000124:	00800044 	movi	r2,1
 8000128:	e0bffc15 	stw	r2,-16(fp)
     * called to clear the interrupt condition.
     */

    do
    {
      if (active & mask)
 800012c:	e0fffb17 	ldw	r3,-20(fp)
 8000130:	e0bffc17 	ldw	r2,-16(fp)
 8000134:	1884703a 	and	r2,r3,r2
 8000138:	10001426 	beq	r2,zero,800018c <alt_irq_handler+0x90>
      { 
#ifdef ALT_ENHANCED_INTERRUPT_API_PRESENT
        alt_irq[i].handler(alt_irq[i].context); 
 800013c:	008200b4 	movhi	r2,2050
 8000140:	10908b04 	addi	r2,r2,16940
 8000144:	e0fffd17 	ldw	r3,-12(fp)
 8000148:	180690fa 	slli	r3,r3,3
 800014c:	10c5883a 	add	r2,r2,r3
 8000150:	10c00017 	ldw	r3,0(r2)
 8000154:	008200b4 	movhi	r2,2050
 8000158:	10908b04 	addi	r2,r2,16940
 800015c:	e13ffd17 	ldw	r4,-12(fp)
 8000160:	200890fa 	slli	r4,r4,3
 8000164:	1105883a 	add	r2,r2,r4
 8000168:	10800104 	addi	r2,r2,4
 800016c:	10800017 	ldw	r2,0(r2)
 8000170:	1009883a 	mov	r4,r2
 8000174:	183ee83a 	callr	r3
#else
        alt_irq[i].handler(alt_irq[i].context, i); 
#endif
        break;
 8000178:	0001883a 	nop
#ifndef NIOS2_EIC_PRESENT
static ALT_INLINE alt_u32 ALT_ALWAYS_INLINE alt_irq_pending (void)
{
  alt_u32 active;

  NIOS2_READ_IPENDING (active);
 800017c:	0005313a 	rdctl	r2,ipending
 8000180:	e0bfff15 	stw	r2,-4(fp)

  return active;
 8000184:	e0bfff17 	ldw	r2,-4(fp)
 8000188:	00000706 	br	80001a8 <alt_irq_handler+0xac>
      }
      mask <<= 1;
 800018c:	e0bffc17 	ldw	r2,-16(fp)
 8000190:	1085883a 	add	r2,r2,r2
 8000194:	e0bffc15 	stw	r2,-16(fp)
      i++;
 8000198:	e0bffd17 	ldw	r2,-12(fp)
 800019c:	10800044 	addi	r2,r2,1
 80001a0:	e0bffd15 	stw	r2,-12(fp)

    } while (1);
 80001a4:	003fe106 	br	800012c <__alt_data_end+0xf800012c>

    active = alt_irq_pending ();
 80001a8:	e0bffb15 	stw	r2,-20(fp)
    
  } while (active);
 80001ac:	e0bffb17 	ldw	r2,-20(fp)
 80001b0:	103fdb1e 	bne	r2,zero,8000120 <__alt_data_end+0xf8000120>

  /*
   * Notify the operating system that interrupt processing is complete.
   */ 

  ALT_OS_INT_EXIT();
 80001b4:	800f9a80 	call	800f9a8 <OSIntExit>
}
 80001b8:	0001883a 	nop
 80001bc:	e037883a 	mov	sp,fp
 80001c0:	dfc00117 	ldw	ra,4(sp)
 80001c4:	df000017 	ldw	fp,0(sp)
 80001c8:	dec00204 	addi	sp,sp,8
 80001cc:	f800283a 	ret

080001d0 <alt_instruction_exception_entry>:
 * that handler if it has been registered. Absent a handler, it will
 * break break or hang as discussed below.
 */
int 
alt_instruction_exception_entry (alt_u32 exception_pc)
{
 80001d0:	defffb04 	addi	sp,sp,-20
 80001d4:	dfc00415 	stw	ra,16(sp)
 80001d8:	df000315 	stw	fp,12(sp)
 80001dc:	df000304 	addi	fp,sp,12
 80001e0:	e13fff15 	stw	r4,-4(fp)
 * NIOS2_EXCEPTION_CAUSE_NOT_PRESENT. Your handling routine should
 * check the validity of the cause argument before proceeding.
 */
#ifdef NIOS2_HAS_EXTRA_EXCEPTION_INFO
  /* Get exception cause & "badaddr" */
  NIOS2_READ_EXCEPTION(cause);
 80001e4:	000531fa 	rdctl	r2,exception
 80001e8:	e0bffd15 	stw	r2,-12(fp)
  cause = ( (cause & NIOS2_EXCEPTION_REG_CAUSE_MASK) >>
 80001ec:	e0bffd17 	ldw	r2,-12(fp)
 80001f0:	10801f0c 	andi	r2,r2,124
 80001f4:	1004d0ba 	srli	r2,r2,2
 80001f8:	e0bffd15 	stw	r2,-12(fp)
              NIOS2_EXCEPTION_REG_CAUSE_OFST );

  NIOS2_READ_BADADDR(badaddr);
 80001fc:	0005333a 	rdctl	r2,badaddr
 8000200:	e0bffe15 	stw	r2,-8(fp)
#else
  cause = NIOS2_EXCEPTION_CAUSE_NOT_PRESENT;
  badaddr = 0;
#endif /* NIOS2_HAS_EXTRA_EXCEPTION_INFO */

  if(alt_instruction_exception_handler) {
 8000204:	d0a7e417 	ldw	r2,-24688(gp)
 8000208:	10000726 	beq	r2,zero,8000228 <alt_instruction_exception_entry+0x58>
     * Call handler. Its return value indicates whether the exception-causing
     * instruction should be re-issued. The code that called us,
     * alt_eceptions_entry.S, will look at this value and adjust the ea
     * register as necessary
     */
    return alt_instruction_exception_handler(cause, exception_pc, badaddr);
 800020c:	d0a7e417 	ldw	r2,-24688(gp)
 8000210:	e0fffd17 	ldw	r3,-12(fp)
 8000214:	e1bffe17 	ldw	r6,-8(fp)
 8000218:	e17fff17 	ldw	r5,-4(fp)
 800021c:	1809883a 	mov	r4,r3
 8000220:	103ee83a 	callr	r2
 8000224:	00000206 	br	8000230 <alt_instruction_exception_entry+0x60>
   *    (a peripheral which negates its interrupt output before its
   *    interrupt handler has been executed will cause spurious interrupts)
   */
  else {
#ifdef NIOS2_HAS_DEBUG_STUB
    NIOS2_BREAK();
 8000228:	003da03a 	break	0
      ;
#endif /* NIOS2_HAS_DEBUG_STUB */
  }

  /* We should not get here. Remove compiler warning. */
  return NIOS2_EXCEPTION_RETURN_REISSUE_INST;
 800022c:	0005883a 	mov	r2,zero
}
 8000230:	e037883a 	mov	sp,fp
 8000234:	dfc00117 	ldw	ra,4(sp)
 8000238:	df000017 	ldw	fp,0(sp)
 800023c:	dec00204 	addi	sp,sp,8
 8000240:	f800283a 	ret

Disassembly of section .text:

08000244 <_start>:

    /* Assume the data cache size is always a power of two. */
#if NIOS2_DCACHE_SIZE > 0x8000
    movhi r2, %hi(NIOS2_DCACHE_SIZE)
#else
    movui r2, NIOS2_DCACHE_SIZE
 8000244:	00820014 	movui	r2,2048
#endif

0:
    initd 0(r2)
 8000248:	10000033 	initd	0(r2)
#ifdef NIOS2_ECC_PRESENT
    addi r2, r2, -4
#else
    addi r2, r2, -NIOS2_DCACHE_LINE_SIZE
 800024c:	10bff804 	addi	r2,r2,-32
#endif
    bgt r2, zero, 0b
 8000250:	00bffd16 	blt	zero,r2,8000248 <__alt_data_end+0xf8000248>

    /*
     * Now that the caches are initialized, set up the stack pointer and global pointer.
     * The values provided by the linker are assumed to be correctly aligned.
     */
    movhi sp, %hi(__alt_stack_pointer)
 8000254:	06c40034 	movhi	sp,4096
    ori sp, sp, %lo(__alt_stack_pointer)
 8000258:	dec00014 	ori	sp,sp,0
    movhi gp, %hi(_gp)
 800025c:	068200b4 	movhi	gp,2050
    ori gp, gp, %lo(_gp)
 8000260:	d6909514 	ori	gp,gp,16980
 */
#ifndef ALT_SIM_OPTIMIZE
    /* Log that the BSS is about to be cleared. */
    ALT_LOG_PUTS(alt_log_msg_bss)

    movhi r2, %hi(__bss_start)
 8000264:	00820074 	movhi	r2,2049
    ori r2, r2, %lo(__bss_start)
 8000268:	10b84414 	ori	r2,r2,57616

    movhi r3, %hi(__bss_end)
 800026c:	00c200b4 	movhi	r3,2050
    ori r3, r3, %lo(__bss_end)
 8000270:	18dd5414 	ori	r3,r3,30032

    beq r2, r3, 1f
 8000274:	10c00326 	beq	r2,r3,8000284 <_start+0x40>

0:
    stw zero, (r2)
 8000278:	10000015 	stw	zero,0(r2)
    addi r2, r2, 4
 800027c:	10800104 	addi	r2,r2,4
    bltu r2, r3, 0b
 8000280:	10fffd36 	bltu	r2,r3,8000278 <__alt_data_end+0xf8000278>
     * section aren't defined until alt_load() has been called).
     */
    mov   et, zero
#endif

    call alt_load
 8000284:	800e7b40 	call	800e7b4 <alt_load>

    /* Log that alt_main is about to be called. */
    ALT_LOG_PUTS(alt_log_msg_alt_main)

    /* Call the C entry point. It should never return. */
    call alt_main
 8000288:	800e9480 	call	800e948 <alt_main>

0800028c <alt_after_alt_main>:

    /* Wait in infinite loop in case alt_main does return. */
alt_after_alt_main:
    br alt_after_alt_main
 800028c:	003fff06 	br	800028c <__alt_data_end+0xf800028c>

08000290 <shootBullet>:
int bulletActive = 0;     // Flag to indicate if a bullet is currently active
int playerPosition = 0;  // Initial position of the player character

char bullet = '-';

void shootBullet() {
 8000290:	defffd04 	addi	sp,sp,-12
 8000294:	dfc00215 	stw	ra,8(sp)
 8000298:	df000115 	stw	fp,4(sp)
 800029c:	df000104 	addi	fp,sp,4
	INT8U err;
    // Check if a bullet is already active
    if (bulletActive) {
 80002a0:	d0a7b617 	ldw	r2,-24872(gp)
 80002a4:	10001c1e 	bne	r2,zero,8000318 <shootBullet+0x88>
        return;  // Skip shooting if a bullet is still active
    }

    // Set the bullet position to the player's position
    bulletPosition = playerPosition;
 80002a8:	d0a7b717 	ldw	r2,-24868(gp)
 80002ac:	d0a00915 	stw	r2,-32732(gp)
    bulletActive = 1;  // Set the flag to indicate an active bullet
 80002b0:	00800044 	movi	r2,1
 80002b4:	d0a7b615 	stw	r2,-24872(gp)
    OSMutexPend(lcdMutex, 0, &err);
 80002b8:	d0a7bf17 	ldw	r2,-24836(gp)
 80002bc:	e1bfff04 	addi	r6,fp,-4
 80002c0:	000b883a 	mov	r5,zero
 80002c4:	1009883a 	mov	r4,r2
 80002c8:	80137080 	call	8013708 <OSMutexPend>
    // Display the bullet at the initial position
    IOWR_ALT_UP_CHARACTER_LCD_COMMAND(LCD_BASE, 0x80 + bulletPosition);
 80002cc:	d0a00917 	ldw	r2,-32732(gp)
 80002d0:	10c02004 	addi	r3,r2,128
 80002d4:	00840404 	movi	r2,4112
 80002d8:	10c00025 	stbio	r3,0(r2)
    IOWR_8DIRECT(LCD_BASE, ALT_UP_CHARACTER_LCD_DATA_REG, bullet);
 80002dc:	d0a00a03 	ldbu	r2,-32728(gp)
 80002e0:	10c03fcc 	andi	r3,r2,255
 80002e4:	18c0201c 	xori	r3,r3,128
 80002e8:	18ffe004 	addi	r3,r3,-128
 80002ec:	00840444 	movi	r2,4113
 80002f0:	10c00025 	stbio	r3,0(r2)

    // Introduce a delay (you may need to adjust the duration)
    //usleep(100000);  // Sleep for 100ms (adjust as needed)
    OSTimeDlyHMSM(0, 0, 0, 100);
 80002f4:	01c01904 	movi	r7,100
 80002f8:	000d883a 	mov	r6,zero
 80002fc:	000b883a 	mov	r5,zero
 8000300:	0009883a 	mov	r4,zero
 8000304:	801758c0 	call	801758c <OSTimeDlyHMSM>
    OSMutexPost(lcdMutex);
 8000308:	d0a7bf17 	ldw	r2,-24836(gp)
 800030c:	1009883a 	mov	r4,r2
 8000310:	8013ca40 	call	8013ca4 <OSMutexPost>
 8000314:	00000106 	br	800031c <shootBullet+0x8c>

void shootBullet() {
	INT8U err;
    // Check if a bullet is already active
    if (bulletActive) {
        return;  // Skip shooting if a bullet is still active
 8000318:	0001883a 	nop

    // Introduce a delay (you may need to adjust the duration)
    //usleep(100000);  // Sleep for 100ms (adjust as needed)
    OSTimeDlyHMSM(0, 0, 0, 100);
    OSMutexPost(lcdMutex);
}
 800031c:	e037883a 	mov	sp,fp
 8000320:	dfc00117 	ldw	ra,4(sp)
 8000324:	df000017 	ldw	fp,0(sp)
 8000328:	dec00204 	addi	sp,sp,8
 800032c:	f800283a 	ret

08000330 <moveBullet>:

void moveBullet(void* pdata) {
 8000330:	defffc04 	addi	sp,sp,-16
 8000334:	dfc00315 	stw	ra,12(sp)
 8000338:	df000215 	stw	fp,8(sp)
 800033c:	df000204 	addi	fp,sp,8
 8000340:	e13fff15 	stw	r4,-4(fp)
	INT8U err;
    // Check if a bullet is active
    if (bulletActive) {
 8000344:	d0a7b617 	ldw	r2,-24872(gp)
 8000348:	10002826 	beq	r2,zero,80003ec <moveBullet+0xbc>
        while (bulletPosition >= 0) {
 800034c:	00002406 	br	80003e0 <moveBullet+0xb0>
            // Clear the bullet at the current position

            // Update the bullet position
            bulletPosition--;
 8000350:	d0a00917 	ldw	r2,-32732(gp)
 8000354:	10bfffc4 	addi	r2,r2,-1
 8000358:	d0a00915 	stw	r2,-32732(gp)
            OSMutexPend(lcdMutex, 0, &err);
 800035c:	d0a7bf17 	ldw	r2,-24836(gp)
 8000360:	e1bffe04 	addi	r6,fp,-8
 8000364:	000b883a 	mov	r5,zero
 8000368:	1009883a 	mov	r4,r2
 800036c:	80137080 	call	8013708 <OSMutexPend>
            // Display the bullet at the new position
            IOWR_ALT_UP_CHARACTER_LCD_COMMAND(LCD_BASE, ALT_UP_CHARACTER_LCD_COMM_CLEAR_DISPLAY);
 8000370:	00c00044 	movi	r3,1
 8000374:	00840404 	movi	r2,4112
 8000378:	10c00025 	stbio	r3,0(r2)
            IOWR_ALT_UP_CHARACTER_LCD_COMMAND(LCD_BASE, 0x80 + playerPosition);
 800037c:	d0a7b717 	ldw	r2,-24868(gp)
 8000380:	10c02004 	addi	r3,r2,128
 8000384:	00840404 	movi	r2,4112
 8000388:	10c00025 	stbio	r3,0(r2)
            IOWR_8DIRECT(LCD_BASE, ALT_UP_CHARACTER_LCD_DATA_REG, 0x1);
 800038c:	00c00044 	movi	r3,1
 8000390:	00840444 	movi	r2,4113
 8000394:	10c00025 	stbio	r3,0(r2)
            IOWR_ALT_UP_CHARACTER_LCD_COMMAND(LCD_BASE, 0x80 + bulletPosition);
 8000398:	d0a00917 	ldw	r2,-32732(gp)
 800039c:	10c02004 	addi	r3,r2,128
 80003a0:	00840404 	movi	r2,4112
 80003a4:	10c00025 	stbio	r3,0(r2)
            IOWR_8DIRECT(LCD_BASE, ALT_UP_CHARACTER_LCD_DATA_REG, bullet);
 80003a8:	d0a00a03 	ldbu	r2,-32728(gp)
 80003ac:	10c03fcc 	andi	r3,r2,255
 80003b0:	18c0201c 	xori	r3,r3,128
 80003b4:	18ffe004 	addi	r3,r3,-128
 80003b8:	00840444 	movi	r2,4113
 80003bc:	10c00025 	stbio	r3,0(r2)

            // Introduce a delay (you may need to adjust the duration)
            //usleep(100000);  // Sleep for 100ms (adjust as needed)
            OSTimeDlyHMSM(0, 0, 0, 100);
 80003c0:	01c01904 	movi	r7,100
 80003c4:	000d883a 	mov	r6,zero
 80003c8:	000b883a 	mov	r5,zero
 80003cc:	0009883a 	mov	r4,zero
 80003d0:	801758c0 	call	801758c <OSTimeDlyHMSM>
            OSMutexPost(lcdMutex);
 80003d4:	d0a7bf17 	ldw	r2,-24836(gp)
 80003d8:	1009883a 	mov	r4,r2
 80003dc:	8013ca40 	call	8013ca4 <OSMutexPost>

void moveBullet(void* pdata) {
	INT8U err;
    // Check if a bullet is active
    if (bulletActive) {
        while (bulletPosition >= 0) {
 80003e0:	d0a00917 	ldw	r2,-32732(gp)
 80003e4:	103fda0e 	bge	r2,zero,8000350 <__alt_data_end+0xf8000350>
            //usleep(100000);  // Sleep for 100ms (adjust as needed)
            OSTimeDlyHMSM(0, 0, 0, 100);
            OSMutexPost(lcdMutex);
        }

        bulletActive = 0;  // Deactivate the bullet once it goes off the display
 80003e8:	d027b615 	stw	zero,-24872(gp)
    }
}
 80003ec:	0001883a 	nop
 80003f0:	e037883a 	mov	sp,fp
 80003f4:	dfc00117 	ldw	ra,4(sp)
 80003f8:	df000017 	ldw	fp,0(sp)
 80003fc:	dec00204 	addi	sp,sp,8
 8000400:	f800283a 	ret

08000404 <movePlayer>:
void movePlayer(int direction) {
 8000404:	defffb04 	addi	sp,sp,-20
 8000408:	dfc00415 	stw	ra,16(sp)
 800040c:	df000315 	stw	fp,12(sp)
 8000410:	df000304 	addi	fp,sp,12
 8000414:	e13fff15 	stw	r4,-4(fp)
    // Direction: 0 for left, 1 for right
	INT8U err;
    OSMutexPend(lcdMutex, 0, &err);
 8000418:	d0a7bf17 	ldw	r2,-24836(gp)
 800041c:	e0fffe04 	addi	r3,fp,-8
 8000420:	180d883a 	mov	r6,r3
 8000424:	000b883a 	mov	r5,zero
 8000428:	1009883a 	mov	r4,r2
 800042c:	80137080 	call	8013708 <OSMutexPend>
    // Clear the entire display
    IOWR_ALT_UP_CHARACTER_LCD_COMMAND(LCD_BASE, ALT_UP_CHARACTER_LCD_COMM_CLEAR_DISPLAY);
 8000430:	00c00044 	movi	r3,1
 8000434:	00840404 	movi	r2,4112
 8000438:	10c00025 	stbio	r3,0(r2)

    // Update the player position based on the direction
    if (direction == 0 && playerPosition > 0) {
 800043c:	e0bfff17 	ldw	r2,-4(fp)
 8000440:	1000061e 	bne	r2,zero,800045c <movePlayer+0x58>
 8000444:	d0a7b717 	ldw	r2,-24868(gp)
 8000448:	0080040e 	bge	zero,r2,800045c <movePlayer+0x58>
        playerPosition--;
 800044c:	d0a7b717 	ldw	r2,-24868(gp)
 8000450:	10bfffc4 	addi	r2,r2,-1
 8000454:	d0a7b715 	stw	r2,-24868(gp)
 8000458:	00000906 	br	8000480 <movePlayer+0x7c>
    } else if (direction == 1 && playerPosition < 15) {
 800045c:	e0bfff17 	ldw	r2,-4(fp)
 8000460:	10800058 	cmpnei	r2,r2,1
 8000464:	1000061e 	bne	r2,zero,8000480 <movePlayer+0x7c>
 8000468:	d0a7b717 	ldw	r2,-24868(gp)
 800046c:	108003c8 	cmpgei	r2,r2,15
 8000470:	1000031e 	bne	r2,zero,8000480 <movePlayer+0x7c>
        playerPosition++;
 8000474:	d0a7b717 	ldw	r2,-24868(gp)
 8000478:	10800044 	addi	r2,r2,1
 800047c:	d0a7b715 	stw	r2,-24868(gp)
    }

    // Display the player character at the new position

    IOWR_ALT_UP_CHARACTER_LCD_COMMAND(LCD_BASE, 0x80 + playerPosition);
 8000480:	d0a7b717 	ldw	r2,-24868(gp)
 8000484:	10c02004 	addi	r3,r2,128
 8000488:	00840404 	movi	r2,4112
 800048c:	10c00025 	stbio	r3,0(r2)
    IOWR_8DIRECT(LCD_BASE, ALT_UP_CHARACTER_LCD_DATA_REG,0x1);
 8000490:	00c00044 	movi	r3,1
 8000494:	00840444 	movi	r2,4113
 8000498:	10c00025 	stbio	r3,0(r2)
    for(int i =0;i<300000;i++){}
 800049c:	e03ffd15 	stw	zero,-12(fp)
 80004a0:	00000306 	br	80004b0 <movePlayer+0xac>
 80004a4:	e0bffd17 	ldw	r2,-12(fp)
 80004a8:	10800044 	addi	r2,r2,1
 80004ac:	e0bffd15 	stw	r2,-12(fp)
 80004b0:	e0fffd17 	ldw	r3,-12(fp)
 80004b4:	00800174 	movhi	r2,5
 80004b8:	10a4f7c4 	addi	r2,r2,-27681
 80004bc:	10fff90e 	bge	r2,r3,80004a4 <__alt_data_end+0xf80004a4>
    IOWR_ALT_UP_CHARACTER_LCD_COMMAND(LCD_BASE, ALT_UP_CHARACTER_LCD_COMM_CLEAR_DISPLAY);
 80004c0:	00c00044 	movi	r3,1
 80004c4:	00840404 	movi	r2,4112
 80004c8:	10c00025 	stbio	r3,0(r2)
    IOWR_ALT_UP_CHARACTER_LCD_COMMAND(LCD_BASE, 0x80 + playerPosition);
 80004cc:	d0a7b717 	ldw	r2,-24868(gp)
 80004d0:	10c02004 	addi	r3,r2,128
 80004d4:	00840404 	movi	r2,4112
 80004d8:	10c00025 	stbio	r3,0(r2)
    IOWR_8DIRECT(LCD_BASE, ALT_UP_CHARACTER_LCD_DATA_REG,0x0);
 80004dc:	0007883a 	mov	r3,zero
 80004e0:	00840444 	movi	r2,4113
 80004e4:	10c00025 	stbio	r3,0(r2)
    OSMutexPost(lcdMutex);
 80004e8:	d0a7bf17 	ldw	r2,-24836(gp)
 80004ec:	1009883a 	mov	r4,r2
 80004f0:	8013ca40 	call	8013ca4 <OSMutexPost>

}
 80004f4:	0001883a 	nop
 80004f8:	e037883a 	mov	sp,fp
 80004fc:	dfc00117 	ldw	ra,4(sp)
 8000500:	df000017 	ldw	fp,0(sp)
 8000504:	dec00204 	addi	sp,sp,8
 8000508:	f800283a 	ret

0800050c <task1>:
 */



void task1(void* pdata)
{
 800050c:	defffb04 	addi	sp,sp,-20
 8000510:	dfc00415 	stw	ra,16(sp)
 8000514:	df000315 	stw	fp,12(sp)
 8000518:	df000304 	addi	fp,sp,12
 800051c:	e13fff15 	stw	r4,-4(fp)
    INT8U err;
    while (1)
    {
        INT32U timestamp = OSTimeGet();
 8000520:	80178b40 	call	80178b4 <OSTimeGet>
 8000524:	e0bffd15 	stw	r2,-12(fp)
        printf("Task1 is running at timestamp: %lu\n", timestamp);
 8000528:	e17ffd17 	ldw	r5,-12(fp)
 800052c:	010200b4 	movhi	r4,2050
 8000530:	21282704 	addi	r4,r4,-24420
 8000534:	800191c0 	call	800191c <printf>
        // Request ownership of the mutex
        OSMutexPend(ledMutex, 0, &err);
 8000538:	d0a7bd17 	ldw	r2,-24844(gp)
 800053c:	e0fffe04 	addi	r3,fp,-8
 8000540:	180d883a 	mov	r6,r3
 8000544:	000b883a 	mov	r5,zero
 8000548:	1009883a 	mov	r4,r2
 800054c:	80137080 	call	8013708 <OSMutexPend>
        IOWR(LEDS_BASE, 0, 0x1);  // Turn on LED 1
 8000550:	00c00044 	movi	r3,1
 8000554:	00800834 	movhi	r2,32
 8000558:	10840804 	addi	r2,r2,4128
 800055c:	10c00035 	stwio	r3,0(r2)
        OSTimeDlyHMSM(0, 0, 1, 0);
 8000560:	000f883a 	mov	r7,zero
 8000564:	01800044 	movi	r6,1
 8000568:	000b883a 	mov	r5,zero
 800056c:	0009883a 	mov	r4,zero
 8000570:	801758c0 	call	801758c <OSTimeDlyHMSM>
        IOWR(LEDS_BASE, 0, 0x0);  // Turn off LED 1
 8000574:	0007883a 	mov	r3,zero
 8000578:	00800834 	movhi	r2,32
 800057c:	10840804 	addi	r2,r2,4128
 8000580:	10c00035 	stwio	r3,0(r2)


        OSTimeDlyHMSM(0, 0, 1, 0);  // Sleep for 3 seconds before repeating
 8000584:	000f883a 	mov	r7,zero
 8000588:	01800044 	movi	r6,1
 800058c:	000b883a 	mov	r5,zero
 8000590:	0009883a 	mov	r4,zero
 8000594:	801758c0 	call	801758c <OSTimeDlyHMSM>
        // Release ownership of the mutex
        OSMutexPost(ledMutex);
 8000598:	d0a7bd17 	ldw	r2,-24844(gp)
 800059c:	1009883a 	mov	r4,r2
 80005a0:	8013ca40 	call	8013ca4 <OSMutexPost>
    }
 80005a4:	003fde06 	br	8000520 <__alt_data_end+0xf8000520>

080005a8 <task2>:
}

void task2(void* pdata)
{
 80005a8:	defffb04 	addi	sp,sp,-20
 80005ac:	dfc00415 	stw	ra,16(sp)
 80005b0:	df000315 	stw	fp,12(sp)
 80005b4:	df000304 	addi	fp,sp,12
 80005b8:	e13fff15 	stw	r4,-4(fp)
    INT8U err;
    while (1)
    {
        INT32U timestamp = OSTimeGet();
 80005bc:	80178b40 	call	80178b4 <OSTimeGet>
 80005c0:	e0bffd15 	stw	r2,-12(fp)
        printf("Task2 is running at timestamp: %lu\n", timestamp);
 80005c4:	e17ffd17 	ldw	r5,-12(fp)
 80005c8:	010200b4 	movhi	r4,2050
 80005cc:	21283004 	addi	r4,r4,-24384
 80005d0:	800191c0 	call	800191c <printf>

        OSMutexPend(ledMutex, 0, &err);
 80005d4:	d0a7bd17 	ldw	r2,-24844(gp)
 80005d8:	e0fffe04 	addi	r3,fp,-8
 80005dc:	180d883a 	mov	r6,r3
 80005e0:	000b883a 	mov	r5,zero
 80005e4:	1009883a 	mov	r4,r2
 80005e8:	80137080 	call	8013708 <OSMutexPend>
        IOWR(LEDS_BASE, 0, 0x2);  // Turn on LED 2
 80005ec:	00c00084 	movi	r3,2
 80005f0:	00800834 	movhi	r2,32
 80005f4:	10840804 	addi	r2,r2,4128
 80005f8:	10c00035 	stwio	r3,0(r2)
        OSTimeDlyHMSM(0, 0, 1, 0);
 80005fc:	000f883a 	mov	r7,zero
 8000600:	01800044 	movi	r6,1
 8000604:	000b883a 	mov	r5,zero
 8000608:	0009883a 	mov	r4,zero
 800060c:	801758c0 	call	801758c <OSTimeDlyHMSM>
        IOWR(LEDS_BASE, 0, 0x0);  // Turn off LED 2
 8000610:	0007883a 	mov	r3,zero
 8000614:	00800834 	movhi	r2,32
 8000618:	10840804 	addi	r2,r2,4128
 800061c:	10c00035 	stwio	r3,0(r2)


        OSTimeDlyHMSM(0, 0, 1, 0);  // Sleep for 3 seconds before repeating
 8000620:	000f883a 	mov	r7,zero
 8000624:	01800044 	movi	r6,1
 8000628:	000b883a 	mov	r5,zero
 800062c:	0009883a 	mov	r4,zero
 8000630:	801758c0 	call	801758c <OSTimeDlyHMSM>
        OSMutexPost(ledMutex);
 8000634:	d0a7bd17 	ldw	r2,-24844(gp)
 8000638:	1009883a 	mov	r4,r2
 800063c:	8013ca40 	call	8013ca4 <OSMutexPost>
    }
 8000640:	003fde06 	br	80005bc <__alt_data_end+0xf80005bc>

08000644 <pio_init>:
}

void pio_init() {
 8000644:	defffc04 	addi	sp,sp,-16
 8000648:	dfc00315 	stw	ra,12(sp)
 800064c:	df000215 	stw	fp,8(sp)
 8000650:	df000204 	addi	fp,sp,8
	void* edge_capture_ptr = (void*)&(edge_capture);
 8000654:	d0a7ba04 	addi	r2,gp,-24856
 8000658:	e0bfff15 	stw	r2,-4(fp)

	IOWR_ALTERA_AVALON_PIO_IRQ_MASK(KEYS_BASE, 0x7);
 800065c:	00c001c4 	movi	r3,7
 8000660:	00800834 	movhi	r2,32
 8000664:	10841a04 	addi	r2,r2,4200
 8000668:	10c00035 	stwio	r3,0(r2)
	IOWR_ALTERA_AVALON_PIO_EDGE_CAP(KEYS_BASE, 0x00);
 800066c:	0007883a 	mov	r3,zero
 8000670:	00800834 	movhi	r2,32
 8000674:	10841b04 	addi	r2,r2,4204
 8000678:	10c00035 	stwio	r3,0(r2)

	alt_ic_isr_register(KEYS_IRQ_INTERRUPT_CONTROLLER_ID, KEYS_IRQ, handle_key_interrupts, edge_capture_ptr, 0);
 800067c:	d8000015 	stw	zero,0(sp)
 8000680:	e1ffff17 	ldw	r7,-4(fp)
 8000684:	01820034 	movhi	r6,2048
 8000688:	3181ac04 	addi	r6,r6,1712
 800068c:	000b883a 	mov	r5,zero
 8000690:	0009883a 	mov	r4,zero
 8000694:	800e3cc0 	call	800e3cc <alt_ic_isr_register>

}
 8000698:	0001883a 	nop
 800069c:	e037883a 	mov	sp,fp
 80006a0:	dfc00117 	ldw	ra,4(sp)
 80006a4:	df000017 	ldw	fp,0(sp)
 80006a8:	dec00204 	addi	sp,sp,8
 80006ac:	f800283a 	ret

080006b0 <handle_key_interrupts>:

void handle_key_interrupts(void* context) {
 80006b0:	defffc04 	addi	sp,sp,-16
 80006b4:	dfc00315 	stw	ra,12(sp)
 80006b8:	df000215 	stw	fp,8(sp)
 80006bc:	df000204 	addi	fp,sp,8
 80006c0:	e13fff15 	stw	r4,-4(fp)
	// Call RTOS Interrupt Handling function
	OSIntEnter();
 80006c4:	800f95c0 	call	800f95c <OSIntEnter>
	volatile int* edge_capture_ptr = (volatile int*) context;
 80006c8:	e0bfff17 	ldw	r2,-4(fp)
 80006cc:	e0bffe15 	stw	r2,-8(fp)

	*edge_capture_ptr = IORD_ALTERA_AVALON_PIO_EDGE_CAP(KEYS_BASE);
 80006d0:	00800834 	movhi	r2,32
 80006d4:	10841b04 	addi	r2,r2,4204
 80006d8:	10c00037 	ldwio	r3,0(r2)
 80006dc:	e0bffe17 	ldw	r2,-8(fp)
 80006e0:	10c00015 	stw	r3,0(r2)
	switch (*edge_capture_ptr) {
 80006e4:	e0bffe17 	ldw	r2,-8(fp)
 80006e8:	10800017 	ldw	r2,0(r2)
 80006ec:	10c000a0 	cmpeqi	r3,r2,2
 80006f0:	1800061e 	bne	r3,zero,800070c <handle_key_interrupts+0x5c>
 80006f4:	10c00120 	cmpeqi	r3,r2,4
 80006f8:	1800061e 	bne	r3,zero,8000714 <handle_key_interrupts+0x64>
 80006fc:	10800060 	cmpeqi	r2,r2,1
 8000700:	10000626 	beq	r2,zero,800071c <handle_key_interrupts+0x6c>
	case 0x1:
		key1_isr();
 8000704:	80007640 	call	8000764 <key1_isr>
		break;
 8000708:	00000f06 	br	8000748 <handle_key_interrupts+0x98>
	case 0x2:
		key2_isr();
 800070c:	80007ac0 	call	80007ac <key2_isr>
		break;
 8000710:	00000d06 	br	8000748 <handle_key_interrupts+0x98>
	case 0x4:
		key3_isr();
 8000714:	80007f80 	call	80007f8 <key3_isr>
		break;
 8000718:	00000b06 	br	8000748 <handle_key_interrupts+0x98>
	default:
		printf("UNKNOWN INTERRUPT! Received: %d\n", *edge_capture_ptr);
 800071c:	e0bffe17 	ldw	r2,-8(fp)
 8000720:	10800017 	ldw	r2,0(r2)
 8000724:	100b883a 	mov	r5,r2
 8000728:	010200b4 	movhi	r4,2050
 800072c:	21283904 	addi	r4,r4,-24348
 8000730:	800191c0 	call	800191c <printf>
		IOWR_ALTERA_AVALON_PIO_EDGE_CAP(KEYS_BASE, 0x00);
 8000734:	0007883a 	mov	r3,zero
 8000738:	00800834 	movhi	r2,32
 800073c:	10841b04 	addi	r2,r2,4204
 8000740:	10c00035 	stwio	r3,0(r2)
		break;
 8000744:	0001883a 	nop
	}
	OSIntExit();
 8000748:	800f9a80 	call	800f9a8 <OSIntExit>
	//return;
}
 800074c:	0001883a 	nop
 8000750:	e037883a 	mov	sp,fp
 8000754:	dfc00117 	ldw	ra,4(sp)
 8000758:	df000017 	ldw	fp,0(sp)
 800075c:	dec00204 	addi	sp,sp,8
 8000760:	f800283a 	ret

08000764 <key1_isr>:

void key1_isr() {
 8000764:	defffe04 	addi	sp,sp,-8
 8000768:	dfc00115 	stw	ra,4(sp)
 800076c:	df000015 	stw	fp,0(sp)
 8000770:	d839883a 	mov	fp,sp
	//printf("\nISR - KEY 1 PRESSED\n");
	shootBullet();
 8000774:	80002900 	call	8000290 <shootBullet>
	// Reset edge capture register
	IOWR_ALTERA_AVALON_PIO_EDGE_CAP(KEYS_BASE, 0x00);
 8000778:	0007883a 	mov	r3,zero
 800077c:	00800834 	movhi	r2,32
 8000780:	10841b04 	addi	r2,r2,4204
 8000784:	10c00035 	stwio	r3,0(r2)
	// Read the PIO to delay the ISR's exit
	IORD_ALTERA_AVALON_PIO_EDGE_CAP(KEYS_BASE);
 8000788:	00800834 	movhi	r2,32
 800078c:	10841b04 	addi	r2,r2,4204
 8000790:	10800037 	ldwio	r2,0(r2)

	return;
 8000794:	0001883a 	nop
}
 8000798:	e037883a 	mov	sp,fp
 800079c:	dfc00117 	ldw	ra,4(sp)
 80007a0:	df000017 	ldw	fp,0(sp)
 80007a4:	dec00204 	addi	sp,sp,8
 80007a8:	f800283a 	ret

080007ac <key2_isr>:

void key2_isr() {
 80007ac:	defffe04 	addi	sp,sp,-8
 80007b0:	dfc00115 	stw	ra,4(sp)
 80007b4:	df000015 	stw	fp,0(sp)
 80007b8:	d839883a 	mov	fp,sp
	//printf("\nISR - KEY 2 PRESSED\n");
	movePlayer(1);
 80007bc:	01000044 	movi	r4,1
 80007c0:	80004040 	call	8000404 <movePlayer>
	// Reset edge capture register
	IOWR_ALTERA_AVALON_PIO_EDGE_CAP(KEYS_BASE, 0x00);
 80007c4:	0007883a 	mov	r3,zero
 80007c8:	00800834 	movhi	r2,32
 80007cc:	10841b04 	addi	r2,r2,4204
 80007d0:	10c00035 	stwio	r3,0(r2)
	// Read the PIO to delay the ISR's exit
	IORD_ALTERA_AVALON_PIO_EDGE_CAP(KEYS_BASE);
 80007d4:	00800834 	movhi	r2,32
 80007d8:	10841b04 	addi	r2,r2,4204
 80007dc:	10800037 	ldwio	r2,0(r2)

	return;
 80007e0:	0001883a 	nop
}
 80007e4:	e037883a 	mov	sp,fp
 80007e8:	dfc00117 	ldw	ra,4(sp)
 80007ec:	df000017 	ldw	fp,0(sp)
 80007f0:	dec00204 	addi	sp,sp,8
 80007f4:	f800283a 	ret

080007f8 <key3_isr>:

void key3_isr() {
 80007f8:	defffe04 	addi	sp,sp,-8
 80007fc:	dfc00115 	stw	ra,4(sp)
 8000800:	df000015 	stw	fp,0(sp)
 8000804:	d839883a 	mov	fp,sp
	//printf("\nISR - KEY 3 PRESSED\n");
	movePlayer(0);
 8000808:	0009883a 	mov	r4,zero
 800080c:	80004040 	call	8000404 <movePlayer>
	// Reset edge capture register
	IOWR_ALTERA_AVALON_PIO_EDGE_CAP(KEYS_BASE, 0x00);
 8000810:	0007883a 	mov	r3,zero
 8000814:	00800834 	movhi	r2,32
 8000818:	10841b04 	addi	r2,r2,4204
 800081c:	10c00035 	stwio	r3,0(r2)
	// Read the PIO to delay the ISR's exit
	IORD_ALTERA_AVALON_PIO_EDGE_CAP(KEYS_BASE);
 8000820:	00800834 	movhi	r2,32
 8000824:	10841b04 	addi	r2,r2,4204
 8000828:	10800037 	ldwio	r2,0(r2)

	return;
 800082c:	0001883a 	nop
}
 8000830:	e037883a 	mov	sp,fp
 8000834:	dfc00117 	ldw	ra,4(sp)
 8000838:	df000017 	ldw	fp,0(sp)
 800083c:	dec00204 	addi	sp,sp,8
 8000840:	f800283a 	ret

08000844 <main>:

/* The main function creates two task and starts multi-tasking */
int main(void)
{
 8000844:	defff304 	addi	sp,sp,-52
 8000848:	dfc00c15 	stw	ra,48(sp)
 800084c:	df000b15 	stw	fp,44(sp)
 8000850:	df000b04 	addi	fp,sp,44
  INT8U err;

  char hello[] = "Hello" ;
 8000854:	00801204 	movi	r2,72
 8000858:	e0bffe45 	stb	r2,-7(fp)
 800085c:	00801944 	movi	r2,101
 8000860:	e0bffe85 	stb	r2,-6(fp)
 8000864:	00801b04 	movi	r2,108
 8000868:	e0bffec5 	stb	r2,-5(fp)
 800086c:	00801b04 	movi	r2,108
 8000870:	e0bfff05 	stb	r2,-4(fp)
 8000874:	00801bc4 	movi	r2,111
 8000878:	e0bfff45 	stb	r2,-3(fp)
 800087c:	e03fff85 	stb	zero,-2(fp)
  display_init();
 8000880:	8000c300 	call	8000c30 <display_init>
  //timer_init(second);
  pio_init();
 8000884:	80006440 	call	8000644 <pio_init>

  IOWR(LEDS_BASE, 0, 0);
 8000888:	0007883a 	mov	r3,zero
 800088c:	00800834 	movhi	r2,32
 8000890:	10840804 	addi	r2,r2,4128
 8000894:	10c00035 	stwio	r3,0(r2)
  printf("Main init\n");
 8000898:	010200b4 	movhi	r4,2050
 800089c:	21284204 	addi	r4,r4,-24312
 80008a0:	8001a180 	call	8001a18 <puts>

  //IOWR_8DIRECT(LCD_BASE, ALT_UP_CHARACTER_LCD_DATA_REG, character);
  IOWR_ALT_UP_CHARACTER_LCD_COMMAND(LCD_BASE, 0x40);
 80008a4:	00c01004 	movi	r3,64
 80008a8:	00840404 	movi	r2,4112
 80008ac:	10c00025 	stbio	r3,0(r2)
  for (int i = 0; i < 8; ++i) {
 80008b0:	e03ffa15 	stw	zero,-24(fp)
 80008b4:	00000c06 	br	80008e8 <main+0xa4>
	  IOWR_ALT_UP_CHARACTER_LCD_DATA(LCD_BASE, player_still[i]);
 80008b8:	008200b4 	movhi	r2,2050
 80008bc:	10a9ac04 	addi	r2,r2,-22864
 80008c0:	e0fffa17 	ldw	r3,-24(fp)
 80008c4:	18c7883a 	add	r3,r3,r3
 80008c8:	18c7883a 	add	r3,r3,r3
 80008cc:	10c5883a 	add	r2,r2,r3
 80008d0:	10c00017 	ldw	r3,0(r2)
 80008d4:	00840444 	movi	r2,4113
 80008d8:	10c00025 	stbio	r3,0(r2)
  IOWR(LEDS_BASE, 0, 0);
  printf("Main init\n");

  //IOWR_8DIRECT(LCD_BASE, ALT_UP_CHARACTER_LCD_DATA_REG, character);
  IOWR_ALT_UP_CHARACTER_LCD_COMMAND(LCD_BASE, 0x40);
  for (int i = 0; i < 8; ++i) {
 80008dc:	e0bffa17 	ldw	r2,-24(fp)
 80008e0:	10800044 	addi	r2,r2,1
 80008e4:	e0bffa15 	stw	r2,-24(fp)
 80008e8:	e0bffa17 	ldw	r2,-24(fp)
 80008ec:	10800210 	cmplti	r2,r2,8
 80008f0:	103ff11e 	bne	r2,zero,80008b8 <__alt_data_end+0xf80008b8>
	  IOWR_ALT_UP_CHARACTER_LCD_DATA(LCD_BASE, player_still[i]);
  }

  IOWR_ALT_UP_CHARACTER_LCD_COMMAND(LCD_BASE, 0x48);
 80008f4:	00c01204 	movi	r3,72
 80008f8:	00840404 	movi	r2,4112
 80008fc:	10c00025 	stbio	r3,0(r2)
  for (int i = 0; i < 8; ++i) {
 8000900:	e03ffb15 	stw	zero,-20(fp)
 8000904:	00000c06 	br	8000938 <main+0xf4>
	  IOWR_ALT_UP_CHARACTER_LCD_DATA(LCD_BASE, player_walk[i]);
 8000908:	008200b4 	movhi	r2,2050
 800090c:	10a9b404 	addi	r2,r2,-22832
 8000910:	e0fffb17 	ldw	r3,-20(fp)
 8000914:	18c7883a 	add	r3,r3,r3
 8000918:	18c7883a 	add	r3,r3,r3
 800091c:	10c5883a 	add	r2,r2,r3
 8000920:	10c00017 	ldw	r3,0(r2)
 8000924:	00840444 	movi	r2,4113
 8000928:	10c00025 	stbio	r3,0(r2)
  for (int i = 0; i < 8; ++i) {
	  IOWR_ALT_UP_CHARACTER_LCD_DATA(LCD_BASE, player_still[i]);
  }

  IOWR_ALT_UP_CHARACTER_LCD_COMMAND(LCD_BASE, 0x48);
  for (int i = 0; i < 8; ++i) {
 800092c:	e0bffb17 	ldw	r2,-20(fp)
 8000930:	10800044 	addi	r2,r2,1
 8000934:	e0bffb15 	stw	r2,-20(fp)
 8000938:	e0bffb17 	ldw	r2,-20(fp)
 800093c:	10800210 	cmplti	r2,r2,8
 8000940:	103ff11e 	bne	r2,zero,8000908 <__alt_data_end+0xf8000908>
	  IOWR_ALT_UP_CHARACTER_LCD_DATA(LCD_BASE, player_walk[i]);
  }

  IOWR_ALT_UP_CHARACTER_LCD_COMMAND(LCD_BASE, 0x56);
 8000944:	00c01584 	movi	r3,86
 8000948:	00840404 	movi	r2,4112
 800094c:	10c00025 	stbio	r3,0(r2)
  for (int i = 0; i < 8; ++i){
 8000950:	e03ffc15 	stw	zero,-16(fp)
 8000954:	00000c06 	br	8000988 <main+0x144>
	  IOWR_ALT_UP_CHARACTER_LCD_DATA(LCD_BASE, bullet_move[i]);
 8000958:	008200b4 	movhi	r2,2050
 800095c:	10a9cc04 	addi	r2,r2,-22736
 8000960:	e0fffc17 	ldw	r3,-16(fp)
 8000964:	18c7883a 	add	r3,r3,r3
 8000968:	18c7883a 	add	r3,r3,r3
 800096c:	10c5883a 	add	r2,r2,r3
 8000970:	10c00017 	ldw	r3,0(r2)
 8000974:	00840444 	movi	r2,4113
 8000978:	10c00025 	stbio	r3,0(r2)
  for (int i = 0; i < 8; ++i) {
	  IOWR_ALT_UP_CHARACTER_LCD_DATA(LCD_BASE, player_walk[i]);
  }

  IOWR_ALT_UP_CHARACTER_LCD_COMMAND(LCD_BASE, 0x56);
  for (int i = 0; i < 8; ++i){
 800097c:	e0bffc17 	ldw	r2,-16(fp)
 8000980:	10800044 	addi	r2,r2,1
 8000984:	e0bffc15 	stw	r2,-16(fp)
 8000988:	e0bffc17 	ldw	r2,-16(fp)
 800098c:	10800210 	cmplti	r2,r2,8
 8000990:	103ff11e 	bne	r2,zero,8000958 <__alt_data_end+0xf8000958>
	  IOWR_ALT_UP_CHARACTER_LCD_DATA(LCD_BASE, bullet_move[i]);
  }

  IOWR_ALT_UP_CHARACTER_LCD_COMMAND(LCD_BASE, 0x64);
 8000994:	00c01904 	movi	r3,100
 8000998:	00840404 	movi	r2,4112
 800099c:	10c00025 	stbio	r3,0(r2)
  for (int i = 0; i < 8; ++i)
 80009a0:	e03ffd15 	stw	zero,-12(fp)
 80009a4:	00000c06 	br	80009d8 <main+0x194>
  {
	  IOWR_ALT_UP_CHARACTER_LCD_DATA(LCD_BASE, bullet_move[i]);
 80009a8:	008200b4 	movhi	r2,2050
 80009ac:	10a9cc04 	addi	r2,r2,-22736
 80009b0:	e0fffd17 	ldw	r3,-12(fp)
 80009b4:	18c7883a 	add	r3,r3,r3
 80009b8:	18c7883a 	add	r3,r3,r3
 80009bc:	10c5883a 	add	r2,r2,r3
 80009c0:	10c00017 	ldw	r3,0(r2)
 80009c4:	00840444 	movi	r2,4113
 80009c8:	10c00025 	stbio	r3,0(r2)
  for (int i = 0; i < 8; ++i){
	  IOWR_ALT_UP_CHARACTER_LCD_DATA(LCD_BASE, bullet_move[i]);
  }

  IOWR_ALT_UP_CHARACTER_LCD_COMMAND(LCD_BASE, 0x64);
  for (int i = 0; i < 8; ++i)
 80009cc:	e0bffd17 	ldw	r2,-12(fp)
 80009d0:	10800044 	addi	r2,r2,1
 80009d4:	e0bffd15 	stw	r2,-12(fp)
 80009d8:	e0bffd17 	ldw	r2,-12(fp)
 80009dc:	10800210 	cmplti	r2,r2,8
 80009e0:	103ff11e 	bne	r2,zero,80009a8 <__alt_data_end+0xf80009a8>
	  IOWR_ALT_UP_CHARACTER_LCD_DATA(LCD_BASE, bullet_move[i]);
  }


  // Set DDRAM address back to the start (cursor position)
  IOWR_ALT_UP_CHARACTER_LCD_COMMAND(LCD_BASE, ALT_UP_CHARACTER_LCD_COMM_RETURN_HOME);
 80009e4:	00c00084 	movi	r3,2
 80009e8:	00840404 	movi	r2,4112
 80009ec:	10c00025 	stbio	r3,0(r2)
  IOWR_ALT_UP_CHARACTER_LCD_COMMAND(LCD_BASE, 0x0c);
 80009f0:	00c00304 	movi	r3,12
 80009f4:	00840404 	movi	r2,4112
 80009f8:	10c00025 	stbio	r3,0(r2)



  ledMutex = OSMutexCreate(0, &err);  // Create a mutex for controlling access to the LED resource
 80009fc:	e0bffe04 	addi	r2,fp,-8
 8000a00:	100b883a 	mov	r5,r2
 8000a04:	0009883a 	mov	r4,zero
 8000a08:	80132440 	call	8013244 <OSMutexCreate>
 8000a0c:	d0a7bd15 	stw	r2,-24844(gp)
  OSTaskCreateExt(task1,
 8000a10:	d8000415 	stw	zero,16(sp)
 8000a14:	d8000315 	stw	zero,12(sp)
 8000a18:	00820004 	movi	r2,2048
 8000a1c:	d8800215 	stw	r2,8(sp)
 8000a20:	008200b4 	movhi	r2,2050
 8000a24:	10b88b04 	addi	r2,r2,-7636
 8000a28:	d8800115 	stw	r2,4(sp)
 8000a2c:	00800044 	movi	r2,1
 8000a30:	d8800015 	stw	r2,0(sp)
 8000a34:	01c00044 	movi	r7,1
 8000a38:	018200b4 	movhi	r6,2050
 8000a3c:	31808a04 	addi	r6,r6,552
 8000a40:	000b883a 	mov	r5,zero
 8000a44:	01020034 	movhi	r4,2048
 8000a48:	21014304 	addi	r4,r4,1292
 8000a4c:	80163b80 	call	80163b8 <OSTaskCreateExt>
                  TASK_STACKSIZE,
                  NULL,
                  0);
              
               
  OSTaskCreateExt(task2,
 8000a50:	d8000415 	stw	zero,16(sp)
 8000a54:	d8000315 	stw	zero,12(sp)
 8000a58:	00820004 	movi	r2,2048
 8000a5c:	d8800215 	stw	r2,8(sp)
 8000a60:	008200b4 	movhi	r2,2050
 8000a64:	10888b04 	addi	r2,r2,8748
 8000a68:	d8800115 	stw	r2,4(sp)
 8000a6c:	00800084 	movi	r2,2
 8000a70:	d8800015 	stw	r2,0(sp)
 8000a74:	01c00084 	movi	r7,2
 8000a78:	018200b4 	movhi	r6,2050
 8000a7c:	31908a04 	addi	r6,r6,16936
 8000a80:	000b883a 	mov	r5,zero
 8000a84:	01020034 	movhi	r4,2048
 8000a88:	21016a04 	addi	r4,r4,1448
 8000a8c:	80163b80 	call	80163b8 <OSTaskCreateExt>
		  	  	  TASK_STACKSIZE,
		  	  	  NULL,
		  	  	  0);
   */

  OSStart();
 8000a90:	800fc080 	call	800fc08 <OSStart>

  return 0;
 8000a94:	0005883a 	mov	r2,zero
}
 8000a98:	e037883a 	mov	sp,fp
 8000a9c:	dfc00117 	ldw	ra,4(sp)
 8000aa0:	df000017 	ldw	fp,0(sp)
 8000aa4:	dec00204 	addi	sp,sp,8
 8000aa8:	f800283a 	ret

08000aac <timer_isr>:

void timer_isr(void)
{
 8000aac:	defffe04 	addi	sp,sp,-8
 8000ab0:	dfc00115 	stw	ra,4(sp)
 8000ab4:	df000015 	stw	fp,0(sp)
 8000ab8:	d839883a 	mov	fp,sp
	OSIntEnter();
 8000abc:	800f95c0 	call	800f95c <OSIntEnter>
	printf("\ntimer isr called!\n");
 8000ac0:	010200b4 	movhi	r4,2050
 8000ac4:	21284504 	addi	r4,r4,-24300
 8000ac8:	8001a180 	call	8001a18 <puts>
	switch(flag_timer)
 8000acc:	d0a7b517 	ldw	r2,-24876(gp)
 8000ad0:	10000326 	beq	r2,zero,8000ae0 <timer_isr+0x34>
 8000ad4:	10800060 	cmpeqi	r2,r2,1
 8000ad8:	1000041e 	bne	r2,zero,8000aec <timer_isr+0x40>
 8000adc:	00000506 	br	8000af4 <timer_isr+0x48>
	{
	case 0: // wait state

		flag_timer = 1;
 8000ae0:	00800044 	movi	r2,1
 8000ae4:	d0a7b515 	stw	r2,-24876(gp)
		break;
 8000ae8:	00000206 	br	8000af4 <timer_isr+0x48>
	case 1:
		//IOWR_8DIRECT(LCD_BASE, ALT_UP_CHARACTER_LCD_DATA_REG,0x1);
		//IOWR_ALT_UP_CHARACTER_LCD_COMMAND(LCD_BASE, 0x10);
		flag_timer = 0;
 8000aec:	d027b515 	stw	zero,-24876(gp)
		break;
 8000af0:	0001883a 	nop
	}

	IOWR_ALTERA_AVALON_TIMER_CONTROL(SYSTEM_TIMER_BASE, 0x09); // Stop timer
 8000af4:	00c00244 	movi	r3,9
 8000af8:	00800834 	movhi	r2,32
 8000afc:	10843904 	addi	r2,r2,4324
 8000b00:	10c00035 	stwio	r3,0(r2)
	IOWR_ALTERA_AVALON_TIMER_STATUS(SYSTEM_TIMER_BASE, 0x0);	// Reset TO bit
 8000b04:	0007883a 	mov	r3,zero
 8000b08:	00800834 	movhi	r2,32
 8000b0c:	10843804 	addi	r2,r2,4320
 8000b10:	10c00035 	stwio	r3,0(r2)
	IOWR_ALTERA_AVALON_TIMER_CONTROL(SYSTEM_TIMER_BASE, 0x07); // Stop timer
 8000b14:	00c001c4 	movi	r3,7
 8000b18:	00800834 	movhi	r2,32
 8000b1c:	10843904 	addi	r2,r2,4324
 8000b20:	10c00035 	stwio	r3,0(r2)
	OSIntExit();
 8000b24:	800f9a80 	call	800f9a8 <OSIntExit>
	//return;
}
 8000b28:	0001883a 	nop
 8000b2c:	e037883a 	mov	sp,fp
 8000b30:	dfc00117 	ldw	ra,4(sp)
 8000b34:	df000017 	ldw	fp,0(sp)
 8000b38:	dec00204 	addi	sp,sp,8
 8000b3c:	f800283a 	ret

08000b40 <timer_init>:

static void timer_init(float n)
{ //timer initializer function
 8000b40:	defffb04 	addi	sp,sp,-20
 8000b44:	dfc00415 	stw	ra,16(sp)
 8000b48:	df000315 	stw	fp,12(sp)
 8000b4c:	df000304 	addi	fp,sp,12
 8000b50:	e13fff15 	stw	r4,-4(fp)
	void* time_capture_ptr = (void*) &time_capture;
 8000b54:	d0a7b904 	addi	r2,gp,-24860
 8000b58:	e0bffe15 	stw	r2,-8(fp)
	clock_period = 0xC350 * n; //calculates period in terms of ms
 8000b5c:	0151d0f4 	movhi	r5,18243
 8000b60:	29540004 	addi	r5,r5,20480
 8000b64:	e13fff17 	ldw	r4,-4(fp)
 8000b68:	8000f380 	call	8000f38 <__mulsf3>
 8000b6c:	1007883a 	mov	r3,r2
 8000b70:	1805883a 	mov	r2,r3
 8000b74:	1009883a 	mov	r4,r2
 8000b78:	8000e1c0 	call	8000e1c <__fixunssfsi>
 8000b7c:	d0a7bb15 	stw	r2,-24852(gp)
	clock_period_l = clock_period & 0x0000ffff;
 8000b80:	d0a7bb17 	ldw	r2,-24852(gp)
 8000b84:	10bfffcc 	andi	r2,r2,65535
 8000b88:	d0a00315 	stw	r2,-32756(gp)
	clock_period = clock_period >> 16;
 8000b8c:	d0a7bb17 	ldw	r2,-24852(gp)
 8000b90:	1004d43a 	srli	r2,r2,16
 8000b94:	d0a7bb15 	stw	r2,-24852(gp)
	clock_period_h = clock_period & 0xffff;
 8000b98:	d0a7bb17 	ldw	r2,-24852(gp)
 8000b9c:	10bfffcc 	andi	r2,r2,65535
 8000ba0:	d0a00415 	stw	r2,-32752(gp)
	IOWR_ALTERA_AVALON_TIMER_CONTROL(SYSTEM_TIMER_BASE,0x9);
 8000ba4:	00c00244 	movi	r3,9
 8000ba8:	00800834 	movhi	r2,32
 8000bac:	10843904 	addi	r2,r2,4324
 8000bb0:	10c00035 	stwio	r3,0(r2)
	IOWR_ALTERA_AVALON_TIMER_PERIODL(SYSTEM_TIMER_BASE,clock_period_l); //0xb280
 8000bb4:	d0a00317 	ldw	r2,-32756(gp)
 8000bb8:	1007883a 	mov	r3,r2
 8000bbc:	00800834 	movhi	r2,32
 8000bc0:	10843a04 	addi	r2,r2,4328
 8000bc4:	10c00035 	stwio	r3,0(r2)
	IOWR_ALTERA_AVALON_TIMER_PERIODH(SYSTEM_TIMER_BASE,clock_period_h); //0x0EE6
 8000bc8:	d0a00417 	ldw	r2,-32752(gp)
 8000bcc:	1007883a 	mov	r3,r2
 8000bd0:	00800834 	movhi	r2,32
 8000bd4:	10843b04 	addi	r2,r2,4332
 8000bd8:	10c00035 	stwio	r3,0(r2)
	IOWR_ALTERA_AVALON_TIMER_STATUS(SYSTEM_TIMER_BASE,0x0);
 8000bdc:	0007883a 	mov	r3,zero
 8000be0:	00800834 	movhi	r2,32
 8000be4:	10843804 	addi	r2,r2,4320
 8000be8:	10c00035 	stwio	r3,0(r2)
	alt_ic_isr_register(SYSTEM_TIMER_IRQ_INTERRUPT_CONTROLLER_ID, SYSTEM_TIMER_IRQ, timer_isr, time_capture_ptr, 0x0);
 8000bec:	d8000015 	stw	zero,0(sp)
 8000bf0:	e1fffe17 	ldw	r7,-8(fp)
 8000bf4:	01820034 	movhi	r6,2048
 8000bf8:	3182ab04 	addi	r6,r6,2732
 8000bfc:	01400044 	movi	r5,1
 8000c00:	0009883a 	mov	r4,zero
 8000c04:	800e3cc0 	call	800e3cc <alt_ic_isr_register>
	IOWR_ALTERA_AVALON_TIMER_CONTROL(SYSTEM_TIMER_BASE,0x5);
 8000c08:	00c00144 	movi	r3,5
 8000c0c:	00800834 	movhi	r2,32
 8000c10:	10843904 	addi	r2,r2,4324
 8000c14:	10c00035 	stwio	r3,0(r2)
}
 8000c18:	0001883a 	nop
 8000c1c:	e037883a 	mov	sp,fp
 8000c20:	dfc00117 	ldw	ra,4(sp)
 8000c24:	df000017 	ldw	fp,0(sp)
 8000c28:	dec00204 	addi	sp,sp,8
 8000c2c:	f800283a 	ret

08000c30 <display_init>:


void display_init()
{//function to shut off seven segment display
 8000c30:	defffc04 	addi	sp,sp,-16
 8000c34:	dfc00315 	stw	ra,12(sp)
 8000c38:	df000215 	stw	fp,8(sp)
 8000c3c:	df000204 	addi	fp,sp,8
	printf("\ndisplay_init\n");
 8000c40:	010200b4 	movhi	r4,2050
 8000c44:	21284a04 	addi	r4,r4,-24280
 8000c48:	8001a180 	call	8001a18 <puts>
	INT8U err;
	int hex_off = 0xff;
 8000c4c:	00803fc4 	movi	r2,255
 8000c50:	e0bffe15 	stw	r2,-8(fp)
    OSMutexPend(lcdMutex, 0, &err);
 8000c54:	d0a7bf17 	ldw	r2,-24836(gp)
 8000c58:	e0ffff04 	addi	r3,fp,-4
 8000c5c:	180d883a 	mov	r6,r3
 8000c60:	000b883a 	mov	r5,zero
 8000c64:	1009883a 	mov	r4,r2
 8000c68:	80137080 	call	8013708 <OSMutexPend>
	IOWR_8DIRECT(SEVEN_SEG_0_BASE,0,hex_off);
 8000c6c:	00800834 	movhi	r2,32
 8000c70:	10843404 	addi	r2,r2,4304
 8000c74:	e0fffe03 	ldbu	r3,-8(fp)
 8000c78:	10c00025 	stbio	r3,0(r2)
	IOWR_8DIRECT(SEVEN_SEG_1_BASE,0,hex_off);
 8000c7c:	00800834 	movhi	r2,32
 8000c80:	10843004 	addi	r2,r2,4288
 8000c84:	e0fffe03 	ldbu	r3,-8(fp)
 8000c88:	10c00025 	stbio	r3,0(r2)
	IOWR_8DIRECT(SEVEN_SEG_2_BASE,0,hex_off);
 8000c8c:	00800834 	movhi	r2,32
 8000c90:	10842c04 	addi	r2,r2,4272
 8000c94:	e0fffe03 	ldbu	r3,-8(fp)
 8000c98:	10c00025 	stbio	r3,0(r2)
	IOWR_8DIRECT(SEVEN_SEG_3_BASE,0,hex_off);
 8000c9c:	00800834 	movhi	r2,32
 8000ca0:	10842804 	addi	r2,r2,4256
 8000ca4:	e0fffe03 	ldbu	r3,-8(fp)
 8000ca8:	10c00025 	stbio	r3,0(r2)
	IOWR_8DIRECT(SEVEN_SEG_4_BASE,0,hex_off);
 8000cac:	00800834 	movhi	r2,32
 8000cb0:	10842404 	addi	r2,r2,4240
 8000cb4:	e0fffe03 	ldbu	r3,-8(fp)
 8000cb8:	10c00025 	stbio	r3,0(r2)
	IOWR_8DIRECT(SEVEN_SEG_5_BASE,0,hex_off);
 8000cbc:	00800834 	movhi	r2,32
 8000cc0:	10842004 	addi	r2,r2,4224
 8000cc4:	e0fffe03 	ldbu	r3,-8(fp)
 8000cc8:	10c00025 	stbio	r3,0(r2)
	IOWR_8DIRECT(SEVEN_SEG_6_BASE,0,hex_off);
 8000ccc:	00800834 	movhi	r2,32
 8000cd0:	10841c04 	addi	r2,r2,4208
 8000cd4:	e0fffe03 	ldbu	r3,-8(fp)
 8000cd8:	10c00025 	stbio	r3,0(r2)
	IOWR_8DIRECT(SEVEN_SEG_7_BASE,0,hex_off);
 8000cdc:	00840004 	movi	r2,4096
 8000ce0:	e0fffe03 	ldbu	r3,-8(fp)
 8000ce4:	10c00025 	stbio	r3,0(r2)
    OSMutexPost(lcdMutex);
 8000ce8:	d0a7bf17 	ldw	r2,-24836(gp)
 8000cec:	1009883a 	mov	r4,r2
 8000cf0:	8013ca40 	call	8013ca4 <OSMutexPost>
};
 8000cf4:	0001883a 	nop
 8000cf8:	e037883a 	mov	sp,fp
 8000cfc:	dfc00117 	ldw	ra,4(sp)
 8000d00:	df000017 	ldw	fp,0(sp)
 8000d04:	dec00204 	addi	sp,sp,8
 8000d08:	f800283a 	ret

08000d0c <printword>:

void printword(char string[]){//display text to the seven segment
 8000d0c:	defff704 	addi	sp,sp,-36
 8000d10:	dfc00815 	stw	ra,32(sp)
 8000d14:	df000715 	stw	fp,28(sp)
 8000d18:	df000704 	addi	fp,sp,28
 8000d1c:	e13fff15 	stw	r4,-4(fp)
	display_init();
 8000d20:	8000c300 	call	8000c30 <display_init>
	int len = strlen(string);
 8000d24:	e13fff17 	ldw	r4,-4(fp)
 8000d28:	8001a2c0 	call	8001a2c <strlen>
 8000d2c:	e0bffd15 	stw	r2,-12(fp)
	char temp_1 = '!'; // holds char of string
 8000d30:	00800844 	movi	r2,33
 8000d34:	e0bffe05 	stb	r2,-8(fp)
	char temp_2 = '!'; // finds same char form alpha pattern array
 8000d38:	00800844 	movi	r2,33
 8000d3c:	e0bffe45 	stb	r2,-7(fp)
	int hex_out = 0;
 8000d40:	e03ff915 	stw	zero,-28(fp)
	int offset = 0;
 8000d44:	e03ffa15 	stw	zero,-24(fp)

	for(int i = 0; i<len;i++)
 8000d48:	e03ffb15 	stw	zero,-20(fp)
 8000d4c:	00002a06 	br	8000df8 <printword+0xec>
	{
		temp_1 = string[i]; // gets the current char of the string
 8000d50:	e0bffb17 	ldw	r2,-20(fp)
 8000d54:	e0ffff17 	ldw	r3,-4(fp)
 8000d58:	1885883a 	add	r2,r3,r2
 8000d5c:	10800003 	ldbu	r2,0(r2)
 8000d60:	e0bffe05 	stb	r2,-8(fp)
		for(int j = 0;j<26;j++)
 8000d64:	e03ffc15 	stw	zero,-16(fp)
 8000d68:	00001606 	br	8000dc4 <printword+0xb8>
		{
			temp_2 = sevseg_list[j].value_alpha;
 8000d6c:	008200b4 	movhi	r2,2050
 8000d70:	10a97004 	addi	r2,r2,-23104
 8000d74:	e0fffc17 	ldw	r3,-16(fp)
 8000d78:	180690fa 	slli	r3,r3,3
 8000d7c:	10c5883a 	add	r2,r2,r3
 8000d80:	10800104 	addi	r2,r2,4
 8000d84:	10800003 	ldbu	r2,0(r2)
 8000d88:	e0bffe45 	stb	r2,-7(fp)
			if (temp_1 == temp_2)
 8000d8c:	e0fffe07 	ldb	r3,-8(fp)
 8000d90:	e0bffe47 	ldb	r2,-7(fp)
 8000d94:	1880081e 	bne	r3,r2,8000db8 <printword+0xac>
			{
				hex_out = (sevseg_list[j].value_hex);
 8000d98:	008200b4 	movhi	r2,2050
 8000d9c:	10a97004 	addi	r2,r2,-23104
 8000da0:	e0fffc17 	ldw	r3,-16(fp)
 8000da4:	180690fa 	slli	r3,r3,3
 8000da8:	10c5883a 	add	r2,r2,r3
 8000dac:	10800017 	ldw	r2,0(r2)
 8000db0:	e0bff915 	stw	r2,-28(fp)
				break;
 8000db4:	00000606 	br	8000dd0 <printword+0xc4>
	int offset = 0;

	for(int i = 0; i<len;i++)
	{
		temp_1 = string[i]; // gets the current char of the string
		for(int j = 0;j<26;j++)
 8000db8:	e0bffc17 	ldw	r2,-16(fp)
 8000dbc:	10800044 	addi	r2,r2,1
 8000dc0:	e0bffc15 	stw	r2,-16(fp)
 8000dc4:	e0bffc17 	ldw	r2,-16(fp)
 8000dc8:	10800690 	cmplti	r2,r2,26
 8000dcc:	103fe71e 	bne	r2,zero,8000d6c <__alt_data_end+0xf8000d6c>
				hex_out = (sevseg_list[j].value_hex);
				break;
			}
		}

		IOWR_8DIRECT(SEVEN_SEG_7_BASE,offset,hex_out);
 8000dd0:	e0bffa17 	ldw	r2,-24(fp)
 8000dd4:	10840004 	addi	r2,r2,4096
 8000dd8:	e0fff903 	ldbu	r3,-28(fp)
 8000ddc:	10c00025 	stbio	r3,0(r2)
		offset = offset + 16;
 8000de0:	e0bffa17 	ldw	r2,-24(fp)
 8000de4:	10800404 	addi	r2,r2,16
 8000de8:	e0bffa15 	stw	r2,-24(fp)
	char temp_1 = '!'; // holds char of string
	char temp_2 = '!'; // finds same char form alpha pattern array
	int hex_out = 0;
	int offset = 0;

	for(int i = 0; i<len;i++)
 8000dec:	e0bffb17 	ldw	r2,-20(fp)
 8000df0:	10800044 	addi	r2,r2,1
 8000df4:	e0bffb15 	stw	r2,-20(fp)
 8000df8:	e0fffb17 	ldw	r3,-20(fp)
 8000dfc:	e0bffd17 	ldw	r2,-12(fp)
 8000e00:	18bfd316 	blt	r3,r2,8000d50 <__alt_data_end+0xf8000d50>

		IOWR_8DIRECT(SEVEN_SEG_7_BASE,offset,hex_out);
		offset = offset + 16;
	}

}
 8000e04:	0001883a 	nop
 8000e08:	e037883a 	mov	sp,fp
 8000e0c:	dfc00117 	ldw	ra,4(sp)
 8000e10:	df000017 	ldw	fp,0(sp)
 8000e14:	dec00204 	addi	sp,sp,8
 8000e18:	f800283a 	ret

08000e1c <__fixunssfsi>:
 8000e1c:	defffd04 	addi	sp,sp,-12
 8000e20:	dc000015 	stw	r16,0(sp)
 8000e24:	0413c034 	movhi	r16,20224
 8000e28:	800b883a 	mov	r5,r16
 8000e2c:	dc400115 	stw	r17,4(sp)
 8000e30:	dfc00215 	stw	ra,8(sp)
 8000e34:	2023883a 	mov	r17,r4
 8000e38:	8000e7c0 	call	8000e7c <__gesf2>
 8000e3c:	1000070e 	bge	r2,zero,8000e5c <__fixunssfsi+0x40>
 8000e40:	8809883a 	mov	r4,r17
 8000e44:	80018180 	call	8001818 <__fixsfsi>
 8000e48:	dfc00217 	ldw	ra,8(sp)
 8000e4c:	dc400117 	ldw	r17,4(sp)
 8000e50:	dc000017 	ldw	r16,0(sp)
 8000e54:	dec00304 	addi	sp,sp,12
 8000e58:	f800283a 	ret
 8000e5c:	800b883a 	mov	r5,r16
 8000e60:	8809883a 	mov	r4,r17
 8000e64:	80013340 	call	8001334 <__subsf3>
 8000e68:	1009883a 	mov	r4,r2
 8000e6c:	80018180 	call	8001818 <__fixsfsi>
 8000e70:	00e00034 	movhi	r3,32768
 8000e74:	10c5883a 	add	r2,r2,r3
 8000e78:	003ff306 	br	8000e48 <__alt_data_end+0xf8000e48>

08000e7c <__gesf2>:
 8000e7c:	2004d5fa 	srli	r2,r4,23
 8000e80:	2806d5fa 	srli	r3,r5,23
 8000e84:	01802034 	movhi	r6,128
 8000e88:	31bfffc4 	addi	r6,r6,-1
 8000e8c:	10803fcc 	andi	r2,r2,255
 8000e90:	01c03fc4 	movi	r7,255
 8000e94:	3110703a 	and	r8,r6,r4
 8000e98:	18c03fcc 	andi	r3,r3,255
 8000e9c:	314c703a 	and	r6,r6,r5
 8000ea0:	2008d7fa 	srli	r4,r4,31
 8000ea4:	280ad7fa 	srli	r5,r5,31
 8000ea8:	11c01926 	beq	r2,r7,8000f10 <__gesf2+0x94>
 8000eac:	01c03fc4 	movi	r7,255
 8000eb0:	19c00f26 	beq	r3,r7,8000ef0 <__gesf2+0x74>
 8000eb4:	1000061e 	bne	r2,zero,8000ed0 <__gesf2+0x54>
 8000eb8:	400f003a 	cmpeq	r7,r8,zero
 8000ebc:	1800071e 	bne	r3,zero,8000edc <__gesf2+0x60>
 8000ec0:	3000061e 	bne	r6,zero,8000edc <__gesf2+0x60>
 8000ec4:	0005883a 	mov	r2,zero
 8000ec8:	40000e1e 	bne	r8,zero,8000f04 <__gesf2+0x88>
 8000ecc:	f800283a 	ret
 8000ed0:	18000a1e 	bne	r3,zero,8000efc <__gesf2+0x80>
 8000ed4:	30000b26 	beq	r6,zero,8000f04 <__gesf2+0x88>
 8000ed8:	000f883a 	mov	r7,zero
 8000edc:	29403fcc 	andi	r5,r5,255
 8000ee0:	38000726 	beq	r7,zero,8000f00 <__gesf2+0x84>
 8000ee4:	28000826 	beq	r5,zero,8000f08 <__gesf2+0x8c>
 8000ee8:	00800044 	movi	r2,1
 8000eec:	f800283a 	ret
 8000ef0:	303ff026 	beq	r6,zero,8000eb4 <__alt_data_end+0xf8000eb4>
 8000ef4:	00bfff84 	movi	r2,-2
 8000ef8:	f800283a 	ret
 8000efc:	29403fcc 	andi	r5,r5,255
 8000f00:	21400526 	beq	r4,r5,8000f18 <__gesf2+0x9c>
 8000f04:	203ff826 	beq	r4,zero,8000ee8 <__alt_data_end+0xf8000ee8>
 8000f08:	00bfffc4 	movi	r2,-1
 8000f0c:	f800283a 	ret
 8000f10:	403fe626 	beq	r8,zero,8000eac <__alt_data_end+0xf8000eac>
 8000f14:	003ff706 	br	8000ef4 <__alt_data_end+0xf8000ef4>
 8000f18:	18bffa16 	blt	r3,r2,8000f04 <__alt_data_end+0xf8000f04>
 8000f1c:	10c00216 	blt	r2,r3,8000f28 <__gesf2+0xac>
 8000f20:	323ff836 	bltu	r6,r8,8000f04 <__alt_data_end+0xf8000f04>
 8000f24:	4180022e 	bgeu	r8,r6,8000f30 <__gesf2+0xb4>
 8000f28:	203fef1e 	bne	r4,zero,8000ee8 <__alt_data_end+0xf8000ee8>
 8000f2c:	003ff606 	br	8000f08 <__alt_data_end+0xf8000f08>
 8000f30:	0005883a 	mov	r2,zero
 8000f34:	f800283a 	ret

08000f38 <__mulsf3>:
 8000f38:	defff504 	addi	sp,sp,-44
 8000f3c:	dc000115 	stw	r16,4(sp)
 8000f40:	2020d5fa 	srli	r16,r4,23
 8000f44:	dd400615 	stw	r21,24(sp)
 8000f48:	202ad7fa 	srli	r21,r4,31
 8000f4c:	dc800315 	stw	r18,12(sp)
 8000f50:	04802034 	movhi	r18,128
 8000f54:	df000915 	stw	fp,36(sp)
 8000f58:	dd000515 	stw	r20,20(sp)
 8000f5c:	94bfffc4 	addi	r18,r18,-1
 8000f60:	dfc00a15 	stw	ra,40(sp)
 8000f64:	ddc00815 	stw	r23,32(sp)
 8000f68:	dd800715 	stw	r22,28(sp)
 8000f6c:	dcc00415 	stw	r19,16(sp)
 8000f70:	dc400215 	stw	r17,8(sp)
 8000f74:	84003fcc 	andi	r16,r16,255
 8000f78:	9124703a 	and	r18,r18,r4
 8000f7c:	a829883a 	mov	r20,r21
 8000f80:	af003fcc 	andi	fp,r21,255
 8000f84:	80005426 	beq	r16,zero,80010d8 <__mulsf3+0x1a0>
 8000f88:	00803fc4 	movi	r2,255
 8000f8c:	80802f26 	beq	r16,r2,800104c <__mulsf3+0x114>
 8000f90:	91002034 	orhi	r4,r18,128
 8000f94:	202490fa 	slli	r18,r4,3
 8000f98:	843fe044 	addi	r16,r16,-127
 8000f9c:	0023883a 	mov	r17,zero
 8000fa0:	002f883a 	mov	r23,zero
 8000fa4:	2804d5fa 	srli	r2,r5,23
 8000fa8:	282cd7fa 	srli	r22,r5,31
 8000fac:	01002034 	movhi	r4,128
 8000fb0:	213fffc4 	addi	r4,r4,-1
 8000fb4:	10803fcc 	andi	r2,r2,255
 8000fb8:	2166703a 	and	r19,r4,r5
 8000fbc:	b1803fcc 	andi	r6,r22,255
 8000fc0:	10004c26 	beq	r2,zero,80010f4 <__mulsf3+0x1bc>
 8000fc4:	00c03fc4 	movi	r3,255
 8000fc8:	10c04726 	beq	r2,r3,80010e8 <__mulsf3+0x1b0>
 8000fcc:	99002034 	orhi	r4,r19,128
 8000fd0:	202690fa 	slli	r19,r4,3
 8000fd4:	10bfe044 	addi	r2,r2,-127
 8000fd8:	0007883a 	mov	r3,zero
 8000fdc:	80a1883a 	add	r16,r16,r2
 8000fe0:	010003c4 	movi	r4,15
 8000fe4:	1c44b03a 	or	r2,r3,r17
 8000fe8:	b56af03a 	xor	r21,r22,r21
 8000fec:	81c00044 	addi	r7,r16,1
 8000ff0:	20806b36 	bltu	r4,r2,80011a0 <__mulsf3+0x268>
 8000ff4:	100490ba 	slli	r2,r2,2
 8000ff8:	01020034 	movhi	r4,2048
 8000ffc:	21040304 	addi	r4,r4,4108
 8001000:	1105883a 	add	r2,r2,r4
 8001004:	10800017 	ldw	r2,0(r2)
 8001008:	1000683a 	jmp	r2
 800100c:	080011a0 	cmpeqi	zero,at,70
 8001010:	08001060 	cmpeqi	zero,at,65
 8001014:	08001060 	cmpeqi	zero,at,65
 8001018:	0800105c 	xori	zero,at,65
 800101c:	08001184 	addi	zero,at,70
 8001020:	08001184 	addi	zero,at,70
 8001024:	08001170 	cmpltui	zero,at,69
 8001028:	0800105c 	xori	zero,at,65
 800102c:	08001184 	addi	zero,at,70
 8001030:	08001170 	cmpltui	zero,at,69
 8001034:	08001184 	addi	zero,at,70
 8001038:	0800105c 	xori	zero,at,65
 800103c:	08001190 	cmplti	zero,at,70
 8001040:	08001190 	cmplti	zero,at,70
 8001044:	08001190 	cmplti	zero,at,70
 8001048:	0800126c 	andhi	zero,at,73
 800104c:	90003b1e 	bne	r18,zero,800113c <__mulsf3+0x204>
 8001050:	04400204 	movi	r17,8
 8001054:	05c00084 	movi	r23,2
 8001058:	003fd206 	br	8000fa4 <__alt_data_end+0xf8000fa4>
 800105c:	302b883a 	mov	r21,r6
 8001060:	00800084 	movi	r2,2
 8001064:	18802626 	beq	r3,r2,8001100 <__mulsf3+0x1c8>
 8001068:	008000c4 	movi	r2,3
 800106c:	1880ab26 	beq	r3,r2,800131c <__mulsf3+0x3e4>
 8001070:	00800044 	movi	r2,1
 8001074:	1880a21e 	bne	r3,r2,8001300 <__mulsf3+0x3c8>
 8001078:	a829883a 	mov	r20,r21
 800107c:	0007883a 	mov	r3,zero
 8001080:	0009883a 	mov	r4,zero
 8001084:	18803fcc 	andi	r2,r3,255
 8001088:	100695fa 	slli	r3,r2,23
 800108c:	a0803fcc 	andi	r2,r20,255
 8001090:	100a97fa 	slli	r5,r2,31
 8001094:	00802034 	movhi	r2,128
 8001098:	10bfffc4 	addi	r2,r2,-1
 800109c:	2084703a 	and	r2,r4,r2
 80010a0:	10c4b03a 	or	r2,r2,r3
 80010a4:	1144b03a 	or	r2,r2,r5
 80010a8:	dfc00a17 	ldw	ra,40(sp)
 80010ac:	df000917 	ldw	fp,36(sp)
 80010b0:	ddc00817 	ldw	r23,32(sp)
 80010b4:	dd800717 	ldw	r22,28(sp)
 80010b8:	dd400617 	ldw	r21,24(sp)
 80010bc:	dd000517 	ldw	r20,20(sp)
 80010c0:	dcc00417 	ldw	r19,16(sp)
 80010c4:	dc800317 	ldw	r18,12(sp)
 80010c8:	dc400217 	ldw	r17,8(sp)
 80010cc:	dc000117 	ldw	r16,4(sp)
 80010d0:	dec00b04 	addi	sp,sp,44
 80010d4:	f800283a 	ret
 80010d8:	90000d1e 	bne	r18,zero,8001110 <__mulsf3+0x1d8>
 80010dc:	04400104 	movi	r17,4
 80010e0:	05c00044 	movi	r23,1
 80010e4:	003faf06 	br	8000fa4 <__alt_data_end+0xf8000fa4>
 80010e8:	9806c03a 	cmpne	r3,r19,zero
 80010ec:	18c00084 	addi	r3,r3,2
 80010f0:	003fba06 	br	8000fdc <__alt_data_end+0xf8000fdc>
 80010f4:	9800141e 	bne	r19,zero,8001148 <__mulsf3+0x210>
 80010f8:	00c00044 	movi	r3,1
 80010fc:	003fb706 	br	8000fdc <__alt_data_end+0xf8000fdc>
 8001100:	a829883a 	mov	r20,r21
 8001104:	00ffffc4 	movi	r3,-1
 8001108:	0009883a 	mov	r4,zero
 800110c:	003fdd06 	br	8001084 <__alt_data_end+0xf8001084>
 8001110:	9009883a 	mov	r4,r18
 8001114:	d9400015 	stw	r5,0(sp)
 8001118:	80018880 	call	8001888 <__clzsi2>
 800111c:	10fffec4 	addi	r3,r2,-5
 8001120:	10801d84 	addi	r2,r2,118
 8001124:	90e4983a 	sll	r18,r18,r3
 8001128:	00a1c83a 	sub	r16,zero,r2
 800112c:	0023883a 	mov	r17,zero
 8001130:	002f883a 	mov	r23,zero
 8001134:	d9400017 	ldw	r5,0(sp)
 8001138:	003f9a06 	br	8000fa4 <__alt_data_end+0xf8000fa4>
 800113c:	04400304 	movi	r17,12
 8001140:	05c000c4 	movi	r23,3
 8001144:	003f9706 	br	8000fa4 <__alt_data_end+0xf8000fa4>
 8001148:	9809883a 	mov	r4,r19
 800114c:	d9800015 	stw	r6,0(sp)
 8001150:	80018880 	call	8001888 <__clzsi2>
 8001154:	10fffec4 	addi	r3,r2,-5
 8001158:	10801d84 	addi	r2,r2,118
 800115c:	98e6983a 	sll	r19,r19,r3
 8001160:	0085c83a 	sub	r2,zero,r2
 8001164:	0007883a 	mov	r3,zero
 8001168:	d9800017 	ldw	r6,0(sp)
 800116c:	003f9b06 	br	8000fdc <__alt_data_end+0xf8000fdc>
 8001170:	01002034 	movhi	r4,128
 8001174:	0029883a 	mov	r20,zero
 8001178:	213fffc4 	addi	r4,r4,-1
 800117c:	00ffffc4 	movi	r3,-1
 8001180:	003fc006 	br	8001084 <__alt_data_end+0xf8001084>
 8001184:	9027883a 	mov	r19,r18
 8001188:	b807883a 	mov	r3,r23
 800118c:	003fb406 	br	8001060 <__alt_data_end+0xf8001060>
 8001190:	9027883a 	mov	r19,r18
 8001194:	e02b883a 	mov	r21,fp
 8001198:	b807883a 	mov	r3,r23
 800119c:	003fb006 	br	8001060 <__alt_data_end+0xf8001060>
 80011a0:	9004d43a 	srli	r2,r18,16
 80011a4:	9810d43a 	srli	r8,r19,16
 80011a8:	94bfffcc 	andi	r18,r18,65535
 80011ac:	993fffcc 	andi	r4,r19,65535
 80011b0:	910d383a 	mul	r6,r18,r4
 80011b4:	20a7383a 	mul	r19,r4,r2
 80011b8:	9225383a 	mul	r18,r18,r8
 80011bc:	3006d43a 	srli	r3,r6,16
 80011c0:	1211383a 	mul	r8,r2,r8
 80011c4:	94e5883a 	add	r18,r18,r19
 80011c8:	1c87883a 	add	r3,r3,r18
 80011cc:	1cc0022e 	bgeu	r3,r19,80011d8 <__mulsf3+0x2a0>
 80011d0:	00800074 	movhi	r2,1
 80011d4:	4091883a 	add	r8,r8,r2
 80011d8:	1804943a 	slli	r2,r3,16
 80011dc:	31bfffcc 	andi	r6,r6,65535
 80011e0:	1806d43a 	srli	r3,r3,16
 80011e4:	1185883a 	add	r2,r2,r6
 80011e8:	102691ba 	slli	r19,r2,6
 80011ec:	1a07883a 	add	r3,r3,r8
 80011f0:	1004d6ba 	srli	r2,r2,26
 80011f4:	180891ba 	slli	r4,r3,6
 80011f8:	9826c03a 	cmpne	r19,r19,zero
 80011fc:	9884b03a 	or	r2,r19,r2
 8001200:	1126b03a 	or	r19,r2,r4
 8001204:	9882002c 	andhi	r2,r19,2048
 8001208:	10000426 	beq	r2,zero,800121c <__mulsf3+0x2e4>
 800120c:	9804d07a 	srli	r2,r19,1
 8001210:	9900004c 	andi	r4,r19,1
 8001214:	3821883a 	mov	r16,r7
 8001218:	1126b03a 	or	r19,r2,r4
 800121c:	80c01fc4 	addi	r3,r16,127
 8001220:	00c0210e 	bge	zero,r3,80012a8 <__mulsf3+0x370>
 8001224:	988001cc 	andi	r2,r19,7
 8001228:	10000426 	beq	r2,zero,800123c <__mulsf3+0x304>
 800122c:	988003cc 	andi	r2,r19,15
 8001230:	01000104 	movi	r4,4
 8001234:	11000126 	beq	r2,r4,800123c <__mulsf3+0x304>
 8001238:	9927883a 	add	r19,r19,r4
 800123c:	9882002c 	andhi	r2,r19,2048
 8001240:	10000426 	beq	r2,zero,8001254 <__mulsf3+0x31c>
 8001244:	00be0034 	movhi	r2,63488
 8001248:	10bfffc4 	addi	r2,r2,-1
 800124c:	80c02004 	addi	r3,r16,128
 8001250:	98a6703a 	and	r19,r19,r2
 8001254:	00803f84 	movi	r2,254
 8001258:	10ffa916 	blt	r2,r3,8001100 <__alt_data_end+0xf8001100>
 800125c:	980891ba 	slli	r4,r19,6
 8001260:	a829883a 	mov	r20,r21
 8001264:	2008d27a 	srli	r4,r4,9
 8001268:	003f8606 	br	8001084 <__alt_data_end+0xf8001084>
 800126c:	9080102c 	andhi	r2,r18,64
 8001270:	10000826 	beq	r2,zero,8001294 <__mulsf3+0x35c>
 8001274:	9880102c 	andhi	r2,r19,64
 8001278:	1000061e 	bne	r2,zero,8001294 <__mulsf3+0x35c>
 800127c:	00802034 	movhi	r2,128
 8001280:	99001034 	orhi	r4,r19,64
 8001284:	10bfffc4 	addi	r2,r2,-1
 8001288:	b029883a 	mov	r20,r22
 800128c:	2088703a 	and	r4,r4,r2
 8001290:	003fba06 	br	800117c <__alt_data_end+0xf800117c>
 8001294:	00802034 	movhi	r2,128
 8001298:	91001034 	orhi	r4,r18,64
 800129c:	10bfffc4 	addi	r2,r2,-1
 80012a0:	2088703a 	and	r4,r4,r2
 80012a4:	003fb506 	br	800117c <__alt_data_end+0xf800117c>
 80012a8:	00800044 	movi	r2,1
 80012ac:	10c7c83a 	sub	r3,r2,r3
 80012b0:	008006c4 	movi	r2,27
 80012b4:	10ff7016 	blt	r2,r3,8001078 <__alt_data_end+0xf8001078>
 80012b8:	00800804 	movi	r2,32
 80012bc:	10c5c83a 	sub	r2,r2,r3
 80012c0:	9884983a 	sll	r2,r19,r2
 80012c4:	98c6d83a 	srl	r3,r19,r3
 80012c8:	1004c03a 	cmpne	r2,r2,zero
 80012cc:	1884b03a 	or	r2,r3,r2
 80012d0:	10c001cc 	andi	r3,r2,7
 80012d4:	18000426 	beq	r3,zero,80012e8 <__mulsf3+0x3b0>
 80012d8:	10c003cc 	andi	r3,r2,15
 80012dc:	01000104 	movi	r4,4
 80012e0:	19000126 	beq	r3,r4,80012e8 <__mulsf3+0x3b0>
 80012e4:	1105883a 	add	r2,r2,r4
 80012e8:	10c1002c 	andhi	r3,r2,1024
 80012ec:	18000626 	beq	r3,zero,8001308 <__mulsf3+0x3d0>
 80012f0:	a829883a 	mov	r20,r21
 80012f4:	00c00044 	movi	r3,1
 80012f8:	0009883a 	mov	r4,zero
 80012fc:	003f6106 	br	8001084 <__alt_data_end+0xf8001084>
 8001300:	3821883a 	mov	r16,r7
 8001304:	003fc506 	br	800121c <__alt_data_end+0xf800121c>
 8001308:	100491ba 	slli	r2,r2,6
 800130c:	a829883a 	mov	r20,r21
 8001310:	0007883a 	mov	r3,zero
 8001314:	1008d27a 	srli	r4,r2,9
 8001318:	003f5a06 	br	8001084 <__alt_data_end+0xf8001084>
 800131c:	00802034 	movhi	r2,128
 8001320:	99001034 	orhi	r4,r19,64
 8001324:	10bfffc4 	addi	r2,r2,-1
 8001328:	a829883a 	mov	r20,r21
 800132c:	2088703a 	and	r4,r4,r2
 8001330:	003f9206 	br	800117c <__alt_data_end+0xf800117c>

08001334 <__subsf3>:
 8001334:	defffc04 	addi	sp,sp,-16
 8001338:	280cd5fa 	srli	r6,r5,23
 800133c:	dc000015 	stw	r16,0(sp)
 8001340:	01c02034 	movhi	r7,128
 8001344:	2020d5fa 	srli	r16,r4,23
 8001348:	39ffffc4 	addi	r7,r7,-1
 800134c:	3906703a 	and	r3,r7,r4
 8001350:	dc400115 	stw	r17,4(sp)
 8001354:	394e703a 	and	r7,r7,r5
 8001358:	2022d7fa 	srli	r17,r4,31
 800135c:	dfc00315 	stw	ra,12(sp)
 8001360:	dc800215 	stw	r18,8(sp)
 8001364:	31803fcc 	andi	r6,r6,255
 8001368:	01003fc4 	movi	r4,255
 800136c:	84003fcc 	andi	r16,r16,255
 8001370:	180690fa 	slli	r3,r3,3
 8001374:	2804d7fa 	srli	r2,r5,31
 8001378:	380e90fa 	slli	r7,r7,3
 800137c:	31006d26 	beq	r6,r4,8001534 <__subsf3+0x200>
 8001380:	1080005c 	xori	r2,r2,1
 8001384:	8189c83a 	sub	r4,r16,r6
 8001388:	14404f26 	beq	r2,r17,80014c8 <__subsf3+0x194>
 800138c:	0100770e 	bge	zero,r4,800156c <__subsf3+0x238>
 8001390:	30001e1e 	bne	r6,zero,800140c <__subsf3+0xd8>
 8001394:	38006a1e 	bne	r7,zero,8001540 <__subsf3+0x20c>
 8001398:	188001cc 	andi	r2,r3,7
 800139c:	10000426 	beq	r2,zero,80013b0 <__subsf3+0x7c>
 80013a0:	188003cc 	andi	r2,r3,15
 80013a4:	01000104 	movi	r4,4
 80013a8:	11000126 	beq	r2,r4,80013b0 <__subsf3+0x7c>
 80013ac:	1907883a 	add	r3,r3,r4
 80013b0:	1881002c 	andhi	r2,r3,1024
 80013b4:	10003926 	beq	r2,zero,800149c <__subsf3+0x168>
 80013b8:	84000044 	addi	r16,r16,1
 80013bc:	00803fc4 	movi	r2,255
 80013c0:	80807526 	beq	r16,r2,8001598 <__subsf3+0x264>
 80013c4:	180691ba 	slli	r3,r3,6
 80013c8:	8880004c 	andi	r2,r17,1
 80013cc:	180ad27a 	srli	r5,r3,9
 80013d0:	84003fcc 	andi	r16,r16,255
 80013d4:	800695fa 	slli	r3,r16,23
 80013d8:	10803fcc 	andi	r2,r2,255
 80013dc:	01002034 	movhi	r4,128
 80013e0:	213fffc4 	addi	r4,r4,-1
 80013e4:	100497fa 	slli	r2,r2,31
 80013e8:	2920703a 	and	r16,r5,r4
 80013ec:	80e0b03a 	or	r16,r16,r3
 80013f0:	8084b03a 	or	r2,r16,r2
 80013f4:	dfc00317 	ldw	ra,12(sp)
 80013f8:	dc800217 	ldw	r18,8(sp)
 80013fc:	dc400117 	ldw	r17,4(sp)
 8001400:	dc000017 	ldw	r16,0(sp)
 8001404:	dec00404 	addi	sp,sp,16
 8001408:	f800283a 	ret
 800140c:	00803fc4 	movi	r2,255
 8001410:	80bfe126 	beq	r16,r2,8001398 <__alt_data_end+0xf8001398>
 8001414:	39c10034 	orhi	r7,r7,1024
 8001418:	008006c4 	movi	r2,27
 800141c:	11007416 	blt	r2,r4,80015f0 <__subsf3+0x2bc>
 8001420:	00800804 	movi	r2,32
 8001424:	1105c83a 	sub	r2,r2,r4
 8001428:	3884983a 	sll	r2,r7,r2
 800142c:	390ed83a 	srl	r7,r7,r4
 8001430:	1008c03a 	cmpne	r4,r2,zero
 8001434:	390eb03a 	or	r7,r7,r4
 8001438:	19c7c83a 	sub	r3,r3,r7
 800143c:	1881002c 	andhi	r2,r3,1024
 8001440:	10001426 	beq	r2,zero,8001494 <__subsf3+0x160>
 8001444:	04810034 	movhi	r18,1024
 8001448:	94bfffc4 	addi	r18,r18,-1
 800144c:	1ca4703a 	and	r18,r3,r18
 8001450:	9009883a 	mov	r4,r18
 8001454:	80018880 	call	8001888 <__clzsi2>
 8001458:	10bffec4 	addi	r2,r2,-5
 800145c:	90a4983a 	sll	r18,r18,r2
 8001460:	14005116 	blt	r2,r16,80015a8 <__subsf3+0x274>
 8001464:	1405c83a 	sub	r2,r2,r16
 8001468:	10c00044 	addi	r3,r2,1
 800146c:	00800804 	movi	r2,32
 8001470:	10c5c83a 	sub	r2,r2,r3
 8001474:	9084983a 	sll	r2,r18,r2
 8001478:	90e4d83a 	srl	r18,r18,r3
 800147c:	0021883a 	mov	r16,zero
 8001480:	1006c03a 	cmpne	r3,r2,zero
 8001484:	90c6b03a 	or	r3,r18,r3
 8001488:	003fc306 	br	8001398 <__alt_data_end+0xf8001398>
 800148c:	2000e026 	beq	r4,zero,8001810 <__subsf3+0x4dc>
 8001490:	2007883a 	mov	r3,r4
 8001494:	188001cc 	andi	r2,r3,7
 8001498:	103fc11e 	bne	r2,zero,80013a0 <__alt_data_end+0xf80013a0>
 800149c:	180ad0fa 	srli	r5,r3,3
 80014a0:	00c03fc4 	movi	r3,255
 80014a4:	8880004c 	andi	r2,r17,1
 80014a8:	80c0031e 	bne	r16,r3,80014b8 <__subsf3+0x184>
 80014ac:	28006d26 	beq	r5,zero,8001664 <__subsf3+0x330>
 80014b0:	29401034 	orhi	r5,r5,64
 80014b4:	043fffc4 	movi	r16,-1
 80014b8:	00c02034 	movhi	r3,128
 80014bc:	18ffffc4 	addi	r3,r3,-1
 80014c0:	28ca703a 	and	r5,r5,r3
 80014c4:	003fc206 	br	80013d0 <__alt_data_end+0xf80013d0>
 80014c8:	01003c0e 	bge	zero,r4,80015bc <__subsf3+0x288>
 80014cc:	30002126 	beq	r6,zero,8001554 <__subsf3+0x220>
 80014d0:	01403fc4 	movi	r5,255
 80014d4:	817fb026 	beq	r16,r5,8001398 <__alt_data_end+0xf8001398>
 80014d8:	39c10034 	orhi	r7,r7,1024
 80014dc:	014006c4 	movi	r5,27
 80014e0:	29007416 	blt	r5,r4,80016b4 <__subsf3+0x380>
 80014e4:	01400804 	movi	r5,32
 80014e8:	290bc83a 	sub	r5,r5,r4
 80014ec:	394a983a 	sll	r5,r7,r5
 80014f0:	390ed83a 	srl	r7,r7,r4
 80014f4:	2808c03a 	cmpne	r4,r5,zero
 80014f8:	390eb03a 	or	r7,r7,r4
 80014fc:	19c7883a 	add	r3,r3,r7
 8001500:	1901002c 	andhi	r4,r3,1024
 8001504:	20003826 	beq	r4,zero,80015e8 <__subsf3+0x2b4>
 8001508:	84000044 	addi	r16,r16,1
 800150c:	01003fc4 	movi	r4,255
 8001510:	81005426 	beq	r16,r4,8001664 <__subsf3+0x330>
 8001514:	1023883a 	mov	r17,r2
 8001518:	00bf0034 	movhi	r2,64512
 800151c:	10bfffc4 	addi	r2,r2,-1
 8001520:	1900004c 	andi	r4,r3,1
 8001524:	1886703a 	and	r3,r3,r2
 8001528:	1806d07a 	srli	r3,r3,1
 800152c:	1906b03a 	or	r3,r3,r4
 8001530:	003f9906 	br	8001398 <__alt_data_end+0xf8001398>
 8001534:	383f9226 	beq	r7,zero,8001380 <__alt_data_end+0xf8001380>
 8001538:	10803fcc 	andi	r2,r2,255
 800153c:	003f9106 	br	8001384 <__alt_data_end+0xf8001384>
 8001540:	213fffc4 	addi	r4,r4,-1
 8001544:	203fbc26 	beq	r4,zero,8001438 <__alt_data_end+0xf8001438>
 8001548:	00803fc4 	movi	r2,255
 800154c:	80bfb21e 	bne	r16,r2,8001418 <__alt_data_end+0xf8001418>
 8001550:	003f9106 	br	8001398 <__alt_data_end+0xf8001398>
 8001554:	383f9026 	beq	r7,zero,8001398 <__alt_data_end+0xf8001398>
 8001558:	213fffc4 	addi	r4,r4,-1
 800155c:	203fe726 	beq	r4,zero,80014fc <__alt_data_end+0xf80014fc>
 8001560:	01403fc4 	movi	r5,255
 8001564:	817fdd1e 	bne	r16,r5,80014dc <__alt_data_end+0xf80014dc>
 8001568:	003f8b06 	br	8001398 <__alt_data_end+0xf8001398>
 800156c:	2000221e 	bne	r4,zero,80015f8 <__subsf3+0x2c4>
 8001570:	81000044 	addi	r4,r16,1
 8001574:	21003fcc 	andi	r4,r4,255
 8001578:	01400044 	movi	r5,1
 800157c:	2900470e 	bge	r5,r4,800169c <__subsf3+0x368>
 8001580:	19e5c83a 	sub	r18,r3,r7
 8001584:	9141002c 	andhi	r5,r18,1024
 8001588:	28002d26 	beq	r5,zero,8001640 <__subsf3+0x30c>
 800158c:	38e5c83a 	sub	r18,r7,r3
 8001590:	1023883a 	mov	r17,r2
 8001594:	003fae06 	br	8001450 <__alt_data_end+0xf8001450>
 8001598:	8880004c 	andi	r2,r17,1
 800159c:	043fffc4 	movi	r16,-1
 80015a0:	000b883a 	mov	r5,zero
 80015a4:	003f8a06 	br	80013d0 <__alt_data_end+0xf80013d0>
 80015a8:	00ff0034 	movhi	r3,64512
 80015ac:	18ffffc4 	addi	r3,r3,-1
 80015b0:	80a1c83a 	sub	r16,r16,r2
 80015b4:	90c6703a 	and	r3,r18,r3
 80015b8:	003f7706 	br	8001398 <__alt_data_end+0xf8001398>
 80015bc:	2000431e 	bne	r4,zero,80016cc <__subsf3+0x398>
 80015c0:	81000044 	addi	r4,r16,1
 80015c4:	21803fcc 	andi	r6,r4,255
 80015c8:	01400044 	movi	r5,1
 80015cc:	2980280e 	bge	r5,r6,8001670 <__subsf3+0x33c>
 80015d0:	01403fc4 	movi	r5,255
 80015d4:	21402326 	beq	r4,r5,8001664 <__subsf3+0x330>
 80015d8:	19c7883a 	add	r3,r3,r7
 80015dc:	1806d07a 	srli	r3,r3,1
 80015e0:	2021883a 	mov	r16,r4
 80015e4:	003f6c06 	br	8001398 <__alt_data_end+0xf8001398>
 80015e8:	1023883a 	mov	r17,r2
 80015ec:	003fa906 	br	8001494 <__alt_data_end+0xf8001494>
 80015f0:	01c00044 	movi	r7,1
 80015f4:	003f9006 	br	8001438 <__alt_data_end+0xf8001438>
 80015f8:	8000151e 	bne	r16,zero,8001650 <__subsf3+0x31c>
 80015fc:	18002f26 	beq	r3,zero,80016bc <__subsf3+0x388>
 8001600:	0108303a 	nor	r4,zero,r4
 8001604:	20000a26 	beq	r4,zero,8001630 <__subsf3+0x2fc>
 8001608:	01403fc4 	movi	r5,255
 800160c:	31402b26 	beq	r6,r5,80016bc <__subsf3+0x388>
 8001610:	014006c4 	movi	r5,27
 8001614:	29006e16 	blt	r5,r4,80017d0 <__subsf3+0x49c>
 8001618:	01400804 	movi	r5,32
 800161c:	290bc83a 	sub	r5,r5,r4
 8001620:	194a983a 	sll	r5,r3,r5
 8001624:	1908d83a 	srl	r4,r3,r4
 8001628:	2806c03a 	cmpne	r3,r5,zero
 800162c:	20c6b03a 	or	r3,r4,r3
 8001630:	38c7c83a 	sub	r3,r7,r3
 8001634:	3021883a 	mov	r16,r6
 8001638:	1023883a 	mov	r17,r2
 800163c:	003f7f06 	br	800143c <__alt_data_end+0xf800143c>
 8001640:	903f831e 	bne	r18,zero,8001450 <__alt_data_end+0xf8001450>
 8001644:	0005883a 	mov	r2,zero
 8001648:	0021883a 	mov	r16,zero
 800164c:	003f9a06 	br	80014b8 <__alt_data_end+0xf80014b8>
 8001650:	01403fc4 	movi	r5,255
 8001654:	31401926 	beq	r6,r5,80016bc <__subsf3+0x388>
 8001658:	0109c83a 	sub	r4,zero,r4
 800165c:	18c10034 	orhi	r3,r3,1024
 8001660:	003feb06 	br	8001610 <__alt_data_end+0xf8001610>
 8001664:	043fffc4 	movi	r16,-1
 8001668:	000b883a 	mov	r5,zero
 800166c:	003f5806 	br	80013d0 <__alt_data_end+0xf80013d0>
 8001670:	8000481e 	bne	r16,zero,8001794 <__subsf3+0x460>
 8001674:	18006226 	beq	r3,zero,8001800 <__subsf3+0x4cc>
 8001678:	383f4726 	beq	r7,zero,8001398 <__alt_data_end+0xf8001398>
 800167c:	19c7883a 	add	r3,r3,r7
 8001680:	1881002c 	andhi	r2,r3,1024
 8001684:	103f8326 	beq	r2,zero,8001494 <__alt_data_end+0xf8001494>
 8001688:	00bf0034 	movhi	r2,64512
 800168c:	10bfffc4 	addi	r2,r2,-1
 8001690:	2821883a 	mov	r16,r5
 8001694:	1886703a 	and	r3,r3,r2
 8001698:	003f3f06 	br	8001398 <__alt_data_end+0xf8001398>
 800169c:	80001c1e 	bne	r16,zero,8001710 <__subsf3+0x3dc>
 80016a0:	1800261e 	bne	r3,zero,800173c <__subsf3+0x408>
 80016a4:	38004c26 	beq	r7,zero,80017d8 <__subsf3+0x4a4>
 80016a8:	3807883a 	mov	r3,r7
 80016ac:	1023883a 	mov	r17,r2
 80016b0:	003f3906 	br	8001398 <__alt_data_end+0xf8001398>
 80016b4:	01c00044 	movi	r7,1
 80016b8:	003f9006 	br	80014fc <__alt_data_end+0xf80014fc>
 80016bc:	3807883a 	mov	r3,r7
 80016c0:	3021883a 	mov	r16,r6
 80016c4:	1023883a 	mov	r17,r2
 80016c8:	003f3306 	br	8001398 <__alt_data_end+0xf8001398>
 80016cc:	8000161e 	bne	r16,zero,8001728 <__subsf3+0x3f4>
 80016d0:	18002d26 	beq	r3,zero,8001788 <__subsf3+0x454>
 80016d4:	0108303a 	nor	r4,zero,r4
 80016d8:	20000a26 	beq	r4,zero,8001704 <__subsf3+0x3d0>
 80016dc:	01403fc4 	movi	r5,255
 80016e0:	31402926 	beq	r6,r5,8001788 <__subsf3+0x454>
 80016e4:	014006c4 	movi	r5,27
 80016e8:	29004716 	blt	r5,r4,8001808 <__subsf3+0x4d4>
 80016ec:	01400804 	movi	r5,32
 80016f0:	290bc83a 	sub	r5,r5,r4
 80016f4:	194a983a 	sll	r5,r3,r5
 80016f8:	1908d83a 	srl	r4,r3,r4
 80016fc:	2806c03a 	cmpne	r3,r5,zero
 8001700:	20c6b03a 	or	r3,r4,r3
 8001704:	19c7883a 	add	r3,r3,r7
 8001708:	3021883a 	mov	r16,r6
 800170c:	003f7c06 	br	8001500 <__alt_data_end+0xf8001500>
 8001710:	1800111e 	bne	r3,zero,8001758 <__subsf3+0x424>
 8001714:	38003326 	beq	r7,zero,80017e4 <__subsf3+0x4b0>
 8001718:	3807883a 	mov	r3,r7
 800171c:	1023883a 	mov	r17,r2
 8001720:	04003fc4 	movi	r16,255
 8001724:	003f1c06 	br	8001398 <__alt_data_end+0xf8001398>
 8001728:	01403fc4 	movi	r5,255
 800172c:	31401626 	beq	r6,r5,8001788 <__subsf3+0x454>
 8001730:	0109c83a 	sub	r4,zero,r4
 8001734:	18c10034 	orhi	r3,r3,1024
 8001738:	003fea06 	br	80016e4 <__alt_data_end+0xf80016e4>
 800173c:	383f1626 	beq	r7,zero,8001398 <__alt_data_end+0xf8001398>
 8001740:	19c9c83a 	sub	r4,r3,r7
 8001744:	2141002c 	andhi	r5,r4,1024
 8001748:	283f5026 	beq	r5,zero,800148c <__alt_data_end+0xf800148c>
 800174c:	38c7c83a 	sub	r3,r7,r3
 8001750:	1023883a 	mov	r17,r2
 8001754:	003f1006 	br	8001398 <__alt_data_end+0xf8001398>
 8001758:	38001b26 	beq	r7,zero,80017c8 <__subsf3+0x494>
 800175c:	1806d0fa 	srli	r3,r3,3
 8001760:	1900102c 	andhi	r4,r3,64
 8001764:	20000526 	beq	r4,zero,800177c <__subsf3+0x448>
 8001768:	380ed0fa 	srli	r7,r7,3
 800176c:	3900102c 	andhi	r4,r7,64
 8001770:	2000021e 	bne	r4,zero,800177c <__subsf3+0x448>
 8001774:	3807883a 	mov	r3,r7
 8001778:	1023883a 	mov	r17,r2
 800177c:	180690fa 	slli	r3,r3,3
 8001780:	04003fc4 	movi	r16,255
 8001784:	003f0406 	br	8001398 <__alt_data_end+0xf8001398>
 8001788:	3807883a 	mov	r3,r7
 800178c:	3021883a 	mov	r16,r6
 8001790:	003f0106 	br	8001398 <__alt_data_end+0xf8001398>
 8001794:	18001726 	beq	r3,zero,80017f4 <__subsf3+0x4c0>
 8001798:	38000b26 	beq	r7,zero,80017c8 <__subsf3+0x494>
 800179c:	1806d0fa 	srli	r3,r3,3
 80017a0:	1900102c 	andhi	r4,r3,64
 80017a4:	20000426 	beq	r4,zero,80017b8 <__subsf3+0x484>
 80017a8:	380ed0fa 	srli	r7,r7,3
 80017ac:	3900102c 	andhi	r4,r7,64
 80017b0:	2000011e 	bne	r4,zero,80017b8 <__subsf3+0x484>
 80017b4:	3807883a 	mov	r3,r7
 80017b8:	180690fa 	slli	r3,r3,3
 80017bc:	1023883a 	mov	r17,r2
 80017c0:	04003fc4 	movi	r16,255
 80017c4:	003ef406 	br	8001398 <__alt_data_end+0xf8001398>
 80017c8:	04003fc4 	movi	r16,255
 80017cc:	003ef206 	br	8001398 <__alt_data_end+0xf8001398>
 80017d0:	00c00044 	movi	r3,1
 80017d4:	003f9606 	br	8001630 <__alt_data_end+0xf8001630>
 80017d8:	000b883a 	mov	r5,zero
 80017dc:	0005883a 	mov	r2,zero
 80017e0:	003f3506 	br	80014b8 <__alt_data_end+0xf80014b8>
 80017e4:	01402034 	movhi	r5,128
 80017e8:	297fffc4 	addi	r5,r5,-1
 80017ec:	0005883a 	mov	r2,zero
 80017f0:	003f2f06 	br	80014b0 <__alt_data_end+0xf80014b0>
 80017f4:	3807883a 	mov	r3,r7
 80017f8:	04003fc4 	movi	r16,255
 80017fc:	003ee606 	br	8001398 <__alt_data_end+0xf8001398>
 8001800:	3807883a 	mov	r3,r7
 8001804:	003ee406 	br	8001398 <__alt_data_end+0xf8001398>
 8001808:	00c00044 	movi	r3,1
 800180c:	003fbd06 	br	8001704 <__alt_data_end+0xf8001704>
 8001810:	0005883a 	mov	r2,zero
 8001814:	003f2806 	br	80014b8 <__alt_data_end+0xf80014b8>

08001818 <__fixsfsi>:
 8001818:	200ad5fa 	srli	r5,r4,23
 800181c:	00c02034 	movhi	r3,128
 8001820:	18ffffc4 	addi	r3,r3,-1
 8001824:	29403fcc 	andi	r5,r5,255
 8001828:	00801f84 	movi	r2,126
 800182c:	1906703a 	and	r3,r3,r4
 8001830:	2008d7fa 	srli	r4,r4,31
 8001834:	11400e0e 	bge	r2,r5,8001870 <__fixsfsi+0x58>
 8001838:	00802744 	movi	r2,157
 800183c:	11400816 	blt	r2,r5,8001860 <__fixsfsi+0x48>
 8001840:	00802544 	movi	r2,149
 8001844:	18c02034 	orhi	r3,r3,128
 8001848:	11400b0e 	bge	r2,r5,8001878 <__fixsfsi+0x60>
 800184c:	28bfda84 	addi	r2,r5,-150
 8001850:	1884983a 	sll	r2,r3,r2
 8001854:	20000726 	beq	r4,zero,8001874 <__fixsfsi+0x5c>
 8001858:	0085c83a 	sub	r2,zero,r2
 800185c:	f800283a 	ret
 8001860:	00a00034 	movhi	r2,32768
 8001864:	10bfffc4 	addi	r2,r2,-1
 8001868:	2085883a 	add	r2,r4,r2
 800186c:	f800283a 	ret
 8001870:	0005883a 	mov	r2,zero
 8001874:	f800283a 	ret
 8001878:	00802584 	movi	r2,150
 800187c:	1145c83a 	sub	r2,r2,r5
 8001880:	1884d83a 	srl	r2,r3,r2
 8001884:	003ff306 	br	8001854 <__alt_data_end+0xf8001854>

08001888 <__clzsi2>:
 8001888:	00bfffd4 	movui	r2,65535
 800188c:	11000536 	bltu	r2,r4,80018a4 <__clzsi2+0x1c>
 8001890:	00803fc4 	movi	r2,255
 8001894:	11000f36 	bltu	r2,r4,80018d4 <__clzsi2+0x4c>
 8001898:	00800804 	movi	r2,32
 800189c:	0007883a 	mov	r3,zero
 80018a0:	00000506 	br	80018b8 <__clzsi2+0x30>
 80018a4:	00804034 	movhi	r2,256
 80018a8:	10bfffc4 	addi	r2,r2,-1
 80018ac:	11000c2e 	bgeu	r2,r4,80018e0 <__clzsi2+0x58>
 80018b0:	00800204 	movi	r2,8
 80018b4:	00c00604 	movi	r3,24
 80018b8:	20c8d83a 	srl	r4,r4,r3
 80018bc:	00c200b4 	movhi	r3,2050
 80018c0:	18e84d84 	addi	r3,r3,-24266
 80018c4:	1909883a 	add	r4,r3,r4
 80018c8:	20c00003 	ldbu	r3,0(r4)
 80018cc:	10c5c83a 	sub	r2,r2,r3
 80018d0:	f800283a 	ret
 80018d4:	00800604 	movi	r2,24
 80018d8:	00c00204 	movi	r3,8
 80018dc:	003ff606 	br	80018b8 <__alt_data_end+0xf80018b8>
 80018e0:	00800404 	movi	r2,16
 80018e4:	1007883a 	mov	r3,r2
 80018e8:	003ff306 	br	80018b8 <__alt_data_end+0xf80018b8>

080018ec <_printf_r>:
 80018ec:	defffd04 	addi	sp,sp,-12
 80018f0:	2805883a 	mov	r2,r5
 80018f4:	dfc00015 	stw	ra,0(sp)
 80018f8:	d9800115 	stw	r6,4(sp)
 80018fc:	d9c00215 	stw	r7,8(sp)
 8001900:	21400217 	ldw	r5,8(r4)
 8001904:	d9c00104 	addi	r7,sp,4
 8001908:	100d883a 	mov	r6,r2
 800190c:	8001ac40 	call	8001ac4 <___vfprintf_internal_r>
 8001910:	dfc00017 	ldw	ra,0(sp)
 8001914:	dec00304 	addi	sp,sp,12
 8001918:	f800283a 	ret

0800191c <printf>:
 800191c:	defffc04 	addi	sp,sp,-16
 8001920:	dfc00015 	stw	ra,0(sp)
 8001924:	d9400115 	stw	r5,4(sp)
 8001928:	d9800215 	stw	r6,8(sp)
 800192c:	d9c00315 	stw	r7,12(sp)
 8001930:	008200b4 	movhi	r2,2050
 8001934:	10b0a104 	addi	r2,r2,-15740
 8001938:	10800017 	ldw	r2,0(r2)
 800193c:	200b883a 	mov	r5,r4
 8001940:	d9800104 	addi	r6,sp,4
 8001944:	11000217 	ldw	r4,8(r2)
 8001948:	8003cbc0 	call	8003cbc <__vfprintf_internal>
 800194c:	dfc00017 	ldw	ra,0(sp)
 8001950:	dec00404 	addi	sp,sp,16
 8001954:	f800283a 	ret

08001958 <_puts_r>:
 8001958:	defff604 	addi	sp,sp,-40
 800195c:	dc000715 	stw	r16,28(sp)
 8001960:	2021883a 	mov	r16,r4
 8001964:	2809883a 	mov	r4,r5
 8001968:	dc400815 	stw	r17,32(sp)
 800196c:	dfc00915 	stw	ra,36(sp)
 8001970:	2823883a 	mov	r17,r5
 8001974:	8001a2c0 	call	8001a2c <strlen>
 8001978:	10c00044 	addi	r3,r2,1
 800197c:	d8800115 	stw	r2,4(sp)
 8001980:	008200b4 	movhi	r2,2050
 8001984:	10a88e04 	addi	r2,r2,-24008
 8001988:	d8800215 	stw	r2,8(sp)
 800198c:	00800044 	movi	r2,1
 8001990:	d8800315 	stw	r2,12(sp)
 8001994:	00800084 	movi	r2,2
 8001998:	dc400015 	stw	r17,0(sp)
 800199c:	d8c00615 	stw	r3,24(sp)
 80019a0:	dec00415 	stw	sp,16(sp)
 80019a4:	d8800515 	stw	r2,20(sp)
 80019a8:	80000226 	beq	r16,zero,80019b4 <_puts_r+0x5c>
 80019ac:	80800e17 	ldw	r2,56(r16)
 80019b0:	10001426 	beq	r2,zero,8001a04 <_puts_r+0xac>
 80019b4:	81400217 	ldw	r5,8(r16)
 80019b8:	2880030b 	ldhu	r2,12(r5)
 80019bc:	10c8000c 	andi	r3,r2,8192
 80019c0:	1800061e 	bne	r3,zero,80019dc <_puts_r+0x84>
 80019c4:	29001917 	ldw	r4,100(r5)
 80019c8:	00f7ffc4 	movi	r3,-8193
 80019cc:	10880014 	ori	r2,r2,8192
 80019d0:	20c6703a 	and	r3,r4,r3
 80019d4:	2880030d 	sth	r2,12(r5)
 80019d8:	28c01915 	stw	r3,100(r5)
 80019dc:	d9800404 	addi	r6,sp,16
 80019e0:	8009883a 	mov	r4,r16
 80019e4:	80061ec0 	call	80061ec <__sfvwrite_r>
 80019e8:	1000091e 	bne	r2,zero,8001a10 <_puts_r+0xb8>
 80019ec:	00800284 	movi	r2,10
 80019f0:	dfc00917 	ldw	ra,36(sp)
 80019f4:	dc400817 	ldw	r17,32(sp)
 80019f8:	dc000717 	ldw	r16,28(sp)
 80019fc:	dec00a04 	addi	sp,sp,40
 8001a00:	f800283a 	ret
 8001a04:	8009883a 	mov	r4,r16
 8001a08:	8005d680 	call	8005d68 <__sinit>
 8001a0c:	003fe906 	br	80019b4 <__alt_data_end+0xf80019b4>
 8001a10:	00bfffc4 	movi	r2,-1
 8001a14:	003ff606 	br	80019f0 <__alt_data_end+0xf80019f0>

08001a18 <puts>:
 8001a18:	008200b4 	movhi	r2,2050
 8001a1c:	10b0a104 	addi	r2,r2,-15740
 8001a20:	200b883a 	mov	r5,r4
 8001a24:	11000017 	ldw	r4,0(r2)
 8001a28:	80019581 	jmpi	8001958 <_puts_r>

08001a2c <strlen>:
 8001a2c:	208000cc 	andi	r2,r4,3
 8001a30:	10002026 	beq	r2,zero,8001ab4 <strlen+0x88>
 8001a34:	20800007 	ldb	r2,0(r4)
 8001a38:	10002026 	beq	r2,zero,8001abc <strlen+0x90>
 8001a3c:	2005883a 	mov	r2,r4
 8001a40:	00000206 	br	8001a4c <strlen+0x20>
 8001a44:	10c00007 	ldb	r3,0(r2)
 8001a48:	18001826 	beq	r3,zero,8001aac <strlen+0x80>
 8001a4c:	10800044 	addi	r2,r2,1
 8001a50:	10c000cc 	andi	r3,r2,3
 8001a54:	183ffb1e 	bne	r3,zero,8001a44 <__alt_data_end+0xf8001a44>
 8001a58:	10c00017 	ldw	r3,0(r2)
 8001a5c:	01ffbff4 	movhi	r7,65279
 8001a60:	39ffbfc4 	addi	r7,r7,-257
 8001a64:	00ca303a 	nor	r5,zero,r3
 8001a68:	01a02074 	movhi	r6,32897
 8001a6c:	19c7883a 	add	r3,r3,r7
 8001a70:	31a02004 	addi	r6,r6,-32640
 8001a74:	1946703a 	and	r3,r3,r5
 8001a78:	1986703a 	and	r3,r3,r6
 8001a7c:	1800091e 	bne	r3,zero,8001aa4 <strlen+0x78>
 8001a80:	10800104 	addi	r2,r2,4
 8001a84:	10c00017 	ldw	r3,0(r2)
 8001a88:	19cb883a 	add	r5,r3,r7
 8001a8c:	00c6303a 	nor	r3,zero,r3
 8001a90:	28c6703a 	and	r3,r5,r3
 8001a94:	1986703a 	and	r3,r3,r6
 8001a98:	183ff926 	beq	r3,zero,8001a80 <__alt_data_end+0xf8001a80>
 8001a9c:	00000106 	br	8001aa4 <strlen+0x78>
 8001aa0:	10800044 	addi	r2,r2,1
 8001aa4:	10c00007 	ldb	r3,0(r2)
 8001aa8:	183ffd1e 	bne	r3,zero,8001aa0 <__alt_data_end+0xf8001aa0>
 8001aac:	1105c83a 	sub	r2,r2,r4
 8001ab0:	f800283a 	ret
 8001ab4:	2005883a 	mov	r2,r4
 8001ab8:	003fe706 	br	8001a58 <__alt_data_end+0xf8001a58>
 8001abc:	0005883a 	mov	r2,zero
 8001ac0:	f800283a 	ret

08001ac4 <___vfprintf_internal_r>:
 8001ac4:	deffb804 	addi	sp,sp,-288
 8001ac8:	dfc04715 	stw	ra,284(sp)
 8001acc:	ddc04515 	stw	r23,276(sp)
 8001ad0:	dd404315 	stw	r21,268(sp)
 8001ad4:	d9002c15 	stw	r4,176(sp)
 8001ad8:	282f883a 	mov	r23,r5
 8001adc:	302b883a 	mov	r21,r6
 8001ae0:	d9c02d15 	stw	r7,180(sp)
 8001ae4:	df004615 	stw	fp,280(sp)
 8001ae8:	dd804415 	stw	r22,272(sp)
 8001aec:	dd004215 	stw	r20,264(sp)
 8001af0:	dcc04115 	stw	r19,260(sp)
 8001af4:	dc804015 	stw	r18,256(sp)
 8001af8:	dc403f15 	stw	r17,252(sp)
 8001afc:	dc003e15 	stw	r16,248(sp)
 8001b00:	80068dc0 	call	80068dc <_localeconv_r>
 8001b04:	10800017 	ldw	r2,0(r2)
 8001b08:	1009883a 	mov	r4,r2
 8001b0c:	d8803415 	stw	r2,208(sp)
 8001b10:	8001a2c0 	call	8001a2c <strlen>
 8001b14:	d8803715 	stw	r2,220(sp)
 8001b18:	d8802c17 	ldw	r2,176(sp)
 8001b1c:	10000226 	beq	r2,zero,8001b28 <___vfprintf_internal_r+0x64>
 8001b20:	10800e17 	ldw	r2,56(r2)
 8001b24:	1000f926 	beq	r2,zero,8001f0c <___vfprintf_internal_r+0x448>
 8001b28:	b880030b 	ldhu	r2,12(r23)
 8001b2c:	10c8000c 	andi	r3,r2,8192
 8001b30:	1800061e 	bne	r3,zero,8001b4c <___vfprintf_internal_r+0x88>
 8001b34:	b9001917 	ldw	r4,100(r23)
 8001b38:	00f7ffc4 	movi	r3,-8193
 8001b3c:	10880014 	ori	r2,r2,8192
 8001b40:	20c6703a 	and	r3,r4,r3
 8001b44:	b880030d 	sth	r2,12(r23)
 8001b48:	b8c01915 	stw	r3,100(r23)
 8001b4c:	10c0020c 	andi	r3,r2,8
 8001b50:	1800c126 	beq	r3,zero,8001e58 <___vfprintf_internal_r+0x394>
 8001b54:	b8c00417 	ldw	r3,16(r23)
 8001b58:	1800bf26 	beq	r3,zero,8001e58 <___vfprintf_internal_r+0x394>
 8001b5c:	1080068c 	andi	r2,r2,26
 8001b60:	00c00284 	movi	r3,10
 8001b64:	10c0c426 	beq	r2,r3,8001e78 <___vfprintf_internal_r+0x3b4>
 8001b68:	d8c00404 	addi	r3,sp,16
 8001b6c:	050200b4 	movhi	r20,2050
 8001b70:	d9001e04 	addi	r4,sp,120
 8001b74:	a5289f84 	addi	r20,r20,-23938
 8001b78:	d8c01e15 	stw	r3,120(sp)
 8001b7c:	d8002015 	stw	zero,128(sp)
 8001b80:	d8001f15 	stw	zero,124(sp)
 8001b84:	d8003315 	stw	zero,204(sp)
 8001b88:	d8003615 	stw	zero,216(sp)
 8001b8c:	d8003815 	stw	zero,224(sp)
 8001b90:	1811883a 	mov	r8,r3
 8001b94:	d8003915 	stw	zero,228(sp)
 8001b98:	d8003a15 	stw	zero,232(sp)
 8001b9c:	d8002f15 	stw	zero,188(sp)
 8001ba0:	d9002815 	stw	r4,160(sp)
 8001ba4:	a8800007 	ldb	r2,0(r21)
 8001ba8:	10027b26 	beq	r2,zero,8002598 <___vfprintf_internal_r+0xad4>
 8001bac:	00c00944 	movi	r3,37
 8001bb0:	a821883a 	mov	r16,r21
 8001bb4:	10c0021e 	bne	r2,r3,8001bc0 <___vfprintf_internal_r+0xfc>
 8001bb8:	00001406 	br	8001c0c <___vfprintf_internal_r+0x148>
 8001bbc:	10c00326 	beq	r2,r3,8001bcc <___vfprintf_internal_r+0x108>
 8001bc0:	84000044 	addi	r16,r16,1
 8001bc4:	80800007 	ldb	r2,0(r16)
 8001bc8:	103ffc1e 	bne	r2,zero,8001bbc <__alt_data_end+0xf8001bbc>
 8001bcc:	8563c83a 	sub	r17,r16,r21
 8001bd0:	88000e26 	beq	r17,zero,8001c0c <___vfprintf_internal_r+0x148>
 8001bd4:	d8c02017 	ldw	r3,128(sp)
 8001bd8:	d8801f17 	ldw	r2,124(sp)
 8001bdc:	45400015 	stw	r21,0(r8)
 8001be0:	1c47883a 	add	r3,r3,r17
 8001be4:	10800044 	addi	r2,r2,1
 8001be8:	d8c02015 	stw	r3,128(sp)
 8001bec:	44400115 	stw	r17,4(r8)
 8001bf0:	d8801f15 	stw	r2,124(sp)
 8001bf4:	00c001c4 	movi	r3,7
 8001bf8:	1880a716 	blt	r3,r2,8001e98 <___vfprintf_internal_r+0x3d4>
 8001bfc:	42000204 	addi	r8,r8,8
 8001c00:	d9402f17 	ldw	r5,188(sp)
 8001c04:	2c4b883a 	add	r5,r5,r17
 8001c08:	d9402f15 	stw	r5,188(sp)
 8001c0c:	80800007 	ldb	r2,0(r16)
 8001c10:	1000a826 	beq	r2,zero,8001eb4 <___vfprintf_internal_r+0x3f0>
 8001c14:	84400047 	ldb	r17,1(r16)
 8001c18:	00bfffc4 	movi	r2,-1
 8001c1c:	85400044 	addi	r21,r16,1
 8001c20:	d8002785 	stb	zero,158(sp)
 8001c24:	0007883a 	mov	r3,zero
 8001c28:	000f883a 	mov	r7,zero
 8001c2c:	d8802915 	stw	r2,164(sp)
 8001c30:	d8003115 	stw	zero,196(sp)
 8001c34:	0025883a 	mov	r18,zero
 8001c38:	01401604 	movi	r5,88
 8001c3c:	01800244 	movi	r6,9
 8001c40:	02800a84 	movi	r10,42
 8001c44:	02401b04 	movi	r9,108
 8001c48:	ad400044 	addi	r21,r21,1
 8001c4c:	88bff804 	addi	r2,r17,-32
 8001c50:	28830436 	bltu	r5,r2,8002864 <___vfprintf_internal_r+0xda0>
 8001c54:	100490ba 	slli	r2,r2,2
 8001c58:	01020034 	movhi	r4,2048
 8001c5c:	21071b04 	addi	r4,r4,7276
 8001c60:	1105883a 	add	r2,r2,r4
 8001c64:	10800017 	ldw	r2,0(r2)
 8001c68:	1000683a 	jmp	r2
 8001c6c:	08002784 	addi	zero,at,158
 8001c70:	08002864 	muli	zero,at,161
 8001c74:	08002864 	muli	zero,at,161
 8001c78:	080027a4 	muli	zero,at,158
 8001c7c:	08002864 	muli	zero,at,161
 8001c80:	08002864 	muli	zero,at,161
 8001c84:	08002864 	muli	zero,at,161
 8001c88:	08002864 	muli	zero,at,161
 8001c8c:	08002864 	muli	zero,at,161
 8001c90:	08002864 	muli	zero,at,161
 8001c94:	08001f18 	cmpnei	zero,at,124
 8001c98:	080026c0 	call	80026c <__alt_mem_onchip_memory2_0+0x60026c>
 8001c9c:	08002864 	muli	zero,at,161
 8001ca0:	08001de0 	cmpeqi	zero,at,119
 8001ca4:	08001f40 	call	8001f4 <__alt_mem_onchip_memory2_0+0x6001f4>
 8001ca8:	08002864 	muli	zero,at,161
 8001cac:	08001f80 	call	8001f8 <__alt_mem_onchip_memory2_0+0x6001f8>
 8001cb0:	08001f8c 	andi	zero,at,126
 8001cb4:	08001f8c 	andi	zero,at,126
 8001cb8:	08001f8c 	andi	zero,at,126
 8001cbc:	08001f8c 	andi	zero,at,126
 8001cc0:	08001f8c 	andi	zero,at,126
 8001cc4:	08001f8c 	andi	zero,at,126
 8001cc8:	08001f8c 	andi	zero,at,126
 8001ccc:	08001f8c 	andi	zero,at,126
 8001cd0:	08001f8c 	andi	zero,at,126
 8001cd4:	08002864 	muli	zero,at,161
 8001cd8:	08002864 	muli	zero,at,161
 8001cdc:	08002864 	muli	zero,at,161
 8001ce0:	08002864 	muli	zero,at,161
 8001ce4:	08002864 	muli	zero,at,161
 8001ce8:	08002864 	muli	zero,at,161
 8001cec:	08002864 	muli	zero,at,161
 8001cf0:	08002864 	muli	zero,at,161
 8001cf4:	08002864 	muli	zero,at,161
 8001cf8:	08002864 	muli	zero,at,161
 8001cfc:	08001fc0 	call	8001fc <__alt_mem_onchip_memory2_0+0x6001fc>
 8001d00:	0800207c 	xorhi	zero,at,129
 8001d04:	08002864 	muli	zero,at,161
 8001d08:	0800207c 	xorhi	zero,at,129
 8001d0c:	08002864 	muli	zero,at,161
 8001d10:	08002864 	muli	zero,at,161
 8001d14:	08002864 	muli	zero,at,161
 8001d18:	08002864 	muli	zero,at,161
 8001d1c:	0800211c 	xori	zero,at,132
 8001d20:	08002864 	muli	zero,at,161
 8001d24:	08002864 	muli	zero,at,161
 8001d28:	08002128 	cmpgeui	zero,at,132
 8001d2c:	08002864 	muli	zero,at,161
 8001d30:	08002864 	muli	zero,at,161
 8001d34:	08002864 	muli	zero,at,161
 8001d38:	08002864 	muli	zero,at,161
 8001d3c:	08002864 	muli	zero,at,161
 8001d40:	080025a0 	cmpeqi	zero,at,150
 8001d44:	08002864 	muli	zero,at,161
 8001d48:	08002864 	muli	zero,at,161
 8001d4c:	08002600 	call	800260 <__alt_mem_onchip_memory2_0+0x600260>
 8001d50:	08002864 	muli	zero,at,161
 8001d54:	08002864 	muli	zero,at,161
 8001d58:	08002864 	muli	zero,at,161
 8001d5c:	08002864 	muli	zero,at,161
 8001d60:	08002864 	muli	zero,at,161
 8001d64:	08002864 	muli	zero,at,161
 8001d68:	08002864 	muli	zero,at,161
 8001d6c:	08002864 	muli	zero,at,161
 8001d70:	08002864 	muli	zero,at,161
 8001d74:	08002864 	muli	zero,at,161
 8001d78:	08002810 	cmplti	zero,at,160
 8001d7c:	080027b0 	cmpltui	zero,at,158
 8001d80:	0800207c 	xorhi	zero,at,129
 8001d84:	0800207c 	xorhi	zero,at,129
 8001d88:	0800207c 	xorhi	zero,at,129
 8001d8c:	080027c0 	call	80027c <__alt_mem_onchip_memory2_0+0x60027c>
 8001d90:	080027b0 	cmpltui	zero,at,158
 8001d94:	08002864 	muli	zero,at,161
 8001d98:	08002864 	muli	zero,at,161
 8001d9c:	080027cc 	andi	zero,at,159
 8001da0:	08002864 	muli	zero,at,161
 8001da4:	080027dc 	xori	zero,at,159
 8001da8:	080026b0 	cmpltui	zero,at,154
 8001dac:	08001dec 	andhi	zero,at,119
 8001db0:	080026d0 	cmplti	zero,at,155
 8001db4:	08002864 	muli	zero,at,161
 8001db8:	080026dc 	xori	zero,at,155
 8001dbc:	08002864 	muli	zero,at,161
 8001dc0:	08002738 	rdprs	zero,at,156
 8001dc4:	08002864 	muli	zero,at,161
 8001dc8:	08002864 	muli	zero,at,161
 8001dcc:	08002748 	cmpgei	zero,at,157
 8001dd0:	d9003117 	ldw	r4,196(sp)
 8001dd4:	d8802d15 	stw	r2,180(sp)
 8001dd8:	0109c83a 	sub	r4,zero,r4
 8001ddc:	d9003115 	stw	r4,196(sp)
 8001de0:	94800114 	ori	r18,r18,4
 8001de4:	ac400007 	ldb	r17,0(r21)
 8001de8:	003f9706 	br	8001c48 <__alt_data_end+0xf8001c48>
 8001dec:	00800c04 	movi	r2,48
 8001df0:	d9002d17 	ldw	r4,180(sp)
 8001df4:	d9402917 	ldw	r5,164(sp)
 8001df8:	d8802705 	stb	r2,156(sp)
 8001dfc:	00801e04 	movi	r2,120
 8001e00:	d8802745 	stb	r2,157(sp)
 8001e04:	d8002785 	stb	zero,158(sp)
 8001e08:	20c00104 	addi	r3,r4,4
 8001e0c:	24c00017 	ldw	r19,0(r4)
 8001e10:	002d883a 	mov	r22,zero
 8001e14:	90800094 	ori	r2,r18,2
 8001e18:	28029a16 	blt	r5,zero,8002884 <___vfprintf_internal_r+0xdc0>
 8001e1c:	00bfdfc4 	movi	r2,-129
 8001e20:	90a4703a 	and	r18,r18,r2
 8001e24:	d8c02d15 	stw	r3,180(sp)
 8001e28:	94800094 	ori	r18,r18,2
 8001e2c:	9802871e 	bne	r19,zero,800284c <___vfprintf_internal_r+0xd88>
 8001e30:	008200b4 	movhi	r2,2050
 8001e34:	10a89804 	addi	r2,r2,-23968
 8001e38:	d8803915 	stw	r2,228(sp)
 8001e3c:	04401e04 	movi	r17,120
 8001e40:	d8802917 	ldw	r2,164(sp)
 8001e44:	0039883a 	mov	fp,zero
 8001e48:	1001e926 	beq	r2,zero,80025f0 <___vfprintf_internal_r+0xb2c>
 8001e4c:	0027883a 	mov	r19,zero
 8001e50:	002d883a 	mov	r22,zero
 8001e54:	00020506 	br	800266c <___vfprintf_internal_r+0xba8>
 8001e58:	d9002c17 	ldw	r4,176(sp)
 8001e5c:	b80b883a 	mov	r5,r23
 8001e60:	8003d940 	call	8003d94 <__swsetup_r>
 8001e64:	1005ac1e 	bne	r2,zero,8003518 <___vfprintf_internal_r+0x1a54>
 8001e68:	b880030b 	ldhu	r2,12(r23)
 8001e6c:	00c00284 	movi	r3,10
 8001e70:	1080068c 	andi	r2,r2,26
 8001e74:	10ff3c1e 	bne	r2,r3,8001b68 <__alt_data_end+0xf8001b68>
 8001e78:	b880038f 	ldh	r2,14(r23)
 8001e7c:	103f3a16 	blt	r2,zero,8001b68 <__alt_data_end+0xf8001b68>
 8001e80:	d9c02d17 	ldw	r7,180(sp)
 8001e84:	d9002c17 	ldw	r4,176(sp)
 8001e88:	a80d883a 	mov	r6,r21
 8001e8c:	b80b883a 	mov	r5,r23
 8001e90:	8003cd80 	call	8003cd8 <__sbprintf>
 8001e94:	00001106 	br	8001edc <___vfprintf_internal_r+0x418>
 8001e98:	d9002c17 	ldw	r4,176(sp)
 8001e9c:	d9801e04 	addi	r6,sp,120
 8001ea0:	b80b883a 	mov	r5,r23
 8001ea4:	80090c00 	call	80090c0 <__sprint_r>
 8001ea8:	1000081e 	bne	r2,zero,8001ecc <___vfprintf_internal_r+0x408>
 8001eac:	da000404 	addi	r8,sp,16
 8001eb0:	003f5306 	br	8001c00 <__alt_data_end+0xf8001c00>
 8001eb4:	d8802017 	ldw	r2,128(sp)
 8001eb8:	10000426 	beq	r2,zero,8001ecc <___vfprintf_internal_r+0x408>
 8001ebc:	d9002c17 	ldw	r4,176(sp)
 8001ec0:	d9801e04 	addi	r6,sp,120
 8001ec4:	b80b883a 	mov	r5,r23
 8001ec8:	80090c00 	call	80090c0 <__sprint_r>
 8001ecc:	b880030b 	ldhu	r2,12(r23)
 8001ed0:	1080100c 	andi	r2,r2,64
 8001ed4:	1005901e 	bne	r2,zero,8003518 <___vfprintf_internal_r+0x1a54>
 8001ed8:	d8802f17 	ldw	r2,188(sp)
 8001edc:	dfc04717 	ldw	ra,284(sp)
 8001ee0:	df004617 	ldw	fp,280(sp)
 8001ee4:	ddc04517 	ldw	r23,276(sp)
 8001ee8:	dd804417 	ldw	r22,272(sp)
 8001eec:	dd404317 	ldw	r21,268(sp)
 8001ef0:	dd004217 	ldw	r20,264(sp)
 8001ef4:	dcc04117 	ldw	r19,260(sp)
 8001ef8:	dc804017 	ldw	r18,256(sp)
 8001efc:	dc403f17 	ldw	r17,252(sp)
 8001f00:	dc003e17 	ldw	r16,248(sp)
 8001f04:	dec04804 	addi	sp,sp,288
 8001f08:	f800283a 	ret
 8001f0c:	d9002c17 	ldw	r4,176(sp)
 8001f10:	8005d680 	call	8005d68 <__sinit>
 8001f14:	003f0406 	br	8001b28 <__alt_data_end+0xf8001b28>
 8001f18:	d8802d17 	ldw	r2,180(sp)
 8001f1c:	d9002d17 	ldw	r4,180(sp)
 8001f20:	10800017 	ldw	r2,0(r2)
 8001f24:	d8803115 	stw	r2,196(sp)
 8001f28:	20800104 	addi	r2,r4,4
 8001f2c:	d9003117 	ldw	r4,196(sp)
 8001f30:	203fa716 	blt	r4,zero,8001dd0 <__alt_data_end+0xf8001dd0>
 8001f34:	d8802d15 	stw	r2,180(sp)
 8001f38:	ac400007 	ldb	r17,0(r21)
 8001f3c:	003f4206 	br	8001c48 <__alt_data_end+0xf8001c48>
 8001f40:	ac400007 	ldb	r17,0(r21)
 8001f44:	aac00044 	addi	r11,r21,1
 8001f48:	8a872826 	beq	r17,r10,8003bec <___vfprintf_internal_r+0x2128>
 8001f4c:	88bff404 	addi	r2,r17,-48
 8001f50:	0009883a 	mov	r4,zero
 8001f54:	30867d36 	bltu	r6,r2,800394c <___vfprintf_internal_r+0x1e88>
 8001f58:	5c400007 	ldb	r17,0(r11)
 8001f5c:	210002a4 	muli	r4,r4,10
 8001f60:	5d400044 	addi	r21,r11,1
 8001f64:	a817883a 	mov	r11,r21
 8001f68:	2089883a 	add	r4,r4,r2
 8001f6c:	88bff404 	addi	r2,r17,-48
 8001f70:	30bff92e 	bgeu	r6,r2,8001f58 <__alt_data_end+0xf8001f58>
 8001f74:	2005c916 	blt	r4,zero,800369c <___vfprintf_internal_r+0x1bd8>
 8001f78:	d9002915 	stw	r4,164(sp)
 8001f7c:	003f3306 	br	8001c4c <__alt_data_end+0xf8001c4c>
 8001f80:	94802014 	ori	r18,r18,128
 8001f84:	ac400007 	ldb	r17,0(r21)
 8001f88:	003f2f06 	br	8001c48 <__alt_data_end+0xf8001c48>
 8001f8c:	a809883a 	mov	r4,r21
 8001f90:	d8003115 	stw	zero,196(sp)
 8001f94:	88bff404 	addi	r2,r17,-48
 8001f98:	0017883a 	mov	r11,zero
 8001f9c:	24400007 	ldb	r17,0(r4)
 8001fa0:	5ac002a4 	muli	r11,r11,10
 8001fa4:	ad400044 	addi	r21,r21,1
 8001fa8:	a809883a 	mov	r4,r21
 8001fac:	12d7883a 	add	r11,r2,r11
 8001fb0:	88bff404 	addi	r2,r17,-48
 8001fb4:	30bff92e 	bgeu	r6,r2,8001f9c <__alt_data_end+0xf8001f9c>
 8001fb8:	dac03115 	stw	r11,196(sp)
 8001fbc:	003f2306 	br	8001c4c <__alt_data_end+0xf8001c4c>
 8001fc0:	18c03fcc 	andi	r3,r3,255
 8001fc4:	18072b1e 	bne	r3,zero,8003c74 <___vfprintf_internal_r+0x21b0>
 8001fc8:	94800414 	ori	r18,r18,16
 8001fcc:	9080080c 	andi	r2,r18,32
 8001fd0:	10037b26 	beq	r2,zero,8002dc0 <___vfprintf_internal_r+0x12fc>
 8001fd4:	d9402d17 	ldw	r5,180(sp)
 8001fd8:	28800117 	ldw	r2,4(r5)
 8001fdc:	2cc00017 	ldw	r19,0(r5)
 8001fe0:	29400204 	addi	r5,r5,8
 8001fe4:	d9402d15 	stw	r5,180(sp)
 8001fe8:	102d883a 	mov	r22,r2
 8001fec:	10044b16 	blt	r2,zero,800311c <___vfprintf_internal_r+0x1658>
 8001ff0:	d9402917 	ldw	r5,164(sp)
 8001ff4:	df002783 	ldbu	fp,158(sp)
 8001ff8:	2803bc16 	blt	r5,zero,8002eec <___vfprintf_internal_r+0x1428>
 8001ffc:	00ffdfc4 	movi	r3,-129
 8002000:	9d84b03a 	or	r2,r19,r22
 8002004:	90e4703a 	and	r18,r18,r3
 8002008:	10017726 	beq	r2,zero,80025e8 <___vfprintf_internal_r+0xb24>
 800200c:	b0038326 	beq	r22,zero,8002e1c <___vfprintf_internal_r+0x1358>
 8002010:	dc402a15 	stw	r17,168(sp)
 8002014:	dc001e04 	addi	r16,sp,120
 8002018:	b023883a 	mov	r17,r22
 800201c:	402d883a 	mov	r22,r8
 8002020:	9809883a 	mov	r4,r19
 8002024:	880b883a 	mov	r5,r17
 8002028:	01800284 	movi	r6,10
 800202c:	000f883a 	mov	r7,zero
 8002030:	800b4b80 	call	800b4b8 <__umoddi3>
 8002034:	10800c04 	addi	r2,r2,48
 8002038:	843fffc4 	addi	r16,r16,-1
 800203c:	9809883a 	mov	r4,r19
 8002040:	880b883a 	mov	r5,r17
 8002044:	80800005 	stb	r2,0(r16)
 8002048:	01800284 	movi	r6,10
 800204c:	000f883a 	mov	r7,zero
 8002050:	800af400 	call	800af40 <__udivdi3>
 8002054:	1027883a 	mov	r19,r2
 8002058:	10c4b03a 	or	r2,r2,r3
 800205c:	1823883a 	mov	r17,r3
 8002060:	103fef1e 	bne	r2,zero,8002020 <__alt_data_end+0xf8002020>
 8002064:	d8c02817 	ldw	r3,160(sp)
 8002068:	dc402a17 	ldw	r17,168(sp)
 800206c:	b011883a 	mov	r8,r22
 8002070:	1c07c83a 	sub	r3,r3,r16
 8002074:	d8c02e15 	stw	r3,184(sp)
 8002078:	00005906 	br	80021e0 <___vfprintf_internal_r+0x71c>
 800207c:	18c03fcc 	andi	r3,r3,255
 8002080:	1806fa1e 	bne	r3,zero,8003c6c <___vfprintf_internal_r+0x21a8>
 8002084:	9080020c 	andi	r2,r18,8
 8002088:	10048a26 	beq	r2,zero,80032b4 <___vfprintf_internal_r+0x17f0>
 800208c:	d8c02d17 	ldw	r3,180(sp)
 8002090:	d9002d17 	ldw	r4,180(sp)
 8002094:	d9402d17 	ldw	r5,180(sp)
 8002098:	18c00017 	ldw	r3,0(r3)
 800209c:	21000117 	ldw	r4,4(r4)
 80020a0:	29400204 	addi	r5,r5,8
 80020a4:	d8c03615 	stw	r3,216(sp)
 80020a8:	d9003815 	stw	r4,224(sp)
 80020ac:	d9402d15 	stw	r5,180(sp)
 80020b0:	d9003617 	ldw	r4,216(sp)
 80020b4:	d9403817 	ldw	r5,224(sp)
 80020b8:	da003d15 	stw	r8,244(sp)
 80020bc:	04000044 	movi	r16,1
 80020c0:	8008ce40 	call	8008ce4 <__fpclassifyd>
 80020c4:	da003d17 	ldw	r8,244(sp)
 80020c8:	14041f1e 	bne	r2,r16,8003148 <___vfprintf_internal_r+0x1684>
 80020cc:	d9003617 	ldw	r4,216(sp)
 80020d0:	d9403817 	ldw	r5,224(sp)
 80020d4:	000d883a 	mov	r6,zero
 80020d8:	000f883a 	mov	r7,zero
 80020dc:	800ce9c0 	call	800ce9c <__ledf2>
 80020e0:	da003d17 	ldw	r8,244(sp)
 80020e4:	1005be16 	blt	r2,zero,80037e0 <___vfprintf_internal_r+0x1d1c>
 80020e8:	df002783 	ldbu	fp,158(sp)
 80020ec:	008011c4 	movi	r2,71
 80020f0:	1445330e 	bge	r2,r17,80035c0 <___vfprintf_internal_r+0x1afc>
 80020f4:	040200b4 	movhi	r16,2050
 80020f8:	84289004 	addi	r16,r16,-24000
 80020fc:	00c000c4 	movi	r3,3
 8002100:	00bfdfc4 	movi	r2,-129
 8002104:	d8c02a15 	stw	r3,168(sp)
 8002108:	90a4703a 	and	r18,r18,r2
 800210c:	d8c02e15 	stw	r3,184(sp)
 8002110:	d8002915 	stw	zero,164(sp)
 8002114:	d8003215 	stw	zero,200(sp)
 8002118:	00003706 	br	80021f8 <___vfprintf_internal_r+0x734>
 800211c:	94800214 	ori	r18,r18,8
 8002120:	ac400007 	ldb	r17,0(r21)
 8002124:	003ec806 	br	8001c48 <__alt_data_end+0xf8001c48>
 8002128:	18c03fcc 	andi	r3,r3,255
 800212c:	1806db1e 	bne	r3,zero,8003c9c <___vfprintf_internal_r+0x21d8>
 8002130:	94800414 	ori	r18,r18,16
 8002134:	9080080c 	andi	r2,r18,32
 8002138:	1002d826 	beq	r2,zero,8002c9c <___vfprintf_internal_r+0x11d8>
 800213c:	d9402d17 	ldw	r5,180(sp)
 8002140:	d8c02917 	ldw	r3,164(sp)
 8002144:	d8002785 	stb	zero,158(sp)
 8002148:	28800204 	addi	r2,r5,8
 800214c:	2cc00017 	ldw	r19,0(r5)
 8002150:	2d800117 	ldw	r22,4(r5)
 8002154:	18048f16 	blt	r3,zero,8003394 <___vfprintf_internal_r+0x18d0>
 8002158:	013fdfc4 	movi	r4,-129
 800215c:	9d86b03a 	or	r3,r19,r22
 8002160:	d8802d15 	stw	r2,180(sp)
 8002164:	9124703a 	and	r18,r18,r4
 8002168:	1802d91e 	bne	r3,zero,8002cd0 <___vfprintf_internal_r+0x120c>
 800216c:	d8c02917 	ldw	r3,164(sp)
 8002170:	0039883a 	mov	fp,zero
 8002174:	1805c326 	beq	r3,zero,8003884 <___vfprintf_internal_r+0x1dc0>
 8002178:	0027883a 	mov	r19,zero
 800217c:	002d883a 	mov	r22,zero
 8002180:	dc001e04 	addi	r16,sp,120
 8002184:	9806d0fa 	srli	r3,r19,3
 8002188:	b008977a 	slli	r4,r22,29
 800218c:	b02cd0fa 	srli	r22,r22,3
 8002190:	9cc001cc 	andi	r19,r19,7
 8002194:	98800c04 	addi	r2,r19,48
 8002198:	843fffc4 	addi	r16,r16,-1
 800219c:	20e6b03a 	or	r19,r4,r3
 80021a0:	80800005 	stb	r2,0(r16)
 80021a4:	9d86b03a 	or	r3,r19,r22
 80021a8:	183ff61e 	bne	r3,zero,8002184 <__alt_data_end+0xf8002184>
 80021ac:	90c0004c 	andi	r3,r18,1
 80021b0:	18013b26 	beq	r3,zero,80026a0 <___vfprintf_internal_r+0xbdc>
 80021b4:	10803fcc 	andi	r2,r2,255
 80021b8:	1080201c 	xori	r2,r2,128
 80021bc:	10bfe004 	addi	r2,r2,-128
 80021c0:	00c00c04 	movi	r3,48
 80021c4:	10c13626 	beq	r2,r3,80026a0 <___vfprintf_internal_r+0xbdc>
 80021c8:	80ffffc5 	stb	r3,-1(r16)
 80021cc:	d8c02817 	ldw	r3,160(sp)
 80021d0:	80bfffc4 	addi	r2,r16,-1
 80021d4:	1021883a 	mov	r16,r2
 80021d8:	1887c83a 	sub	r3,r3,r2
 80021dc:	d8c02e15 	stw	r3,184(sp)
 80021e0:	d8802e17 	ldw	r2,184(sp)
 80021e4:	d9002917 	ldw	r4,164(sp)
 80021e8:	1100010e 	bge	r2,r4,80021f0 <___vfprintf_internal_r+0x72c>
 80021ec:	2005883a 	mov	r2,r4
 80021f0:	d8802a15 	stw	r2,168(sp)
 80021f4:	d8003215 	stw	zero,200(sp)
 80021f8:	e7003fcc 	andi	fp,fp,255
 80021fc:	e700201c 	xori	fp,fp,128
 8002200:	e73fe004 	addi	fp,fp,-128
 8002204:	e0000326 	beq	fp,zero,8002214 <___vfprintf_internal_r+0x750>
 8002208:	d8c02a17 	ldw	r3,168(sp)
 800220c:	18c00044 	addi	r3,r3,1
 8002210:	d8c02a15 	stw	r3,168(sp)
 8002214:	90c0008c 	andi	r3,r18,2
 8002218:	d8c02b15 	stw	r3,172(sp)
 800221c:	18000326 	beq	r3,zero,800222c <___vfprintf_internal_r+0x768>
 8002220:	d8c02a17 	ldw	r3,168(sp)
 8002224:	18c00084 	addi	r3,r3,2
 8002228:	d8c02a15 	stw	r3,168(sp)
 800222c:	90c0210c 	andi	r3,r18,132
 8002230:	d8c03015 	stw	r3,192(sp)
 8002234:	1801a31e 	bne	r3,zero,80028c4 <___vfprintf_internal_r+0xe00>
 8002238:	d9003117 	ldw	r4,196(sp)
 800223c:	d8c02a17 	ldw	r3,168(sp)
 8002240:	20e7c83a 	sub	r19,r4,r3
 8002244:	04c19f0e 	bge	zero,r19,80028c4 <___vfprintf_internal_r+0xe00>
 8002248:	02400404 	movi	r9,16
 800224c:	d8c02017 	ldw	r3,128(sp)
 8002250:	d8801f17 	ldw	r2,124(sp)
 8002254:	4cc50d0e 	bge	r9,r19,800368c <___vfprintf_internal_r+0x1bc8>
 8002258:	014200b4 	movhi	r5,2050
 800225c:	2968a384 	addi	r5,r5,-23922
 8002260:	dc403b15 	stw	r17,236(sp)
 8002264:	d9403515 	stw	r5,212(sp)
 8002268:	9823883a 	mov	r17,r19
 800226c:	482d883a 	mov	r22,r9
 8002270:	9027883a 	mov	r19,r18
 8002274:	070001c4 	movi	fp,7
 8002278:	8025883a 	mov	r18,r16
 800227c:	dc002c17 	ldw	r16,176(sp)
 8002280:	00000306 	br	8002290 <___vfprintf_internal_r+0x7cc>
 8002284:	8c7ffc04 	addi	r17,r17,-16
 8002288:	42000204 	addi	r8,r8,8
 800228c:	b440130e 	bge	r22,r17,80022dc <___vfprintf_internal_r+0x818>
 8002290:	010200b4 	movhi	r4,2050
 8002294:	18c00404 	addi	r3,r3,16
 8002298:	10800044 	addi	r2,r2,1
 800229c:	2128a384 	addi	r4,r4,-23922
 80022a0:	41000015 	stw	r4,0(r8)
 80022a4:	45800115 	stw	r22,4(r8)
 80022a8:	d8c02015 	stw	r3,128(sp)
 80022ac:	d8801f15 	stw	r2,124(sp)
 80022b0:	e0bff40e 	bge	fp,r2,8002284 <__alt_data_end+0xf8002284>
 80022b4:	d9801e04 	addi	r6,sp,120
 80022b8:	b80b883a 	mov	r5,r23
 80022bc:	8009883a 	mov	r4,r16
 80022c0:	80090c00 	call	80090c0 <__sprint_r>
 80022c4:	103f011e 	bne	r2,zero,8001ecc <__alt_data_end+0xf8001ecc>
 80022c8:	8c7ffc04 	addi	r17,r17,-16
 80022cc:	d8c02017 	ldw	r3,128(sp)
 80022d0:	d8801f17 	ldw	r2,124(sp)
 80022d4:	da000404 	addi	r8,sp,16
 80022d8:	b47fed16 	blt	r22,r17,8002290 <__alt_data_end+0xf8002290>
 80022dc:	9021883a 	mov	r16,r18
 80022e0:	9825883a 	mov	r18,r19
 80022e4:	8827883a 	mov	r19,r17
 80022e8:	dc403b17 	ldw	r17,236(sp)
 80022ec:	d9403517 	ldw	r5,212(sp)
 80022f0:	98c7883a 	add	r3,r19,r3
 80022f4:	10800044 	addi	r2,r2,1
 80022f8:	41400015 	stw	r5,0(r8)
 80022fc:	44c00115 	stw	r19,4(r8)
 8002300:	d8c02015 	stw	r3,128(sp)
 8002304:	d8801f15 	stw	r2,124(sp)
 8002308:	010001c4 	movi	r4,7
 800230c:	2082a316 	blt	r4,r2,8002d9c <___vfprintf_internal_r+0x12d8>
 8002310:	df002787 	ldb	fp,158(sp)
 8002314:	42000204 	addi	r8,r8,8
 8002318:	e0000c26 	beq	fp,zero,800234c <___vfprintf_internal_r+0x888>
 800231c:	d8801f17 	ldw	r2,124(sp)
 8002320:	d9002784 	addi	r4,sp,158
 8002324:	18c00044 	addi	r3,r3,1
 8002328:	10800044 	addi	r2,r2,1
 800232c:	41000015 	stw	r4,0(r8)
 8002330:	01000044 	movi	r4,1
 8002334:	41000115 	stw	r4,4(r8)
 8002338:	d8c02015 	stw	r3,128(sp)
 800233c:	d8801f15 	stw	r2,124(sp)
 8002340:	010001c4 	movi	r4,7
 8002344:	20823c16 	blt	r4,r2,8002c38 <___vfprintf_internal_r+0x1174>
 8002348:	42000204 	addi	r8,r8,8
 800234c:	d8802b17 	ldw	r2,172(sp)
 8002350:	10000c26 	beq	r2,zero,8002384 <___vfprintf_internal_r+0x8c0>
 8002354:	d8801f17 	ldw	r2,124(sp)
 8002358:	d9002704 	addi	r4,sp,156
 800235c:	18c00084 	addi	r3,r3,2
 8002360:	10800044 	addi	r2,r2,1
 8002364:	41000015 	stw	r4,0(r8)
 8002368:	01000084 	movi	r4,2
 800236c:	41000115 	stw	r4,4(r8)
 8002370:	d8c02015 	stw	r3,128(sp)
 8002374:	d8801f15 	stw	r2,124(sp)
 8002378:	010001c4 	movi	r4,7
 800237c:	20823616 	blt	r4,r2,8002c58 <___vfprintf_internal_r+0x1194>
 8002380:	42000204 	addi	r8,r8,8
 8002384:	d9003017 	ldw	r4,192(sp)
 8002388:	00802004 	movi	r2,128
 800238c:	20819926 	beq	r4,r2,80029f4 <___vfprintf_internal_r+0xf30>
 8002390:	d9402917 	ldw	r5,164(sp)
 8002394:	d8802e17 	ldw	r2,184(sp)
 8002398:	28adc83a 	sub	r22,r5,r2
 800239c:	0580310e 	bge	zero,r22,8002464 <___vfprintf_internal_r+0x9a0>
 80023a0:	07000404 	movi	fp,16
 80023a4:	d8801f17 	ldw	r2,124(sp)
 80023a8:	e584140e 	bge	fp,r22,80033fc <___vfprintf_internal_r+0x1938>
 80023ac:	014200b4 	movhi	r5,2050
 80023b0:	29689f84 	addi	r5,r5,-23938
 80023b4:	dc402915 	stw	r17,164(sp)
 80023b8:	d9402b15 	stw	r5,172(sp)
 80023bc:	b023883a 	mov	r17,r22
 80023c0:	04c001c4 	movi	r19,7
 80023c4:	a82d883a 	mov	r22,r21
 80023c8:	902b883a 	mov	r21,r18
 80023cc:	8025883a 	mov	r18,r16
 80023d0:	dc002c17 	ldw	r16,176(sp)
 80023d4:	00000306 	br	80023e4 <___vfprintf_internal_r+0x920>
 80023d8:	8c7ffc04 	addi	r17,r17,-16
 80023dc:	42000204 	addi	r8,r8,8
 80023e0:	e440110e 	bge	fp,r17,8002428 <___vfprintf_internal_r+0x964>
 80023e4:	18c00404 	addi	r3,r3,16
 80023e8:	10800044 	addi	r2,r2,1
 80023ec:	45000015 	stw	r20,0(r8)
 80023f0:	47000115 	stw	fp,4(r8)
 80023f4:	d8c02015 	stw	r3,128(sp)
 80023f8:	d8801f15 	stw	r2,124(sp)
 80023fc:	98bff60e 	bge	r19,r2,80023d8 <__alt_data_end+0xf80023d8>
 8002400:	d9801e04 	addi	r6,sp,120
 8002404:	b80b883a 	mov	r5,r23
 8002408:	8009883a 	mov	r4,r16
 800240c:	80090c00 	call	80090c0 <__sprint_r>
 8002410:	103eae1e 	bne	r2,zero,8001ecc <__alt_data_end+0xf8001ecc>
 8002414:	8c7ffc04 	addi	r17,r17,-16
 8002418:	d8c02017 	ldw	r3,128(sp)
 800241c:	d8801f17 	ldw	r2,124(sp)
 8002420:	da000404 	addi	r8,sp,16
 8002424:	e47fef16 	blt	fp,r17,80023e4 <__alt_data_end+0xf80023e4>
 8002428:	9021883a 	mov	r16,r18
 800242c:	a825883a 	mov	r18,r21
 8002430:	b02b883a 	mov	r21,r22
 8002434:	882d883a 	mov	r22,r17
 8002438:	dc402917 	ldw	r17,164(sp)
 800243c:	d9002b17 	ldw	r4,172(sp)
 8002440:	1d87883a 	add	r3,r3,r22
 8002444:	10800044 	addi	r2,r2,1
 8002448:	41000015 	stw	r4,0(r8)
 800244c:	45800115 	stw	r22,4(r8)
 8002450:	d8c02015 	stw	r3,128(sp)
 8002454:	d8801f15 	stw	r2,124(sp)
 8002458:	010001c4 	movi	r4,7
 800245c:	2081ee16 	blt	r4,r2,8002c18 <___vfprintf_internal_r+0x1154>
 8002460:	42000204 	addi	r8,r8,8
 8002464:	9080400c 	andi	r2,r18,256
 8002468:	1001181e 	bne	r2,zero,80028cc <___vfprintf_internal_r+0xe08>
 800246c:	d9402e17 	ldw	r5,184(sp)
 8002470:	d8801f17 	ldw	r2,124(sp)
 8002474:	44000015 	stw	r16,0(r8)
 8002478:	1947883a 	add	r3,r3,r5
 800247c:	10800044 	addi	r2,r2,1
 8002480:	41400115 	stw	r5,4(r8)
 8002484:	d8c02015 	stw	r3,128(sp)
 8002488:	d8801f15 	stw	r2,124(sp)
 800248c:	010001c4 	movi	r4,7
 8002490:	2081d316 	blt	r4,r2,8002be0 <___vfprintf_internal_r+0x111c>
 8002494:	42000204 	addi	r8,r8,8
 8002498:	9480010c 	andi	r18,r18,4
 800249c:	90003226 	beq	r18,zero,8002568 <___vfprintf_internal_r+0xaa4>
 80024a0:	d9403117 	ldw	r5,196(sp)
 80024a4:	d8802a17 	ldw	r2,168(sp)
 80024a8:	28a1c83a 	sub	r16,r5,r2
 80024ac:	04002e0e 	bge	zero,r16,8002568 <___vfprintf_internal_r+0xaa4>
 80024b0:	04400404 	movi	r17,16
 80024b4:	d8801f17 	ldw	r2,124(sp)
 80024b8:	8c04a20e 	bge	r17,r16,8003744 <___vfprintf_internal_r+0x1c80>
 80024bc:	014200b4 	movhi	r5,2050
 80024c0:	2968a384 	addi	r5,r5,-23922
 80024c4:	d9403515 	stw	r5,212(sp)
 80024c8:	048001c4 	movi	r18,7
 80024cc:	dcc02c17 	ldw	r19,176(sp)
 80024d0:	00000306 	br	80024e0 <___vfprintf_internal_r+0xa1c>
 80024d4:	843ffc04 	addi	r16,r16,-16
 80024d8:	42000204 	addi	r8,r8,8
 80024dc:	8c00130e 	bge	r17,r16,800252c <___vfprintf_internal_r+0xa68>
 80024e0:	010200b4 	movhi	r4,2050
 80024e4:	18c00404 	addi	r3,r3,16
 80024e8:	10800044 	addi	r2,r2,1
 80024ec:	2128a384 	addi	r4,r4,-23922
 80024f0:	41000015 	stw	r4,0(r8)
 80024f4:	44400115 	stw	r17,4(r8)
 80024f8:	d8c02015 	stw	r3,128(sp)
 80024fc:	d8801f15 	stw	r2,124(sp)
 8002500:	90bff40e 	bge	r18,r2,80024d4 <__alt_data_end+0xf80024d4>
 8002504:	d9801e04 	addi	r6,sp,120
 8002508:	b80b883a 	mov	r5,r23
 800250c:	9809883a 	mov	r4,r19
 8002510:	80090c00 	call	80090c0 <__sprint_r>
 8002514:	103e6d1e 	bne	r2,zero,8001ecc <__alt_data_end+0xf8001ecc>
 8002518:	843ffc04 	addi	r16,r16,-16
 800251c:	d8c02017 	ldw	r3,128(sp)
 8002520:	d8801f17 	ldw	r2,124(sp)
 8002524:	da000404 	addi	r8,sp,16
 8002528:	8c3fed16 	blt	r17,r16,80024e0 <__alt_data_end+0xf80024e0>
 800252c:	d9403517 	ldw	r5,212(sp)
 8002530:	1c07883a 	add	r3,r3,r16
 8002534:	10800044 	addi	r2,r2,1
 8002538:	41400015 	stw	r5,0(r8)
 800253c:	44000115 	stw	r16,4(r8)
 8002540:	d8c02015 	stw	r3,128(sp)
 8002544:	d8801f15 	stw	r2,124(sp)
 8002548:	010001c4 	movi	r4,7
 800254c:	2080060e 	bge	r4,r2,8002568 <___vfprintf_internal_r+0xaa4>
 8002550:	d9002c17 	ldw	r4,176(sp)
 8002554:	d9801e04 	addi	r6,sp,120
 8002558:	b80b883a 	mov	r5,r23
 800255c:	80090c00 	call	80090c0 <__sprint_r>
 8002560:	103e5a1e 	bne	r2,zero,8001ecc <__alt_data_end+0xf8001ecc>
 8002564:	d8c02017 	ldw	r3,128(sp)
 8002568:	d8803117 	ldw	r2,196(sp)
 800256c:	d9002a17 	ldw	r4,168(sp)
 8002570:	1100010e 	bge	r2,r4,8002578 <___vfprintf_internal_r+0xab4>
 8002574:	2005883a 	mov	r2,r4
 8002578:	d9402f17 	ldw	r5,188(sp)
 800257c:	288b883a 	add	r5,r5,r2
 8002580:	d9402f15 	stw	r5,188(sp)
 8002584:	18019e1e 	bne	r3,zero,8002c00 <___vfprintf_internal_r+0x113c>
 8002588:	a8800007 	ldb	r2,0(r21)
 800258c:	d8001f15 	stw	zero,124(sp)
 8002590:	da000404 	addi	r8,sp,16
 8002594:	103d851e 	bne	r2,zero,8001bac <__alt_data_end+0xf8001bac>
 8002598:	a821883a 	mov	r16,r21
 800259c:	003d9b06 	br	8001c0c <__alt_data_end+0xf8001c0c>
 80025a0:	18c03fcc 	andi	r3,r3,255
 80025a4:	1805c11e 	bne	r3,zero,8003cac <___vfprintf_internal_r+0x21e8>
 80025a8:	94800414 	ori	r18,r18,16
 80025ac:	9080080c 	andi	r2,r18,32
 80025b0:	10020c26 	beq	r2,zero,8002de4 <___vfprintf_internal_r+0x1320>
 80025b4:	d8802d17 	ldw	r2,180(sp)
 80025b8:	d9002917 	ldw	r4,164(sp)
 80025bc:	d8002785 	stb	zero,158(sp)
 80025c0:	10c00204 	addi	r3,r2,8
 80025c4:	14c00017 	ldw	r19,0(r2)
 80025c8:	15800117 	ldw	r22,4(r2)
 80025cc:	20040f16 	blt	r4,zero,800360c <___vfprintf_internal_r+0x1b48>
 80025d0:	013fdfc4 	movi	r4,-129
 80025d4:	9d84b03a 	or	r2,r19,r22
 80025d8:	d8c02d15 	stw	r3,180(sp)
 80025dc:	9124703a 	and	r18,r18,r4
 80025e0:	0039883a 	mov	fp,zero
 80025e4:	103e891e 	bne	r2,zero,800200c <__alt_data_end+0xf800200c>
 80025e8:	d9002917 	ldw	r4,164(sp)
 80025ec:	2002c11e 	bne	r4,zero,80030f4 <___vfprintf_internal_r+0x1630>
 80025f0:	d8002915 	stw	zero,164(sp)
 80025f4:	d8002e15 	stw	zero,184(sp)
 80025f8:	dc001e04 	addi	r16,sp,120
 80025fc:	003ef806 	br	80021e0 <__alt_data_end+0xf80021e0>
 8002600:	18c03fcc 	andi	r3,r3,255
 8002604:	18059d1e 	bne	r3,zero,8003c7c <___vfprintf_internal_r+0x21b8>
 8002608:	014200b4 	movhi	r5,2050
 800260c:	29689304 	addi	r5,r5,-23988
 8002610:	d9403915 	stw	r5,228(sp)
 8002614:	9080080c 	andi	r2,r18,32
 8002618:	10005226 	beq	r2,zero,8002764 <___vfprintf_internal_r+0xca0>
 800261c:	d8802d17 	ldw	r2,180(sp)
 8002620:	14c00017 	ldw	r19,0(r2)
 8002624:	15800117 	ldw	r22,4(r2)
 8002628:	10800204 	addi	r2,r2,8
 800262c:	d8802d15 	stw	r2,180(sp)
 8002630:	9080004c 	andi	r2,r18,1
 8002634:	10019026 	beq	r2,zero,8002c78 <___vfprintf_internal_r+0x11b4>
 8002638:	9d84b03a 	or	r2,r19,r22
 800263c:	10036926 	beq	r2,zero,80033e4 <___vfprintf_internal_r+0x1920>
 8002640:	d8c02917 	ldw	r3,164(sp)
 8002644:	00800c04 	movi	r2,48
 8002648:	d8802705 	stb	r2,156(sp)
 800264c:	dc402745 	stb	r17,157(sp)
 8002650:	d8002785 	stb	zero,158(sp)
 8002654:	90800094 	ori	r2,r18,2
 8002658:	18045d16 	blt	r3,zero,80037d0 <___vfprintf_internal_r+0x1d0c>
 800265c:	00bfdfc4 	movi	r2,-129
 8002660:	90a4703a 	and	r18,r18,r2
 8002664:	94800094 	ori	r18,r18,2
 8002668:	0039883a 	mov	fp,zero
 800266c:	d9003917 	ldw	r4,228(sp)
 8002670:	dc001e04 	addi	r16,sp,120
 8002674:	988003cc 	andi	r2,r19,15
 8002678:	b006973a 	slli	r3,r22,28
 800267c:	2085883a 	add	r2,r4,r2
 8002680:	9826d13a 	srli	r19,r19,4
 8002684:	10800003 	ldbu	r2,0(r2)
 8002688:	b02cd13a 	srli	r22,r22,4
 800268c:	843fffc4 	addi	r16,r16,-1
 8002690:	1ce6b03a 	or	r19,r3,r19
 8002694:	80800005 	stb	r2,0(r16)
 8002698:	9d84b03a 	or	r2,r19,r22
 800269c:	103ff51e 	bne	r2,zero,8002674 <__alt_data_end+0xf8002674>
 80026a0:	d8c02817 	ldw	r3,160(sp)
 80026a4:	1c07c83a 	sub	r3,r3,r16
 80026a8:	d8c02e15 	stw	r3,184(sp)
 80026ac:	003ecc06 	br	80021e0 <__alt_data_end+0xf80021e0>
 80026b0:	18c03fcc 	andi	r3,r3,255
 80026b4:	183e9f26 	beq	r3,zero,8002134 <__alt_data_end+0xf8002134>
 80026b8:	d9c02785 	stb	r7,158(sp)
 80026bc:	003e9d06 	br	8002134 <__alt_data_end+0xf8002134>
 80026c0:	00c00044 	movi	r3,1
 80026c4:	01c00ac4 	movi	r7,43
 80026c8:	ac400007 	ldb	r17,0(r21)
 80026cc:	003d5e06 	br	8001c48 <__alt_data_end+0xf8001c48>
 80026d0:	94800814 	ori	r18,r18,32
 80026d4:	ac400007 	ldb	r17,0(r21)
 80026d8:	003d5b06 	br	8001c48 <__alt_data_end+0xf8001c48>
 80026dc:	d8c02d17 	ldw	r3,180(sp)
 80026e0:	d8002785 	stb	zero,158(sp)
 80026e4:	1c000017 	ldw	r16,0(r3)
 80026e8:	1cc00104 	addi	r19,r3,4
 80026ec:	80041926 	beq	r16,zero,8003754 <___vfprintf_internal_r+0x1c90>
 80026f0:	d9002917 	ldw	r4,164(sp)
 80026f4:	2003d016 	blt	r4,zero,8003638 <___vfprintf_internal_r+0x1b74>
 80026f8:	200d883a 	mov	r6,r4
 80026fc:	000b883a 	mov	r5,zero
 8002700:	8009883a 	mov	r4,r16
 8002704:	da003d15 	stw	r8,244(sp)
 8002708:	80072d40 	call	80072d4 <memchr>
 800270c:	da003d17 	ldw	r8,244(sp)
 8002710:	10045426 	beq	r2,zero,8003864 <___vfprintf_internal_r+0x1da0>
 8002714:	1405c83a 	sub	r2,r2,r16
 8002718:	d8802e15 	stw	r2,184(sp)
 800271c:	1003cc16 	blt	r2,zero,8003650 <___vfprintf_internal_r+0x1b8c>
 8002720:	df002783 	ldbu	fp,158(sp)
 8002724:	d8802a15 	stw	r2,168(sp)
 8002728:	dcc02d15 	stw	r19,180(sp)
 800272c:	d8002915 	stw	zero,164(sp)
 8002730:	d8003215 	stw	zero,200(sp)
 8002734:	003eb006 	br	80021f8 <__alt_data_end+0xf80021f8>
 8002738:	18c03fcc 	andi	r3,r3,255
 800273c:	183f9b26 	beq	r3,zero,80025ac <__alt_data_end+0xf80025ac>
 8002740:	d9c02785 	stb	r7,158(sp)
 8002744:	003f9906 	br	80025ac <__alt_data_end+0xf80025ac>
 8002748:	18c03fcc 	andi	r3,r3,255
 800274c:	1805551e 	bne	r3,zero,8003ca4 <___vfprintf_internal_r+0x21e0>
 8002750:	014200b4 	movhi	r5,2050
 8002754:	29689804 	addi	r5,r5,-23968
 8002758:	d9403915 	stw	r5,228(sp)
 800275c:	9080080c 	andi	r2,r18,32
 8002760:	103fae1e 	bne	r2,zero,800261c <__alt_data_end+0xf800261c>
 8002764:	9080040c 	andi	r2,r18,16
 8002768:	1002de26 	beq	r2,zero,80032e4 <___vfprintf_internal_r+0x1820>
 800276c:	d8c02d17 	ldw	r3,180(sp)
 8002770:	002d883a 	mov	r22,zero
 8002774:	1cc00017 	ldw	r19,0(r3)
 8002778:	18c00104 	addi	r3,r3,4
 800277c:	d8c02d15 	stw	r3,180(sp)
 8002780:	003fab06 	br	8002630 <__alt_data_end+0xf8002630>
 8002784:	38803fcc 	andi	r2,r7,255
 8002788:	1080201c 	xori	r2,r2,128
 800278c:	10bfe004 	addi	r2,r2,-128
 8002790:	1002d21e 	bne	r2,zero,80032dc <___vfprintf_internal_r+0x1818>
 8002794:	00c00044 	movi	r3,1
 8002798:	01c00804 	movi	r7,32
 800279c:	ac400007 	ldb	r17,0(r21)
 80027a0:	003d2906 	br	8001c48 <__alt_data_end+0xf8001c48>
 80027a4:	94800054 	ori	r18,r18,1
 80027a8:	ac400007 	ldb	r17,0(r21)
 80027ac:	003d2606 	br	8001c48 <__alt_data_end+0xf8001c48>
 80027b0:	18c03fcc 	andi	r3,r3,255
 80027b4:	183e0526 	beq	r3,zero,8001fcc <__alt_data_end+0xf8001fcc>
 80027b8:	d9c02785 	stb	r7,158(sp)
 80027bc:	003e0306 	br	8001fcc <__alt_data_end+0xf8001fcc>
 80027c0:	94801014 	ori	r18,r18,64
 80027c4:	ac400007 	ldb	r17,0(r21)
 80027c8:	003d1f06 	br	8001c48 <__alt_data_end+0xf8001c48>
 80027cc:	ac400007 	ldb	r17,0(r21)
 80027d0:	8a438726 	beq	r17,r9,80035f0 <___vfprintf_internal_r+0x1b2c>
 80027d4:	94800414 	ori	r18,r18,16
 80027d8:	003d1b06 	br	8001c48 <__alt_data_end+0xf8001c48>
 80027dc:	18c03fcc 	andi	r3,r3,255
 80027e0:	1805341e 	bne	r3,zero,8003cb4 <___vfprintf_internal_r+0x21f0>
 80027e4:	9080080c 	andi	r2,r18,32
 80027e8:	1002cd26 	beq	r2,zero,8003320 <___vfprintf_internal_r+0x185c>
 80027ec:	d9402d17 	ldw	r5,180(sp)
 80027f0:	d9002f17 	ldw	r4,188(sp)
 80027f4:	28800017 	ldw	r2,0(r5)
 80027f8:	2007d7fa 	srai	r3,r4,31
 80027fc:	29400104 	addi	r5,r5,4
 8002800:	d9402d15 	stw	r5,180(sp)
 8002804:	11000015 	stw	r4,0(r2)
 8002808:	10c00115 	stw	r3,4(r2)
 800280c:	003ce506 	br	8001ba4 <__alt_data_end+0xf8001ba4>
 8002810:	d8c02d17 	ldw	r3,180(sp)
 8002814:	d9002d17 	ldw	r4,180(sp)
 8002818:	d8002785 	stb	zero,158(sp)
 800281c:	18800017 	ldw	r2,0(r3)
 8002820:	21000104 	addi	r4,r4,4
 8002824:	00c00044 	movi	r3,1
 8002828:	d8c02a15 	stw	r3,168(sp)
 800282c:	d8801405 	stb	r2,80(sp)
 8002830:	d9002d15 	stw	r4,180(sp)
 8002834:	d8c02e15 	stw	r3,184(sp)
 8002838:	d8002915 	stw	zero,164(sp)
 800283c:	d8003215 	stw	zero,200(sp)
 8002840:	dc001404 	addi	r16,sp,80
 8002844:	0039883a 	mov	fp,zero
 8002848:	003e7206 	br	8002214 <__alt_data_end+0xf8002214>
 800284c:	010200b4 	movhi	r4,2050
 8002850:	21289804 	addi	r4,r4,-23968
 8002854:	0039883a 	mov	fp,zero
 8002858:	d9003915 	stw	r4,228(sp)
 800285c:	04401e04 	movi	r17,120
 8002860:	003f8206 	br	800266c <__alt_data_end+0xf800266c>
 8002864:	18c03fcc 	andi	r3,r3,255
 8002868:	1805061e 	bne	r3,zero,8003c84 <___vfprintf_internal_r+0x21c0>
 800286c:	883d9126 	beq	r17,zero,8001eb4 <__alt_data_end+0xf8001eb4>
 8002870:	00c00044 	movi	r3,1
 8002874:	d8c02a15 	stw	r3,168(sp)
 8002878:	dc401405 	stb	r17,80(sp)
 800287c:	d8002785 	stb	zero,158(sp)
 8002880:	003fec06 	br	8002834 <__alt_data_end+0xf8002834>
 8002884:	014200b4 	movhi	r5,2050
 8002888:	29689804 	addi	r5,r5,-23968
 800288c:	d9403915 	stw	r5,228(sp)
 8002890:	d8c02d15 	stw	r3,180(sp)
 8002894:	1025883a 	mov	r18,r2
 8002898:	04401e04 	movi	r17,120
 800289c:	9d84b03a 	or	r2,r19,r22
 80028a0:	1000fc1e 	bne	r2,zero,8002c94 <___vfprintf_internal_r+0x11d0>
 80028a4:	0039883a 	mov	fp,zero
 80028a8:	00800084 	movi	r2,2
 80028ac:	10803fcc 	andi	r2,r2,255
 80028b0:	00c00044 	movi	r3,1
 80028b4:	10c20f26 	beq	r2,r3,80030f4 <___vfprintf_internal_r+0x1630>
 80028b8:	00c00084 	movi	r3,2
 80028bc:	10fd6326 	beq	r2,r3,8001e4c <__alt_data_end+0xf8001e4c>
 80028c0:	003e2d06 	br	8002178 <__alt_data_end+0xf8002178>
 80028c4:	d8c02017 	ldw	r3,128(sp)
 80028c8:	003e9306 	br	8002318 <__alt_data_end+0xf8002318>
 80028cc:	00801944 	movi	r2,101
 80028d0:	14407e0e 	bge	r2,r17,8002acc <___vfprintf_internal_r+0x1008>
 80028d4:	d9003617 	ldw	r4,216(sp)
 80028d8:	d9403817 	ldw	r5,224(sp)
 80028dc:	000d883a 	mov	r6,zero
 80028e0:	000f883a 	mov	r7,zero
 80028e4:	d8c03c15 	stw	r3,240(sp)
 80028e8:	da003d15 	stw	r8,244(sp)
 80028ec:	800cd380 	call	800cd38 <__eqdf2>
 80028f0:	d8c03c17 	ldw	r3,240(sp)
 80028f4:	da003d17 	ldw	r8,244(sp)
 80028f8:	1000f71e 	bne	r2,zero,8002cd8 <___vfprintf_internal_r+0x1214>
 80028fc:	d8801f17 	ldw	r2,124(sp)
 8002900:	010200b4 	movhi	r4,2050
 8002904:	21289f04 	addi	r4,r4,-23940
 8002908:	18c00044 	addi	r3,r3,1
 800290c:	10800044 	addi	r2,r2,1
 8002910:	41000015 	stw	r4,0(r8)
 8002914:	01000044 	movi	r4,1
 8002918:	41000115 	stw	r4,4(r8)
 800291c:	d8c02015 	stw	r3,128(sp)
 8002920:	d8801f15 	stw	r2,124(sp)
 8002924:	010001c4 	movi	r4,7
 8002928:	2082b816 	blt	r4,r2,800340c <___vfprintf_internal_r+0x1948>
 800292c:	42000204 	addi	r8,r8,8
 8002930:	d8802617 	ldw	r2,152(sp)
 8002934:	d9403317 	ldw	r5,204(sp)
 8002938:	11400216 	blt	r2,r5,8002944 <___vfprintf_internal_r+0xe80>
 800293c:	9080004c 	andi	r2,r18,1
 8002940:	103ed526 	beq	r2,zero,8002498 <__alt_data_end+0xf8002498>
 8002944:	d8803717 	ldw	r2,220(sp)
 8002948:	d9003417 	ldw	r4,208(sp)
 800294c:	d9403717 	ldw	r5,220(sp)
 8002950:	1887883a 	add	r3,r3,r2
 8002954:	d8801f17 	ldw	r2,124(sp)
 8002958:	41000015 	stw	r4,0(r8)
 800295c:	41400115 	stw	r5,4(r8)
 8002960:	10800044 	addi	r2,r2,1
 8002964:	d8c02015 	stw	r3,128(sp)
 8002968:	d8801f15 	stw	r2,124(sp)
 800296c:	010001c4 	movi	r4,7
 8002970:	20832916 	blt	r4,r2,8003618 <___vfprintf_internal_r+0x1b54>
 8002974:	42000204 	addi	r8,r8,8
 8002978:	d8803317 	ldw	r2,204(sp)
 800297c:	143fffc4 	addi	r16,r2,-1
 8002980:	043ec50e 	bge	zero,r16,8002498 <__alt_data_end+0xf8002498>
 8002984:	04400404 	movi	r17,16
 8002988:	d8801f17 	ldw	r2,124(sp)
 800298c:	8c00880e 	bge	r17,r16,8002bb0 <___vfprintf_internal_r+0x10ec>
 8002990:	014200b4 	movhi	r5,2050
 8002994:	29689f84 	addi	r5,r5,-23938
 8002998:	d9402b15 	stw	r5,172(sp)
 800299c:	058001c4 	movi	r22,7
 80029a0:	dcc02c17 	ldw	r19,176(sp)
 80029a4:	00000306 	br	80029b4 <___vfprintf_internal_r+0xef0>
 80029a8:	42000204 	addi	r8,r8,8
 80029ac:	843ffc04 	addi	r16,r16,-16
 80029b0:	8c00820e 	bge	r17,r16,8002bbc <___vfprintf_internal_r+0x10f8>
 80029b4:	18c00404 	addi	r3,r3,16
 80029b8:	10800044 	addi	r2,r2,1
 80029bc:	45000015 	stw	r20,0(r8)
 80029c0:	44400115 	stw	r17,4(r8)
 80029c4:	d8c02015 	stw	r3,128(sp)
 80029c8:	d8801f15 	stw	r2,124(sp)
 80029cc:	b0bff60e 	bge	r22,r2,80029a8 <__alt_data_end+0xf80029a8>
 80029d0:	d9801e04 	addi	r6,sp,120
 80029d4:	b80b883a 	mov	r5,r23
 80029d8:	9809883a 	mov	r4,r19
 80029dc:	80090c00 	call	80090c0 <__sprint_r>
 80029e0:	103d3a1e 	bne	r2,zero,8001ecc <__alt_data_end+0xf8001ecc>
 80029e4:	d8c02017 	ldw	r3,128(sp)
 80029e8:	d8801f17 	ldw	r2,124(sp)
 80029ec:	da000404 	addi	r8,sp,16
 80029f0:	003fee06 	br	80029ac <__alt_data_end+0xf80029ac>
 80029f4:	d9403117 	ldw	r5,196(sp)
 80029f8:	d8802a17 	ldw	r2,168(sp)
 80029fc:	28adc83a 	sub	r22,r5,r2
 8002a00:	05be630e 	bge	zero,r22,8002390 <__alt_data_end+0xf8002390>
 8002a04:	07000404 	movi	fp,16
 8002a08:	d8801f17 	ldw	r2,124(sp)
 8002a0c:	e5838f0e 	bge	fp,r22,800384c <___vfprintf_internal_r+0x1d88>
 8002a10:	014200b4 	movhi	r5,2050
 8002a14:	29689f84 	addi	r5,r5,-23938
 8002a18:	dc403015 	stw	r17,192(sp)
 8002a1c:	d9402b15 	stw	r5,172(sp)
 8002a20:	b023883a 	mov	r17,r22
 8002a24:	04c001c4 	movi	r19,7
 8002a28:	a82d883a 	mov	r22,r21
 8002a2c:	902b883a 	mov	r21,r18
 8002a30:	8025883a 	mov	r18,r16
 8002a34:	dc002c17 	ldw	r16,176(sp)
 8002a38:	00000306 	br	8002a48 <___vfprintf_internal_r+0xf84>
 8002a3c:	8c7ffc04 	addi	r17,r17,-16
 8002a40:	42000204 	addi	r8,r8,8
 8002a44:	e440110e 	bge	fp,r17,8002a8c <___vfprintf_internal_r+0xfc8>
 8002a48:	18c00404 	addi	r3,r3,16
 8002a4c:	10800044 	addi	r2,r2,1
 8002a50:	45000015 	stw	r20,0(r8)
 8002a54:	47000115 	stw	fp,4(r8)
 8002a58:	d8c02015 	stw	r3,128(sp)
 8002a5c:	d8801f15 	stw	r2,124(sp)
 8002a60:	98bff60e 	bge	r19,r2,8002a3c <__alt_data_end+0xf8002a3c>
 8002a64:	d9801e04 	addi	r6,sp,120
 8002a68:	b80b883a 	mov	r5,r23
 8002a6c:	8009883a 	mov	r4,r16
 8002a70:	80090c00 	call	80090c0 <__sprint_r>
 8002a74:	103d151e 	bne	r2,zero,8001ecc <__alt_data_end+0xf8001ecc>
 8002a78:	8c7ffc04 	addi	r17,r17,-16
 8002a7c:	d8c02017 	ldw	r3,128(sp)
 8002a80:	d8801f17 	ldw	r2,124(sp)
 8002a84:	da000404 	addi	r8,sp,16
 8002a88:	e47fef16 	blt	fp,r17,8002a48 <__alt_data_end+0xf8002a48>
 8002a8c:	9021883a 	mov	r16,r18
 8002a90:	a825883a 	mov	r18,r21
 8002a94:	b02b883a 	mov	r21,r22
 8002a98:	882d883a 	mov	r22,r17
 8002a9c:	dc403017 	ldw	r17,192(sp)
 8002aa0:	d9002b17 	ldw	r4,172(sp)
 8002aa4:	1d87883a 	add	r3,r3,r22
 8002aa8:	10800044 	addi	r2,r2,1
 8002aac:	41000015 	stw	r4,0(r8)
 8002ab0:	45800115 	stw	r22,4(r8)
 8002ab4:	d8c02015 	stw	r3,128(sp)
 8002ab8:	d8801f15 	stw	r2,124(sp)
 8002abc:	010001c4 	movi	r4,7
 8002ac0:	20818e16 	blt	r4,r2,80030fc <___vfprintf_internal_r+0x1638>
 8002ac4:	42000204 	addi	r8,r8,8
 8002ac8:	003e3106 	br	8002390 <__alt_data_end+0xf8002390>
 8002acc:	d9403317 	ldw	r5,204(sp)
 8002ad0:	00800044 	movi	r2,1
 8002ad4:	18c00044 	addi	r3,r3,1
 8002ad8:	1141530e 	bge	r2,r5,8003028 <___vfprintf_internal_r+0x1564>
 8002adc:	dc401f17 	ldw	r17,124(sp)
 8002ae0:	00800044 	movi	r2,1
 8002ae4:	40800115 	stw	r2,4(r8)
 8002ae8:	8c400044 	addi	r17,r17,1
 8002aec:	44000015 	stw	r16,0(r8)
 8002af0:	d8c02015 	stw	r3,128(sp)
 8002af4:	dc401f15 	stw	r17,124(sp)
 8002af8:	008001c4 	movi	r2,7
 8002afc:	14416b16 	blt	r2,r17,80030ac <___vfprintf_internal_r+0x15e8>
 8002b00:	42000204 	addi	r8,r8,8
 8002b04:	d8803717 	ldw	r2,220(sp)
 8002b08:	d9003417 	ldw	r4,208(sp)
 8002b0c:	8c400044 	addi	r17,r17,1
 8002b10:	10c7883a 	add	r3,r2,r3
 8002b14:	40800115 	stw	r2,4(r8)
 8002b18:	41000015 	stw	r4,0(r8)
 8002b1c:	d8c02015 	stw	r3,128(sp)
 8002b20:	dc401f15 	stw	r17,124(sp)
 8002b24:	008001c4 	movi	r2,7
 8002b28:	14416916 	blt	r2,r17,80030d0 <___vfprintf_internal_r+0x160c>
 8002b2c:	45800204 	addi	r22,r8,8
 8002b30:	d9003617 	ldw	r4,216(sp)
 8002b34:	d9403817 	ldw	r5,224(sp)
 8002b38:	000d883a 	mov	r6,zero
 8002b3c:	000f883a 	mov	r7,zero
 8002b40:	d8c03c15 	stw	r3,240(sp)
 8002b44:	800cd380 	call	800cd38 <__eqdf2>
 8002b48:	d8c03c17 	ldw	r3,240(sp)
 8002b4c:	1000bc26 	beq	r2,zero,8002e40 <___vfprintf_internal_r+0x137c>
 8002b50:	d9403317 	ldw	r5,204(sp)
 8002b54:	84000044 	addi	r16,r16,1
 8002b58:	8c400044 	addi	r17,r17,1
 8002b5c:	28bfffc4 	addi	r2,r5,-1
 8002b60:	1887883a 	add	r3,r3,r2
 8002b64:	b0800115 	stw	r2,4(r22)
 8002b68:	b4000015 	stw	r16,0(r22)
 8002b6c:	d8c02015 	stw	r3,128(sp)
 8002b70:	dc401f15 	stw	r17,124(sp)
 8002b74:	008001c4 	movi	r2,7
 8002b78:	14414316 	blt	r2,r17,8003088 <___vfprintf_internal_r+0x15c4>
 8002b7c:	b5800204 	addi	r22,r22,8
 8002b80:	d9003a17 	ldw	r4,232(sp)
 8002b84:	df0022c4 	addi	fp,sp,139
 8002b88:	8c400044 	addi	r17,r17,1
 8002b8c:	20c7883a 	add	r3,r4,r3
 8002b90:	b7000015 	stw	fp,0(r22)
 8002b94:	b1000115 	stw	r4,4(r22)
 8002b98:	d8c02015 	stw	r3,128(sp)
 8002b9c:	dc401f15 	stw	r17,124(sp)
 8002ba0:	008001c4 	movi	r2,7
 8002ba4:	14400e16 	blt	r2,r17,8002be0 <___vfprintf_internal_r+0x111c>
 8002ba8:	b2000204 	addi	r8,r22,8
 8002bac:	003e3a06 	br	8002498 <__alt_data_end+0xf8002498>
 8002bb0:	010200b4 	movhi	r4,2050
 8002bb4:	21289f84 	addi	r4,r4,-23938
 8002bb8:	d9002b15 	stw	r4,172(sp)
 8002bbc:	d9002b17 	ldw	r4,172(sp)
 8002bc0:	1c07883a 	add	r3,r3,r16
 8002bc4:	44000115 	stw	r16,4(r8)
 8002bc8:	41000015 	stw	r4,0(r8)
 8002bcc:	10800044 	addi	r2,r2,1
 8002bd0:	d8c02015 	stw	r3,128(sp)
 8002bd4:	d8801f15 	stw	r2,124(sp)
 8002bd8:	010001c4 	movi	r4,7
 8002bdc:	20be2d0e 	bge	r4,r2,8002494 <__alt_data_end+0xf8002494>
 8002be0:	d9002c17 	ldw	r4,176(sp)
 8002be4:	d9801e04 	addi	r6,sp,120
 8002be8:	b80b883a 	mov	r5,r23
 8002bec:	80090c00 	call	80090c0 <__sprint_r>
 8002bf0:	103cb61e 	bne	r2,zero,8001ecc <__alt_data_end+0xf8001ecc>
 8002bf4:	d8c02017 	ldw	r3,128(sp)
 8002bf8:	da000404 	addi	r8,sp,16
 8002bfc:	003e2606 	br	8002498 <__alt_data_end+0xf8002498>
 8002c00:	d9002c17 	ldw	r4,176(sp)
 8002c04:	d9801e04 	addi	r6,sp,120
 8002c08:	b80b883a 	mov	r5,r23
 8002c0c:	80090c00 	call	80090c0 <__sprint_r>
 8002c10:	103e5d26 	beq	r2,zero,8002588 <__alt_data_end+0xf8002588>
 8002c14:	003cad06 	br	8001ecc <__alt_data_end+0xf8001ecc>
 8002c18:	d9002c17 	ldw	r4,176(sp)
 8002c1c:	d9801e04 	addi	r6,sp,120
 8002c20:	b80b883a 	mov	r5,r23
 8002c24:	80090c00 	call	80090c0 <__sprint_r>
 8002c28:	103ca81e 	bne	r2,zero,8001ecc <__alt_data_end+0xf8001ecc>
 8002c2c:	d8c02017 	ldw	r3,128(sp)
 8002c30:	da000404 	addi	r8,sp,16
 8002c34:	003e0b06 	br	8002464 <__alt_data_end+0xf8002464>
 8002c38:	d9002c17 	ldw	r4,176(sp)
 8002c3c:	d9801e04 	addi	r6,sp,120
 8002c40:	b80b883a 	mov	r5,r23
 8002c44:	80090c00 	call	80090c0 <__sprint_r>
 8002c48:	103ca01e 	bne	r2,zero,8001ecc <__alt_data_end+0xf8001ecc>
 8002c4c:	d8c02017 	ldw	r3,128(sp)
 8002c50:	da000404 	addi	r8,sp,16
 8002c54:	003dbd06 	br	800234c <__alt_data_end+0xf800234c>
 8002c58:	d9002c17 	ldw	r4,176(sp)
 8002c5c:	d9801e04 	addi	r6,sp,120
 8002c60:	b80b883a 	mov	r5,r23
 8002c64:	80090c00 	call	80090c0 <__sprint_r>
 8002c68:	103c981e 	bne	r2,zero,8001ecc <__alt_data_end+0xf8001ecc>
 8002c6c:	d8c02017 	ldw	r3,128(sp)
 8002c70:	da000404 	addi	r8,sp,16
 8002c74:	003dc306 	br	8002384 <__alt_data_end+0xf8002384>
 8002c78:	d8802917 	ldw	r2,164(sp)
 8002c7c:	d8002785 	stb	zero,158(sp)
 8002c80:	103f0616 	blt	r2,zero,800289c <__alt_data_end+0xf800289c>
 8002c84:	00ffdfc4 	movi	r3,-129
 8002c88:	9d84b03a 	or	r2,r19,r22
 8002c8c:	90e4703a 	and	r18,r18,r3
 8002c90:	103c6b26 	beq	r2,zero,8001e40 <__alt_data_end+0xf8001e40>
 8002c94:	0039883a 	mov	fp,zero
 8002c98:	003e7406 	br	800266c <__alt_data_end+0xf800266c>
 8002c9c:	9080040c 	andi	r2,r18,16
 8002ca0:	1001b326 	beq	r2,zero,8003370 <___vfprintf_internal_r+0x18ac>
 8002ca4:	d9002d17 	ldw	r4,180(sp)
 8002ca8:	d9402917 	ldw	r5,164(sp)
 8002cac:	d8002785 	stb	zero,158(sp)
 8002cb0:	20800104 	addi	r2,r4,4
 8002cb4:	24c00017 	ldw	r19,0(r4)
 8002cb8:	002d883a 	mov	r22,zero
 8002cbc:	2801b516 	blt	r5,zero,8003394 <___vfprintf_internal_r+0x18d0>
 8002cc0:	00ffdfc4 	movi	r3,-129
 8002cc4:	d8802d15 	stw	r2,180(sp)
 8002cc8:	90e4703a 	and	r18,r18,r3
 8002ccc:	983d2726 	beq	r19,zero,800216c <__alt_data_end+0xf800216c>
 8002cd0:	0039883a 	mov	fp,zero
 8002cd4:	003d2a06 	br	8002180 <__alt_data_end+0xf8002180>
 8002cd8:	dc402617 	ldw	r17,152(sp)
 8002cdc:	0441d30e 	bge	zero,r17,800342c <___vfprintf_internal_r+0x1968>
 8002ce0:	dc403217 	ldw	r17,200(sp)
 8002ce4:	d8803317 	ldw	r2,204(sp)
 8002ce8:	1440010e 	bge	r2,r17,8002cf0 <___vfprintf_internal_r+0x122c>
 8002cec:	1023883a 	mov	r17,r2
 8002cf0:	04400a0e 	bge	zero,r17,8002d1c <___vfprintf_internal_r+0x1258>
 8002cf4:	d8801f17 	ldw	r2,124(sp)
 8002cf8:	1c47883a 	add	r3,r3,r17
 8002cfc:	44000015 	stw	r16,0(r8)
 8002d00:	10800044 	addi	r2,r2,1
 8002d04:	44400115 	stw	r17,4(r8)
 8002d08:	d8c02015 	stw	r3,128(sp)
 8002d0c:	d8801f15 	stw	r2,124(sp)
 8002d10:	010001c4 	movi	r4,7
 8002d14:	20826516 	blt	r4,r2,80036ac <___vfprintf_internal_r+0x1be8>
 8002d18:	42000204 	addi	r8,r8,8
 8002d1c:	88026116 	blt	r17,zero,80036a4 <___vfprintf_internal_r+0x1be0>
 8002d20:	d9003217 	ldw	r4,200(sp)
 8002d24:	2463c83a 	sub	r17,r4,r17
 8002d28:	04407b0e 	bge	zero,r17,8002f18 <___vfprintf_internal_r+0x1454>
 8002d2c:	05800404 	movi	r22,16
 8002d30:	d8801f17 	ldw	r2,124(sp)
 8002d34:	b4419d0e 	bge	r22,r17,80033ac <___vfprintf_internal_r+0x18e8>
 8002d38:	010200b4 	movhi	r4,2050
 8002d3c:	21289f84 	addi	r4,r4,-23938
 8002d40:	d9002b15 	stw	r4,172(sp)
 8002d44:	070001c4 	movi	fp,7
 8002d48:	dcc02c17 	ldw	r19,176(sp)
 8002d4c:	00000306 	br	8002d5c <___vfprintf_internal_r+0x1298>
 8002d50:	42000204 	addi	r8,r8,8
 8002d54:	8c7ffc04 	addi	r17,r17,-16
 8002d58:	b441970e 	bge	r22,r17,80033b8 <___vfprintf_internal_r+0x18f4>
 8002d5c:	18c00404 	addi	r3,r3,16
 8002d60:	10800044 	addi	r2,r2,1
 8002d64:	45000015 	stw	r20,0(r8)
 8002d68:	45800115 	stw	r22,4(r8)
 8002d6c:	d8c02015 	stw	r3,128(sp)
 8002d70:	d8801f15 	stw	r2,124(sp)
 8002d74:	e0bff60e 	bge	fp,r2,8002d50 <__alt_data_end+0xf8002d50>
 8002d78:	d9801e04 	addi	r6,sp,120
 8002d7c:	b80b883a 	mov	r5,r23
 8002d80:	9809883a 	mov	r4,r19
 8002d84:	80090c00 	call	80090c0 <__sprint_r>
 8002d88:	103c501e 	bne	r2,zero,8001ecc <__alt_data_end+0xf8001ecc>
 8002d8c:	d8c02017 	ldw	r3,128(sp)
 8002d90:	d8801f17 	ldw	r2,124(sp)
 8002d94:	da000404 	addi	r8,sp,16
 8002d98:	003fee06 	br	8002d54 <__alt_data_end+0xf8002d54>
 8002d9c:	d9002c17 	ldw	r4,176(sp)
 8002da0:	d9801e04 	addi	r6,sp,120
 8002da4:	b80b883a 	mov	r5,r23
 8002da8:	80090c00 	call	80090c0 <__sprint_r>
 8002dac:	103c471e 	bne	r2,zero,8001ecc <__alt_data_end+0xf8001ecc>
 8002db0:	d8c02017 	ldw	r3,128(sp)
 8002db4:	df002787 	ldb	fp,158(sp)
 8002db8:	da000404 	addi	r8,sp,16
 8002dbc:	003d5606 	br	8002318 <__alt_data_end+0xf8002318>
 8002dc0:	9080040c 	andi	r2,r18,16
 8002dc4:	10016126 	beq	r2,zero,800334c <___vfprintf_internal_r+0x1888>
 8002dc8:	d8802d17 	ldw	r2,180(sp)
 8002dcc:	14c00017 	ldw	r19,0(r2)
 8002dd0:	10800104 	addi	r2,r2,4
 8002dd4:	d8802d15 	stw	r2,180(sp)
 8002dd8:	982dd7fa 	srai	r22,r19,31
 8002ddc:	b005883a 	mov	r2,r22
 8002de0:	003c8206 	br	8001fec <__alt_data_end+0xf8001fec>
 8002de4:	9080040c 	andi	r2,r18,16
 8002de8:	10003526 	beq	r2,zero,8002ec0 <___vfprintf_internal_r+0x13fc>
 8002dec:	d9402d17 	ldw	r5,180(sp)
 8002df0:	d8c02917 	ldw	r3,164(sp)
 8002df4:	d8002785 	stb	zero,158(sp)
 8002df8:	28800104 	addi	r2,r5,4
 8002dfc:	2cc00017 	ldw	r19,0(r5)
 8002e00:	002d883a 	mov	r22,zero
 8002e04:	18003716 	blt	r3,zero,8002ee4 <___vfprintf_internal_r+0x1420>
 8002e08:	00ffdfc4 	movi	r3,-129
 8002e0c:	d8802d15 	stw	r2,180(sp)
 8002e10:	90e4703a 	and	r18,r18,r3
 8002e14:	0039883a 	mov	fp,zero
 8002e18:	983df326 	beq	r19,zero,80025e8 <__alt_data_end+0xf80025e8>
 8002e1c:	00800244 	movi	r2,9
 8002e20:	14fc7b36 	bltu	r2,r19,8002010 <__alt_data_end+0xf8002010>
 8002e24:	d8c02817 	ldw	r3,160(sp)
 8002e28:	dc001dc4 	addi	r16,sp,119
 8002e2c:	9cc00c04 	addi	r19,r19,48
 8002e30:	1c07c83a 	sub	r3,r3,r16
 8002e34:	dcc01dc5 	stb	r19,119(sp)
 8002e38:	d8c02e15 	stw	r3,184(sp)
 8002e3c:	003ce806 	br	80021e0 <__alt_data_end+0xf80021e0>
 8002e40:	d8803317 	ldw	r2,204(sp)
 8002e44:	143fffc4 	addi	r16,r2,-1
 8002e48:	043f4d0e 	bge	zero,r16,8002b80 <__alt_data_end+0xf8002b80>
 8002e4c:	07000404 	movi	fp,16
 8002e50:	e400810e 	bge	fp,r16,8003058 <___vfprintf_internal_r+0x1594>
 8002e54:	014200b4 	movhi	r5,2050
 8002e58:	29689f84 	addi	r5,r5,-23938
 8002e5c:	d9402b15 	stw	r5,172(sp)
 8002e60:	01c001c4 	movi	r7,7
 8002e64:	dcc02c17 	ldw	r19,176(sp)
 8002e68:	00000306 	br	8002e78 <___vfprintf_internal_r+0x13b4>
 8002e6c:	b5800204 	addi	r22,r22,8
 8002e70:	843ffc04 	addi	r16,r16,-16
 8002e74:	e4007b0e 	bge	fp,r16,8003064 <___vfprintf_internal_r+0x15a0>
 8002e78:	18c00404 	addi	r3,r3,16
 8002e7c:	8c400044 	addi	r17,r17,1
 8002e80:	b5000015 	stw	r20,0(r22)
 8002e84:	b7000115 	stw	fp,4(r22)
 8002e88:	d8c02015 	stw	r3,128(sp)
 8002e8c:	dc401f15 	stw	r17,124(sp)
 8002e90:	3c7ff60e 	bge	r7,r17,8002e6c <__alt_data_end+0xf8002e6c>
 8002e94:	d9801e04 	addi	r6,sp,120
 8002e98:	b80b883a 	mov	r5,r23
 8002e9c:	9809883a 	mov	r4,r19
 8002ea0:	d9c03c15 	stw	r7,240(sp)
 8002ea4:	80090c00 	call	80090c0 <__sprint_r>
 8002ea8:	d9c03c17 	ldw	r7,240(sp)
 8002eac:	103c071e 	bne	r2,zero,8001ecc <__alt_data_end+0xf8001ecc>
 8002eb0:	d8c02017 	ldw	r3,128(sp)
 8002eb4:	dc401f17 	ldw	r17,124(sp)
 8002eb8:	dd800404 	addi	r22,sp,16
 8002ebc:	003fec06 	br	8002e70 <__alt_data_end+0xf8002e70>
 8002ec0:	9080100c 	andi	r2,r18,64
 8002ec4:	d8002785 	stb	zero,158(sp)
 8002ec8:	10010e26 	beq	r2,zero,8003304 <___vfprintf_internal_r+0x1840>
 8002ecc:	d9002d17 	ldw	r4,180(sp)
 8002ed0:	d9402917 	ldw	r5,164(sp)
 8002ed4:	002d883a 	mov	r22,zero
 8002ed8:	20800104 	addi	r2,r4,4
 8002edc:	24c0000b 	ldhu	r19,0(r4)
 8002ee0:	283fc90e 	bge	r5,zero,8002e08 <__alt_data_end+0xf8002e08>
 8002ee4:	d8802d15 	stw	r2,180(sp)
 8002ee8:	0039883a 	mov	fp,zero
 8002eec:	9d84b03a 	or	r2,r19,r22
 8002ef0:	103c461e 	bne	r2,zero,800200c <__alt_data_end+0xf800200c>
 8002ef4:	00800044 	movi	r2,1
 8002ef8:	003e6c06 	br	80028ac <__alt_data_end+0xf80028ac>
 8002efc:	d9002c17 	ldw	r4,176(sp)
 8002f00:	d9801e04 	addi	r6,sp,120
 8002f04:	b80b883a 	mov	r5,r23
 8002f08:	80090c00 	call	80090c0 <__sprint_r>
 8002f0c:	103bef1e 	bne	r2,zero,8001ecc <__alt_data_end+0xf8001ecc>
 8002f10:	d8c02017 	ldw	r3,128(sp)
 8002f14:	da000404 	addi	r8,sp,16
 8002f18:	d9003217 	ldw	r4,200(sp)
 8002f1c:	d8802617 	ldw	r2,152(sp)
 8002f20:	d9403317 	ldw	r5,204(sp)
 8002f24:	8123883a 	add	r17,r16,r4
 8002f28:	11400216 	blt	r2,r5,8002f34 <___vfprintf_internal_r+0x1470>
 8002f2c:	9100004c 	andi	r4,r18,1
 8002f30:	20000d26 	beq	r4,zero,8002f68 <___vfprintf_internal_r+0x14a4>
 8002f34:	d9003717 	ldw	r4,220(sp)
 8002f38:	d9403417 	ldw	r5,208(sp)
 8002f3c:	1907883a 	add	r3,r3,r4
 8002f40:	d9001f17 	ldw	r4,124(sp)
 8002f44:	41400015 	stw	r5,0(r8)
 8002f48:	d9403717 	ldw	r5,220(sp)
 8002f4c:	21000044 	addi	r4,r4,1
 8002f50:	d8c02015 	stw	r3,128(sp)
 8002f54:	41400115 	stw	r5,4(r8)
 8002f58:	d9001f15 	stw	r4,124(sp)
 8002f5c:	014001c4 	movi	r5,7
 8002f60:	2901e816 	blt	r5,r4,8003704 <___vfprintf_internal_r+0x1c40>
 8002f64:	42000204 	addi	r8,r8,8
 8002f68:	d9003317 	ldw	r4,204(sp)
 8002f6c:	8121883a 	add	r16,r16,r4
 8002f70:	2085c83a 	sub	r2,r4,r2
 8002f74:	8461c83a 	sub	r16,r16,r17
 8002f78:	1400010e 	bge	r2,r16,8002f80 <___vfprintf_internal_r+0x14bc>
 8002f7c:	1021883a 	mov	r16,r2
 8002f80:	04000a0e 	bge	zero,r16,8002fac <___vfprintf_internal_r+0x14e8>
 8002f84:	d9001f17 	ldw	r4,124(sp)
 8002f88:	1c07883a 	add	r3,r3,r16
 8002f8c:	44400015 	stw	r17,0(r8)
 8002f90:	21000044 	addi	r4,r4,1
 8002f94:	44000115 	stw	r16,4(r8)
 8002f98:	d8c02015 	stw	r3,128(sp)
 8002f9c:	d9001f15 	stw	r4,124(sp)
 8002fa0:	014001c4 	movi	r5,7
 8002fa4:	2901fb16 	blt	r5,r4,8003794 <___vfprintf_internal_r+0x1cd0>
 8002fa8:	42000204 	addi	r8,r8,8
 8002fac:	8001f716 	blt	r16,zero,800378c <___vfprintf_internal_r+0x1cc8>
 8002fb0:	1421c83a 	sub	r16,r2,r16
 8002fb4:	043d380e 	bge	zero,r16,8002498 <__alt_data_end+0xf8002498>
 8002fb8:	04400404 	movi	r17,16
 8002fbc:	d8801f17 	ldw	r2,124(sp)
 8002fc0:	8c3efb0e 	bge	r17,r16,8002bb0 <__alt_data_end+0xf8002bb0>
 8002fc4:	014200b4 	movhi	r5,2050
 8002fc8:	29689f84 	addi	r5,r5,-23938
 8002fcc:	d9402b15 	stw	r5,172(sp)
 8002fd0:	058001c4 	movi	r22,7
 8002fd4:	dcc02c17 	ldw	r19,176(sp)
 8002fd8:	00000306 	br	8002fe8 <___vfprintf_internal_r+0x1524>
 8002fdc:	42000204 	addi	r8,r8,8
 8002fe0:	843ffc04 	addi	r16,r16,-16
 8002fe4:	8c3ef50e 	bge	r17,r16,8002bbc <__alt_data_end+0xf8002bbc>
 8002fe8:	18c00404 	addi	r3,r3,16
 8002fec:	10800044 	addi	r2,r2,1
 8002ff0:	45000015 	stw	r20,0(r8)
 8002ff4:	44400115 	stw	r17,4(r8)
 8002ff8:	d8c02015 	stw	r3,128(sp)
 8002ffc:	d8801f15 	stw	r2,124(sp)
 8003000:	b0bff60e 	bge	r22,r2,8002fdc <__alt_data_end+0xf8002fdc>
 8003004:	d9801e04 	addi	r6,sp,120
 8003008:	b80b883a 	mov	r5,r23
 800300c:	9809883a 	mov	r4,r19
 8003010:	80090c00 	call	80090c0 <__sprint_r>
 8003014:	103bad1e 	bne	r2,zero,8001ecc <__alt_data_end+0xf8001ecc>
 8003018:	d8c02017 	ldw	r3,128(sp)
 800301c:	d8801f17 	ldw	r2,124(sp)
 8003020:	da000404 	addi	r8,sp,16
 8003024:	003fee06 	br	8002fe0 <__alt_data_end+0xf8002fe0>
 8003028:	9088703a 	and	r4,r18,r2
 800302c:	203eab1e 	bne	r4,zero,8002adc <__alt_data_end+0xf8002adc>
 8003030:	dc401f17 	ldw	r17,124(sp)
 8003034:	40800115 	stw	r2,4(r8)
 8003038:	44000015 	stw	r16,0(r8)
 800303c:	8c400044 	addi	r17,r17,1
 8003040:	d8c02015 	stw	r3,128(sp)
 8003044:	dc401f15 	stw	r17,124(sp)
 8003048:	008001c4 	movi	r2,7
 800304c:	14400e16 	blt	r2,r17,8003088 <___vfprintf_internal_r+0x15c4>
 8003050:	45800204 	addi	r22,r8,8
 8003054:	003eca06 	br	8002b80 <__alt_data_end+0xf8002b80>
 8003058:	010200b4 	movhi	r4,2050
 800305c:	21289f84 	addi	r4,r4,-23938
 8003060:	d9002b15 	stw	r4,172(sp)
 8003064:	d8802b17 	ldw	r2,172(sp)
 8003068:	1c07883a 	add	r3,r3,r16
 800306c:	8c400044 	addi	r17,r17,1
 8003070:	b0800015 	stw	r2,0(r22)
 8003074:	b4000115 	stw	r16,4(r22)
 8003078:	d8c02015 	stw	r3,128(sp)
 800307c:	dc401f15 	stw	r17,124(sp)
 8003080:	008001c4 	movi	r2,7
 8003084:	147ebd0e 	bge	r2,r17,8002b7c <__alt_data_end+0xf8002b7c>
 8003088:	d9002c17 	ldw	r4,176(sp)
 800308c:	d9801e04 	addi	r6,sp,120
 8003090:	b80b883a 	mov	r5,r23
 8003094:	80090c00 	call	80090c0 <__sprint_r>
 8003098:	103b8c1e 	bne	r2,zero,8001ecc <__alt_data_end+0xf8001ecc>
 800309c:	d8c02017 	ldw	r3,128(sp)
 80030a0:	dc401f17 	ldw	r17,124(sp)
 80030a4:	dd800404 	addi	r22,sp,16
 80030a8:	003eb506 	br	8002b80 <__alt_data_end+0xf8002b80>
 80030ac:	d9002c17 	ldw	r4,176(sp)
 80030b0:	d9801e04 	addi	r6,sp,120
 80030b4:	b80b883a 	mov	r5,r23
 80030b8:	80090c00 	call	80090c0 <__sprint_r>
 80030bc:	103b831e 	bne	r2,zero,8001ecc <__alt_data_end+0xf8001ecc>
 80030c0:	d8c02017 	ldw	r3,128(sp)
 80030c4:	dc401f17 	ldw	r17,124(sp)
 80030c8:	da000404 	addi	r8,sp,16
 80030cc:	003e8d06 	br	8002b04 <__alt_data_end+0xf8002b04>
 80030d0:	d9002c17 	ldw	r4,176(sp)
 80030d4:	d9801e04 	addi	r6,sp,120
 80030d8:	b80b883a 	mov	r5,r23
 80030dc:	80090c00 	call	80090c0 <__sprint_r>
 80030e0:	103b7a1e 	bne	r2,zero,8001ecc <__alt_data_end+0xf8001ecc>
 80030e4:	d8c02017 	ldw	r3,128(sp)
 80030e8:	dc401f17 	ldw	r17,124(sp)
 80030ec:	dd800404 	addi	r22,sp,16
 80030f0:	003e8f06 	br	8002b30 <__alt_data_end+0xf8002b30>
 80030f4:	0027883a 	mov	r19,zero
 80030f8:	003f4a06 	br	8002e24 <__alt_data_end+0xf8002e24>
 80030fc:	d9002c17 	ldw	r4,176(sp)
 8003100:	d9801e04 	addi	r6,sp,120
 8003104:	b80b883a 	mov	r5,r23
 8003108:	80090c00 	call	80090c0 <__sprint_r>
 800310c:	103b6f1e 	bne	r2,zero,8001ecc <__alt_data_end+0xf8001ecc>
 8003110:	d8c02017 	ldw	r3,128(sp)
 8003114:	da000404 	addi	r8,sp,16
 8003118:	003c9d06 	br	8002390 <__alt_data_end+0xf8002390>
 800311c:	04e7c83a 	sub	r19,zero,r19
 8003120:	9804c03a 	cmpne	r2,r19,zero
 8003124:	05adc83a 	sub	r22,zero,r22
 8003128:	b0adc83a 	sub	r22,r22,r2
 800312c:	d8802917 	ldw	r2,164(sp)
 8003130:	07000b44 	movi	fp,45
 8003134:	df002785 	stb	fp,158(sp)
 8003138:	10017b16 	blt	r2,zero,8003728 <___vfprintf_internal_r+0x1c64>
 800313c:	00bfdfc4 	movi	r2,-129
 8003140:	90a4703a 	and	r18,r18,r2
 8003144:	003bb106 	br	800200c <__alt_data_end+0xf800200c>
 8003148:	d9003617 	ldw	r4,216(sp)
 800314c:	d9403817 	ldw	r5,224(sp)
 8003150:	da003d15 	stw	r8,244(sp)
 8003154:	8008ce40 	call	8008ce4 <__fpclassifyd>
 8003158:	da003d17 	ldw	r8,244(sp)
 800315c:	1000f026 	beq	r2,zero,8003520 <___vfprintf_internal_r+0x1a5c>
 8003160:	d9002917 	ldw	r4,164(sp)
 8003164:	05bff7c4 	movi	r22,-33
 8003168:	00bfffc4 	movi	r2,-1
 800316c:	8dac703a 	and	r22,r17,r22
 8003170:	20820026 	beq	r4,r2,8003974 <___vfprintf_internal_r+0x1eb0>
 8003174:	008011c4 	movi	r2,71
 8003178:	b081f726 	beq	r22,r2,8003958 <___vfprintf_internal_r+0x1e94>
 800317c:	d9003817 	ldw	r4,224(sp)
 8003180:	90c04014 	ori	r3,r18,256
 8003184:	d8c02b15 	stw	r3,172(sp)
 8003188:	20021516 	blt	r4,zero,80039e0 <___vfprintf_internal_r+0x1f1c>
 800318c:	dcc03817 	ldw	r19,224(sp)
 8003190:	d8002a05 	stb	zero,168(sp)
 8003194:	00801984 	movi	r2,102
 8003198:	8881f926 	beq	r17,r2,8003980 <___vfprintf_internal_r+0x1ebc>
 800319c:	00801184 	movi	r2,70
 80031a0:	88821c26 	beq	r17,r2,8003a14 <___vfprintf_internal_r+0x1f50>
 80031a4:	00801144 	movi	r2,69
 80031a8:	b081ef26 	beq	r22,r2,8003968 <___vfprintf_internal_r+0x1ea4>
 80031ac:	d8c02917 	ldw	r3,164(sp)
 80031b0:	d8802104 	addi	r2,sp,132
 80031b4:	d8800315 	stw	r2,12(sp)
 80031b8:	d9403617 	ldw	r5,216(sp)
 80031bc:	d8802504 	addi	r2,sp,148
 80031c0:	d9002c17 	ldw	r4,176(sp)
 80031c4:	d8800215 	stw	r2,8(sp)
 80031c8:	d8802604 	addi	r2,sp,152
 80031cc:	d8c00015 	stw	r3,0(sp)
 80031d0:	d8800115 	stw	r2,4(sp)
 80031d4:	01c00084 	movi	r7,2
 80031d8:	980d883a 	mov	r6,r19
 80031dc:	d8c03c15 	stw	r3,240(sp)
 80031e0:	da003d15 	stw	r8,244(sp)
 80031e4:	80040e80 	call	80040e8 <_dtoa_r>
 80031e8:	1021883a 	mov	r16,r2
 80031ec:	008019c4 	movi	r2,103
 80031f0:	d8c03c17 	ldw	r3,240(sp)
 80031f4:	da003d17 	ldw	r8,244(sp)
 80031f8:	88817126 	beq	r17,r2,80037c0 <___vfprintf_internal_r+0x1cfc>
 80031fc:	008011c4 	movi	r2,71
 8003200:	88829226 	beq	r17,r2,8003c4c <___vfprintf_internal_r+0x2188>
 8003204:	80f9883a 	add	fp,r16,r3
 8003208:	d9003617 	ldw	r4,216(sp)
 800320c:	000d883a 	mov	r6,zero
 8003210:	000f883a 	mov	r7,zero
 8003214:	980b883a 	mov	r5,r19
 8003218:	da003d15 	stw	r8,244(sp)
 800321c:	800cd380 	call	800cd38 <__eqdf2>
 8003220:	da003d17 	ldw	r8,244(sp)
 8003224:	10018d26 	beq	r2,zero,800385c <___vfprintf_internal_r+0x1d98>
 8003228:	d8802117 	ldw	r2,132(sp)
 800322c:	1700062e 	bgeu	r2,fp,8003248 <___vfprintf_internal_r+0x1784>
 8003230:	01000c04 	movi	r4,48
 8003234:	10c00044 	addi	r3,r2,1
 8003238:	d8c02115 	stw	r3,132(sp)
 800323c:	11000005 	stb	r4,0(r2)
 8003240:	d8802117 	ldw	r2,132(sp)
 8003244:	173ffb36 	bltu	r2,fp,8003234 <__alt_data_end+0xf8003234>
 8003248:	1405c83a 	sub	r2,r2,r16
 800324c:	d8803315 	stw	r2,204(sp)
 8003250:	008011c4 	movi	r2,71
 8003254:	b0817626 	beq	r22,r2,8003830 <___vfprintf_internal_r+0x1d6c>
 8003258:	00801944 	movi	r2,101
 800325c:	1442810e 	bge	r2,r17,8003c64 <___vfprintf_internal_r+0x21a0>
 8003260:	d8c02617 	ldw	r3,152(sp)
 8003264:	00801984 	movi	r2,102
 8003268:	d8c03215 	stw	r3,200(sp)
 800326c:	8881fe26 	beq	r17,r2,8003a68 <___vfprintf_internal_r+0x1fa4>
 8003270:	d8c03217 	ldw	r3,200(sp)
 8003274:	d9003317 	ldw	r4,204(sp)
 8003278:	1901dd16 	blt	r3,r4,80039f0 <___vfprintf_internal_r+0x1f2c>
 800327c:	9480004c 	andi	r18,r18,1
 8003280:	90022b1e 	bne	r18,zero,8003b30 <___vfprintf_internal_r+0x206c>
 8003284:	1805883a 	mov	r2,r3
 8003288:	18028016 	blt	r3,zero,8003c8c <___vfprintf_internal_r+0x21c8>
 800328c:	d8c03217 	ldw	r3,200(sp)
 8003290:	044019c4 	movi	r17,103
 8003294:	d8c02e15 	stw	r3,184(sp)
 8003298:	df002a07 	ldb	fp,168(sp)
 800329c:	e001531e 	bne	fp,zero,80037ec <___vfprintf_internal_r+0x1d28>
 80032a0:	df002783 	ldbu	fp,158(sp)
 80032a4:	d8802a15 	stw	r2,168(sp)
 80032a8:	dc802b17 	ldw	r18,172(sp)
 80032ac:	d8002915 	stw	zero,164(sp)
 80032b0:	003bd106 	br	80021f8 <__alt_data_end+0xf80021f8>
 80032b4:	d8802d17 	ldw	r2,180(sp)
 80032b8:	d8c02d17 	ldw	r3,180(sp)
 80032bc:	d9002d17 	ldw	r4,180(sp)
 80032c0:	10800017 	ldw	r2,0(r2)
 80032c4:	18c00117 	ldw	r3,4(r3)
 80032c8:	21000204 	addi	r4,r4,8
 80032cc:	d8803615 	stw	r2,216(sp)
 80032d0:	d8c03815 	stw	r3,224(sp)
 80032d4:	d9002d15 	stw	r4,180(sp)
 80032d8:	003b7506 	br	80020b0 <__alt_data_end+0xf80020b0>
 80032dc:	ac400007 	ldb	r17,0(r21)
 80032e0:	003a5906 	br	8001c48 <__alt_data_end+0xf8001c48>
 80032e4:	9080100c 	andi	r2,r18,64
 80032e8:	1000a826 	beq	r2,zero,800358c <___vfprintf_internal_r+0x1ac8>
 80032ec:	d9002d17 	ldw	r4,180(sp)
 80032f0:	002d883a 	mov	r22,zero
 80032f4:	24c0000b 	ldhu	r19,0(r4)
 80032f8:	21000104 	addi	r4,r4,4
 80032fc:	d9002d15 	stw	r4,180(sp)
 8003300:	003ccb06 	br	8002630 <__alt_data_end+0xf8002630>
 8003304:	d8c02d17 	ldw	r3,180(sp)
 8003308:	d9002917 	ldw	r4,164(sp)
 800330c:	002d883a 	mov	r22,zero
 8003310:	18800104 	addi	r2,r3,4
 8003314:	1cc00017 	ldw	r19,0(r3)
 8003318:	203ebb0e 	bge	r4,zero,8002e08 <__alt_data_end+0xf8002e08>
 800331c:	003ef106 	br	8002ee4 <__alt_data_end+0xf8002ee4>
 8003320:	9080040c 	andi	r2,r18,16
 8003324:	1000921e 	bne	r2,zero,8003570 <___vfprintf_internal_r+0x1aac>
 8003328:	9480100c 	andi	r18,r18,64
 800332c:	90013926 	beq	r18,zero,8003814 <___vfprintf_internal_r+0x1d50>
 8003330:	d9002d17 	ldw	r4,180(sp)
 8003334:	d9402f17 	ldw	r5,188(sp)
 8003338:	20800017 	ldw	r2,0(r4)
 800333c:	21000104 	addi	r4,r4,4
 8003340:	d9002d15 	stw	r4,180(sp)
 8003344:	1140000d 	sth	r5,0(r2)
 8003348:	003a1606 	br	8001ba4 <__alt_data_end+0xf8001ba4>
 800334c:	9080100c 	andi	r2,r18,64
 8003350:	10008026 	beq	r2,zero,8003554 <___vfprintf_internal_r+0x1a90>
 8003354:	d8c02d17 	ldw	r3,180(sp)
 8003358:	1cc0000f 	ldh	r19,0(r3)
 800335c:	18c00104 	addi	r3,r3,4
 8003360:	d8c02d15 	stw	r3,180(sp)
 8003364:	982dd7fa 	srai	r22,r19,31
 8003368:	b005883a 	mov	r2,r22
 800336c:	003b1f06 	br	8001fec <__alt_data_end+0xf8001fec>
 8003370:	9080100c 	andi	r2,r18,64
 8003374:	d8002785 	stb	zero,158(sp)
 8003378:	10008a1e 	bne	r2,zero,80035a4 <___vfprintf_internal_r+0x1ae0>
 800337c:	d9402d17 	ldw	r5,180(sp)
 8003380:	d8c02917 	ldw	r3,164(sp)
 8003384:	002d883a 	mov	r22,zero
 8003388:	28800104 	addi	r2,r5,4
 800338c:	2cc00017 	ldw	r19,0(r5)
 8003390:	183e4b0e 	bge	r3,zero,8002cc0 <__alt_data_end+0xf8002cc0>
 8003394:	9d86b03a 	or	r3,r19,r22
 8003398:	d8802d15 	stw	r2,180(sp)
 800339c:	183e4c1e 	bne	r3,zero,8002cd0 <__alt_data_end+0xf8002cd0>
 80033a0:	0039883a 	mov	fp,zero
 80033a4:	0005883a 	mov	r2,zero
 80033a8:	003d4006 	br	80028ac <__alt_data_end+0xf80028ac>
 80033ac:	014200b4 	movhi	r5,2050
 80033b0:	29689f84 	addi	r5,r5,-23938
 80033b4:	d9402b15 	stw	r5,172(sp)
 80033b8:	d9402b17 	ldw	r5,172(sp)
 80033bc:	1c47883a 	add	r3,r3,r17
 80033c0:	10800044 	addi	r2,r2,1
 80033c4:	41400015 	stw	r5,0(r8)
 80033c8:	44400115 	stw	r17,4(r8)
 80033cc:	d8c02015 	stw	r3,128(sp)
 80033d0:	d8801f15 	stw	r2,124(sp)
 80033d4:	010001c4 	movi	r4,7
 80033d8:	20bec816 	blt	r4,r2,8002efc <__alt_data_end+0xf8002efc>
 80033dc:	42000204 	addi	r8,r8,8
 80033e0:	003ecd06 	br	8002f18 <__alt_data_end+0xf8002f18>
 80033e4:	d9002917 	ldw	r4,164(sp)
 80033e8:	d8002785 	stb	zero,158(sp)
 80033ec:	203d2d16 	blt	r4,zero,80028a4 <__alt_data_end+0xf80028a4>
 80033f0:	00bfdfc4 	movi	r2,-129
 80033f4:	90a4703a 	and	r18,r18,r2
 80033f8:	003a9106 	br	8001e40 <__alt_data_end+0xf8001e40>
 80033fc:	010200b4 	movhi	r4,2050
 8003400:	21289f84 	addi	r4,r4,-23938
 8003404:	d9002b15 	stw	r4,172(sp)
 8003408:	003c0c06 	br	800243c <__alt_data_end+0xf800243c>
 800340c:	d9002c17 	ldw	r4,176(sp)
 8003410:	d9801e04 	addi	r6,sp,120
 8003414:	b80b883a 	mov	r5,r23
 8003418:	80090c00 	call	80090c0 <__sprint_r>
 800341c:	103aab1e 	bne	r2,zero,8001ecc <__alt_data_end+0xf8001ecc>
 8003420:	d8c02017 	ldw	r3,128(sp)
 8003424:	da000404 	addi	r8,sp,16
 8003428:	003d4106 	br	8002930 <__alt_data_end+0xf8002930>
 800342c:	d8801f17 	ldw	r2,124(sp)
 8003430:	014200b4 	movhi	r5,2050
 8003434:	01000044 	movi	r4,1
 8003438:	18c00044 	addi	r3,r3,1
 800343c:	10800044 	addi	r2,r2,1
 8003440:	29689f04 	addi	r5,r5,-23940
 8003444:	41000115 	stw	r4,4(r8)
 8003448:	41400015 	stw	r5,0(r8)
 800344c:	d8c02015 	stw	r3,128(sp)
 8003450:	d8801f15 	stw	r2,124(sp)
 8003454:	010001c4 	movi	r4,7
 8003458:	20805c16 	blt	r4,r2,80035cc <___vfprintf_internal_r+0x1b08>
 800345c:	42000204 	addi	r8,r8,8
 8003460:	8800041e 	bne	r17,zero,8003474 <___vfprintf_internal_r+0x19b0>
 8003464:	d8803317 	ldw	r2,204(sp)
 8003468:	1000021e 	bne	r2,zero,8003474 <___vfprintf_internal_r+0x19b0>
 800346c:	9080004c 	andi	r2,r18,1
 8003470:	103c0926 	beq	r2,zero,8002498 <__alt_data_end+0xf8002498>
 8003474:	d9003717 	ldw	r4,220(sp)
 8003478:	d8801f17 	ldw	r2,124(sp)
 800347c:	d9403417 	ldw	r5,208(sp)
 8003480:	20c7883a 	add	r3,r4,r3
 8003484:	10800044 	addi	r2,r2,1
 8003488:	41000115 	stw	r4,4(r8)
 800348c:	41400015 	stw	r5,0(r8)
 8003490:	d8c02015 	stw	r3,128(sp)
 8003494:	d8801f15 	stw	r2,124(sp)
 8003498:	010001c4 	movi	r4,7
 800349c:	20812116 	blt	r4,r2,8003924 <___vfprintf_internal_r+0x1e60>
 80034a0:	42000204 	addi	r8,r8,8
 80034a4:	0463c83a 	sub	r17,zero,r17
 80034a8:	0440730e 	bge	zero,r17,8003678 <___vfprintf_internal_r+0x1bb4>
 80034ac:	05800404 	movi	r22,16
 80034b0:	b440860e 	bge	r22,r17,80036cc <___vfprintf_internal_r+0x1c08>
 80034b4:	014200b4 	movhi	r5,2050
 80034b8:	29689f84 	addi	r5,r5,-23938
 80034bc:	d9402b15 	stw	r5,172(sp)
 80034c0:	070001c4 	movi	fp,7
 80034c4:	dcc02c17 	ldw	r19,176(sp)
 80034c8:	00000306 	br	80034d8 <___vfprintf_internal_r+0x1a14>
 80034cc:	42000204 	addi	r8,r8,8
 80034d0:	8c7ffc04 	addi	r17,r17,-16
 80034d4:	b440800e 	bge	r22,r17,80036d8 <___vfprintf_internal_r+0x1c14>
 80034d8:	18c00404 	addi	r3,r3,16
 80034dc:	10800044 	addi	r2,r2,1
 80034e0:	45000015 	stw	r20,0(r8)
 80034e4:	45800115 	stw	r22,4(r8)
 80034e8:	d8c02015 	stw	r3,128(sp)
 80034ec:	d8801f15 	stw	r2,124(sp)
 80034f0:	e0bff60e 	bge	fp,r2,80034cc <__alt_data_end+0xf80034cc>
 80034f4:	d9801e04 	addi	r6,sp,120
 80034f8:	b80b883a 	mov	r5,r23
 80034fc:	9809883a 	mov	r4,r19
 8003500:	80090c00 	call	80090c0 <__sprint_r>
 8003504:	103a711e 	bne	r2,zero,8001ecc <__alt_data_end+0xf8001ecc>
 8003508:	d8c02017 	ldw	r3,128(sp)
 800350c:	d8801f17 	ldw	r2,124(sp)
 8003510:	da000404 	addi	r8,sp,16
 8003514:	003fee06 	br	80034d0 <__alt_data_end+0xf80034d0>
 8003518:	00bfffc4 	movi	r2,-1
 800351c:	003a6f06 	br	8001edc <__alt_data_end+0xf8001edc>
 8003520:	008011c4 	movi	r2,71
 8003524:	1440b816 	blt	r2,r17,8003808 <___vfprintf_internal_r+0x1d44>
 8003528:	040200b4 	movhi	r16,2050
 800352c:	84289104 	addi	r16,r16,-23996
 8003530:	00c000c4 	movi	r3,3
 8003534:	00bfdfc4 	movi	r2,-129
 8003538:	d8c02a15 	stw	r3,168(sp)
 800353c:	90a4703a 	and	r18,r18,r2
 8003540:	df002783 	ldbu	fp,158(sp)
 8003544:	d8c02e15 	stw	r3,184(sp)
 8003548:	d8002915 	stw	zero,164(sp)
 800354c:	d8003215 	stw	zero,200(sp)
 8003550:	003b2906 	br	80021f8 <__alt_data_end+0xf80021f8>
 8003554:	d9002d17 	ldw	r4,180(sp)
 8003558:	24c00017 	ldw	r19,0(r4)
 800355c:	21000104 	addi	r4,r4,4
 8003560:	d9002d15 	stw	r4,180(sp)
 8003564:	982dd7fa 	srai	r22,r19,31
 8003568:	b005883a 	mov	r2,r22
 800356c:	003a9f06 	br	8001fec <__alt_data_end+0xf8001fec>
 8003570:	d9402d17 	ldw	r5,180(sp)
 8003574:	d8c02f17 	ldw	r3,188(sp)
 8003578:	28800017 	ldw	r2,0(r5)
 800357c:	29400104 	addi	r5,r5,4
 8003580:	d9402d15 	stw	r5,180(sp)
 8003584:	10c00015 	stw	r3,0(r2)
 8003588:	00398606 	br	8001ba4 <__alt_data_end+0xf8001ba4>
 800358c:	d9402d17 	ldw	r5,180(sp)
 8003590:	002d883a 	mov	r22,zero
 8003594:	2cc00017 	ldw	r19,0(r5)
 8003598:	29400104 	addi	r5,r5,4
 800359c:	d9402d15 	stw	r5,180(sp)
 80035a0:	003c2306 	br	8002630 <__alt_data_end+0xf8002630>
 80035a4:	d8c02d17 	ldw	r3,180(sp)
 80035a8:	d9002917 	ldw	r4,164(sp)
 80035ac:	002d883a 	mov	r22,zero
 80035b0:	18800104 	addi	r2,r3,4
 80035b4:	1cc0000b 	ldhu	r19,0(r3)
 80035b8:	203dc10e 	bge	r4,zero,8002cc0 <__alt_data_end+0xf8002cc0>
 80035bc:	003f7506 	br	8003394 <__alt_data_end+0xf8003394>
 80035c0:	040200b4 	movhi	r16,2050
 80035c4:	84288f04 	addi	r16,r16,-24004
 80035c8:	003acc06 	br	80020fc <__alt_data_end+0xf80020fc>
 80035cc:	d9002c17 	ldw	r4,176(sp)
 80035d0:	d9801e04 	addi	r6,sp,120
 80035d4:	b80b883a 	mov	r5,r23
 80035d8:	80090c00 	call	80090c0 <__sprint_r>
 80035dc:	103a3b1e 	bne	r2,zero,8001ecc <__alt_data_end+0xf8001ecc>
 80035e0:	dc402617 	ldw	r17,152(sp)
 80035e4:	d8c02017 	ldw	r3,128(sp)
 80035e8:	da000404 	addi	r8,sp,16
 80035ec:	003f9c06 	br	8003460 <__alt_data_end+0xf8003460>
 80035f0:	ac400043 	ldbu	r17,1(r21)
 80035f4:	94800814 	ori	r18,r18,32
 80035f8:	ad400044 	addi	r21,r21,1
 80035fc:	8c403fcc 	andi	r17,r17,255
 8003600:	8c40201c 	xori	r17,r17,128
 8003604:	8c7fe004 	addi	r17,r17,-128
 8003608:	00398f06 	br	8001c48 <__alt_data_end+0xf8001c48>
 800360c:	d8c02d15 	stw	r3,180(sp)
 8003610:	0039883a 	mov	fp,zero
 8003614:	003e3506 	br	8002eec <__alt_data_end+0xf8002eec>
 8003618:	d9002c17 	ldw	r4,176(sp)
 800361c:	d9801e04 	addi	r6,sp,120
 8003620:	b80b883a 	mov	r5,r23
 8003624:	80090c00 	call	80090c0 <__sprint_r>
 8003628:	103a281e 	bne	r2,zero,8001ecc <__alt_data_end+0xf8001ecc>
 800362c:	d8c02017 	ldw	r3,128(sp)
 8003630:	da000404 	addi	r8,sp,16
 8003634:	003cd006 	br	8002978 <__alt_data_end+0xf8002978>
 8003638:	8009883a 	mov	r4,r16
 800363c:	da003d15 	stw	r8,244(sp)
 8003640:	8001a2c0 	call	8001a2c <strlen>
 8003644:	d8802e15 	stw	r2,184(sp)
 8003648:	da003d17 	ldw	r8,244(sp)
 800364c:	103c340e 	bge	r2,zero,8002720 <__alt_data_end+0xf8002720>
 8003650:	0005883a 	mov	r2,zero
 8003654:	003c3206 	br	8002720 <__alt_data_end+0xf8002720>
 8003658:	d9002c17 	ldw	r4,176(sp)
 800365c:	d9801e04 	addi	r6,sp,120
 8003660:	b80b883a 	mov	r5,r23
 8003664:	80090c00 	call	80090c0 <__sprint_r>
 8003668:	103a181e 	bne	r2,zero,8001ecc <__alt_data_end+0xf8001ecc>
 800366c:	d8c02017 	ldw	r3,128(sp)
 8003670:	d8801f17 	ldw	r2,124(sp)
 8003674:	da000404 	addi	r8,sp,16
 8003678:	d9403317 	ldw	r5,204(sp)
 800367c:	10800044 	addi	r2,r2,1
 8003680:	44000015 	stw	r16,0(r8)
 8003684:	28c7883a 	add	r3,r5,r3
 8003688:	003b7d06 	br	8002480 <__alt_data_end+0xf8002480>
 800368c:	010200b4 	movhi	r4,2050
 8003690:	2128a384 	addi	r4,r4,-23922
 8003694:	d9003515 	stw	r4,212(sp)
 8003698:	003b1406 	br	80022ec <__alt_data_end+0xf80022ec>
 800369c:	013fffc4 	movi	r4,-1
 80036a0:	003a3506 	br	8001f78 <__alt_data_end+0xf8001f78>
 80036a4:	0023883a 	mov	r17,zero
 80036a8:	003d9d06 	br	8002d20 <__alt_data_end+0xf8002d20>
 80036ac:	d9002c17 	ldw	r4,176(sp)
 80036b0:	d9801e04 	addi	r6,sp,120
 80036b4:	b80b883a 	mov	r5,r23
 80036b8:	80090c00 	call	80090c0 <__sprint_r>
 80036bc:	103a031e 	bne	r2,zero,8001ecc <__alt_data_end+0xf8001ecc>
 80036c0:	d8c02017 	ldw	r3,128(sp)
 80036c4:	da000404 	addi	r8,sp,16
 80036c8:	003d9406 	br	8002d1c <__alt_data_end+0xf8002d1c>
 80036cc:	010200b4 	movhi	r4,2050
 80036d0:	21289f84 	addi	r4,r4,-23938
 80036d4:	d9002b15 	stw	r4,172(sp)
 80036d8:	d9002b17 	ldw	r4,172(sp)
 80036dc:	1c47883a 	add	r3,r3,r17
 80036e0:	10800044 	addi	r2,r2,1
 80036e4:	41000015 	stw	r4,0(r8)
 80036e8:	44400115 	stw	r17,4(r8)
 80036ec:	d8c02015 	stw	r3,128(sp)
 80036f0:	d8801f15 	stw	r2,124(sp)
 80036f4:	010001c4 	movi	r4,7
 80036f8:	20bfd716 	blt	r4,r2,8003658 <__alt_data_end+0xf8003658>
 80036fc:	42000204 	addi	r8,r8,8
 8003700:	003fdd06 	br	8003678 <__alt_data_end+0xf8003678>
 8003704:	d9002c17 	ldw	r4,176(sp)
 8003708:	d9801e04 	addi	r6,sp,120
 800370c:	b80b883a 	mov	r5,r23
 8003710:	80090c00 	call	80090c0 <__sprint_r>
 8003714:	1039ed1e 	bne	r2,zero,8001ecc <__alt_data_end+0xf8001ecc>
 8003718:	d8802617 	ldw	r2,152(sp)
 800371c:	d8c02017 	ldw	r3,128(sp)
 8003720:	da000404 	addi	r8,sp,16
 8003724:	003e1006 	br	8002f68 <__alt_data_end+0xf8002f68>
 8003728:	00800044 	movi	r2,1
 800372c:	10803fcc 	andi	r2,r2,255
 8003730:	00c00044 	movi	r3,1
 8003734:	10fa3526 	beq	r2,r3,800200c <__alt_data_end+0xf800200c>
 8003738:	00c00084 	movi	r3,2
 800373c:	10fbcb26 	beq	r2,r3,800266c <__alt_data_end+0xf800266c>
 8003740:	003a8f06 	br	8002180 <__alt_data_end+0xf8002180>
 8003744:	010200b4 	movhi	r4,2050
 8003748:	2128a384 	addi	r4,r4,-23922
 800374c:	d9003515 	stw	r4,212(sp)
 8003750:	003b7606 	br	800252c <__alt_data_end+0xf800252c>
 8003754:	d8802917 	ldw	r2,164(sp)
 8003758:	00c00184 	movi	r3,6
 800375c:	1880012e 	bgeu	r3,r2,8003764 <___vfprintf_internal_r+0x1ca0>
 8003760:	1805883a 	mov	r2,r3
 8003764:	d8802e15 	stw	r2,184(sp)
 8003768:	1000ef16 	blt	r2,zero,8003b28 <___vfprintf_internal_r+0x2064>
 800376c:	040200b4 	movhi	r16,2050
 8003770:	d8802a15 	stw	r2,168(sp)
 8003774:	dcc02d15 	stw	r19,180(sp)
 8003778:	d8002915 	stw	zero,164(sp)
 800377c:	d8003215 	stw	zero,200(sp)
 8003780:	84289d04 	addi	r16,r16,-23948
 8003784:	0039883a 	mov	fp,zero
 8003788:	003aa206 	br	8002214 <__alt_data_end+0xf8002214>
 800378c:	0021883a 	mov	r16,zero
 8003790:	003e0706 	br	8002fb0 <__alt_data_end+0xf8002fb0>
 8003794:	d9002c17 	ldw	r4,176(sp)
 8003798:	d9801e04 	addi	r6,sp,120
 800379c:	b80b883a 	mov	r5,r23
 80037a0:	80090c00 	call	80090c0 <__sprint_r>
 80037a4:	1039c91e 	bne	r2,zero,8001ecc <__alt_data_end+0xf8001ecc>
 80037a8:	d8802617 	ldw	r2,152(sp)
 80037ac:	d9403317 	ldw	r5,204(sp)
 80037b0:	d8c02017 	ldw	r3,128(sp)
 80037b4:	da000404 	addi	r8,sp,16
 80037b8:	2885c83a 	sub	r2,r5,r2
 80037bc:	003dfb06 	br	8002fac <__alt_data_end+0xf8002fac>
 80037c0:	9080004c 	andi	r2,r18,1
 80037c4:	103e8f1e 	bne	r2,zero,8003204 <__alt_data_end+0xf8003204>
 80037c8:	d8802117 	ldw	r2,132(sp)
 80037cc:	003e9e06 	br	8003248 <__alt_data_end+0xf8003248>
 80037d0:	1025883a 	mov	r18,r2
 80037d4:	0039883a 	mov	fp,zero
 80037d8:	00800084 	movi	r2,2
 80037dc:	003fd306 	br	800372c <__alt_data_end+0xf800372c>
 80037e0:	07000b44 	movi	fp,45
 80037e4:	df002785 	stb	fp,158(sp)
 80037e8:	003a4006 	br	80020ec <__alt_data_end+0xf80020ec>
 80037ec:	00c00b44 	movi	r3,45
 80037f0:	d8c02785 	stb	r3,158(sp)
 80037f4:	d8802a15 	stw	r2,168(sp)
 80037f8:	dc802b17 	ldw	r18,172(sp)
 80037fc:	d8002915 	stw	zero,164(sp)
 8003800:	07000b44 	movi	fp,45
 8003804:	003a8006 	br	8002208 <__alt_data_end+0xf8002208>
 8003808:	040200b4 	movhi	r16,2050
 800380c:	84289204 	addi	r16,r16,-23992
 8003810:	003f4706 	br	8003530 <__alt_data_end+0xf8003530>
 8003814:	d8c02d17 	ldw	r3,180(sp)
 8003818:	d9002f17 	ldw	r4,188(sp)
 800381c:	18800017 	ldw	r2,0(r3)
 8003820:	18c00104 	addi	r3,r3,4
 8003824:	d8c02d15 	stw	r3,180(sp)
 8003828:	11000015 	stw	r4,0(r2)
 800382c:	0038dd06 	br	8001ba4 <__alt_data_end+0xf8001ba4>
 8003830:	dd802617 	ldw	r22,152(sp)
 8003834:	00bfff44 	movi	r2,-3
 8003838:	b0801c16 	blt	r22,r2,80038ac <___vfprintf_internal_r+0x1de8>
 800383c:	d9402917 	ldw	r5,164(sp)
 8003840:	2d801a16 	blt	r5,r22,80038ac <___vfprintf_internal_r+0x1de8>
 8003844:	dd803215 	stw	r22,200(sp)
 8003848:	003e8906 	br	8003270 <__alt_data_end+0xf8003270>
 800384c:	010200b4 	movhi	r4,2050
 8003850:	21289f84 	addi	r4,r4,-23938
 8003854:	d9002b15 	stw	r4,172(sp)
 8003858:	003c9106 	br	8002aa0 <__alt_data_end+0xf8002aa0>
 800385c:	e005883a 	mov	r2,fp
 8003860:	003e7906 	br	8003248 <__alt_data_end+0xf8003248>
 8003864:	d9402917 	ldw	r5,164(sp)
 8003868:	df002783 	ldbu	fp,158(sp)
 800386c:	dcc02d15 	stw	r19,180(sp)
 8003870:	d9402a15 	stw	r5,168(sp)
 8003874:	d9402e15 	stw	r5,184(sp)
 8003878:	d8002915 	stw	zero,164(sp)
 800387c:	d8003215 	stw	zero,200(sp)
 8003880:	003a5d06 	br	80021f8 <__alt_data_end+0xf80021f8>
 8003884:	9080004c 	andi	r2,r18,1
 8003888:	0039883a 	mov	fp,zero
 800388c:	10000426 	beq	r2,zero,80038a0 <___vfprintf_internal_r+0x1ddc>
 8003890:	00800c04 	movi	r2,48
 8003894:	dc001dc4 	addi	r16,sp,119
 8003898:	d8801dc5 	stb	r2,119(sp)
 800389c:	003b8006 	br	80026a0 <__alt_data_end+0xf80026a0>
 80038a0:	d8002e15 	stw	zero,184(sp)
 80038a4:	dc001e04 	addi	r16,sp,120
 80038a8:	003a4d06 	br	80021e0 <__alt_data_end+0xf80021e0>
 80038ac:	8c7fff84 	addi	r17,r17,-2
 80038b0:	b5bfffc4 	addi	r22,r22,-1
 80038b4:	dd802615 	stw	r22,152(sp)
 80038b8:	dc4022c5 	stb	r17,139(sp)
 80038bc:	b000bf16 	blt	r22,zero,8003bbc <___vfprintf_internal_r+0x20f8>
 80038c0:	00800ac4 	movi	r2,43
 80038c4:	d8802305 	stb	r2,140(sp)
 80038c8:	00800244 	movi	r2,9
 80038cc:	15807016 	blt	r2,r22,8003a90 <___vfprintf_internal_r+0x1fcc>
 80038d0:	00800c04 	movi	r2,48
 80038d4:	b5800c04 	addi	r22,r22,48
 80038d8:	d8802345 	stb	r2,141(sp)
 80038dc:	dd802385 	stb	r22,142(sp)
 80038e0:	d88023c4 	addi	r2,sp,143
 80038e4:	df0022c4 	addi	fp,sp,139
 80038e8:	d8c03317 	ldw	r3,204(sp)
 80038ec:	1739c83a 	sub	fp,r2,fp
 80038f0:	d9003317 	ldw	r4,204(sp)
 80038f4:	e0c7883a 	add	r3,fp,r3
 80038f8:	df003a15 	stw	fp,232(sp)
 80038fc:	d8c02e15 	stw	r3,184(sp)
 8003900:	00800044 	movi	r2,1
 8003904:	1100b30e 	bge	r2,r4,8003bd4 <___vfprintf_internal_r+0x2110>
 8003908:	d8c02e17 	ldw	r3,184(sp)
 800390c:	18c00044 	addi	r3,r3,1
 8003910:	d8c02e15 	stw	r3,184(sp)
 8003914:	1805883a 	mov	r2,r3
 8003918:	1800ac16 	blt	r3,zero,8003bcc <___vfprintf_internal_r+0x2108>
 800391c:	d8003215 	stw	zero,200(sp)
 8003920:	003e5d06 	br	8003298 <__alt_data_end+0xf8003298>
 8003924:	d9002c17 	ldw	r4,176(sp)
 8003928:	d9801e04 	addi	r6,sp,120
 800392c:	b80b883a 	mov	r5,r23
 8003930:	80090c00 	call	80090c0 <__sprint_r>
 8003934:	1039651e 	bne	r2,zero,8001ecc <__alt_data_end+0xf8001ecc>
 8003938:	dc402617 	ldw	r17,152(sp)
 800393c:	d8c02017 	ldw	r3,128(sp)
 8003940:	d8801f17 	ldw	r2,124(sp)
 8003944:	da000404 	addi	r8,sp,16
 8003948:	003ed606 	br	80034a4 <__alt_data_end+0xf80034a4>
 800394c:	582b883a 	mov	r21,r11
 8003950:	d8002915 	stw	zero,164(sp)
 8003954:	0038bd06 	br	8001c4c <__alt_data_end+0xf8001c4c>
 8003958:	d8802917 	ldw	r2,164(sp)
 800395c:	103e071e 	bne	r2,zero,800317c <__alt_data_end+0xf800317c>
 8003960:	dc002915 	stw	r16,164(sp)
 8003964:	003e0506 	br	800317c <__alt_data_end+0xf800317c>
 8003968:	d9002917 	ldw	r4,164(sp)
 800396c:	20c00044 	addi	r3,r4,1
 8003970:	003e0f06 	br	80031b0 <__alt_data_end+0xf80031b0>
 8003974:	01400184 	movi	r5,6
 8003978:	d9402915 	stw	r5,164(sp)
 800397c:	003dff06 	br	800317c <__alt_data_end+0xf800317c>
 8003980:	d8802104 	addi	r2,sp,132
 8003984:	d8800315 	stw	r2,12(sp)
 8003988:	d8802504 	addi	r2,sp,148
 800398c:	d8800215 	stw	r2,8(sp)
 8003990:	d8802604 	addi	r2,sp,152
 8003994:	d8800115 	stw	r2,4(sp)
 8003998:	d8802917 	ldw	r2,164(sp)
 800399c:	d9403617 	ldw	r5,216(sp)
 80039a0:	d9002c17 	ldw	r4,176(sp)
 80039a4:	d8800015 	stw	r2,0(sp)
 80039a8:	01c000c4 	movi	r7,3
 80039ac:	980d883a 	mov	r6,r19
 80039b0:	da003d15 	stw	r8,244(sp)
 80039b4:	80040e80 	call	80040e8 <_dtoa_r>
 80039b8:	d8c02917 	ldw	r3,164(sp)
 80039bc:	da003d17 	ldw	r8,244(sp)
 80039c0:	1021883a 	mov	r16,r2
 80039c4:	10f9883a 	add	fp,r2,r3
 80039c8:	81000007 	ldb	r4,0(r16)
 80039cc:	00800c04 	movi	r2,48
 80039d0:	20805e26 	beq	r4,r2,8003b4c <___vfprintf_internal_r+0x2088>
 80039d4:	d8c02617 	ldw	r3,152(sp)
 80039d8:	e0f9883a 	add	fp,fp,r3
 80039dc:	003e0a06 	br	8003208 <__alt_data_end+0xf8003208>
 80039e0:	00c00b44 	movi	r3,45
 80039e4:	24e0003c 	xorhi	r19,r4,32768
 80039e8:	d8c02a05 	stb	r3,168(sp)
 80039ec:	003de906 	br	8003194 <__alt_data_end+0xf8003194>
 80039f0:	d8c03217 	ldw	r3,200(sp)
 80039f4:	00c07a0e 	bge	zero,r3,8003be0 <___vfprintf_internal_r+0x211c>
 80039f8:	00800044 	movi	r2,1
 80039fc:	d9003317 	ldw	r4,204(sp)
 8003a00:	1105883a 	add	r2,r2,r4
 8003a04:	d8802e15 	stw	r2,184(sp)
 8003a08:	10004e16 	blt	r2,zero,8003b44 <___vfprintf_internal_r+0x2080>
 8003a0c:	044019c4 	movi	r17,103
 8003a10:	003e2106 	br	8003298 <__alt_data_end+0xf8003298>
 8003a14:	d9002917 	ldw	r4,164(sp)
 8003a18:	d8802104 	addi	r2,sp,132
 8003a1c:	d8800315 	stw	r2,12(sp)
 8003a20:	d9000015 	stw	r4,0(sp)
 8003a24:	d8802504 	addi	r2,sp,148
 8003a28:	d9403617 	ldw	r5,216(sp)
 8003a2c:	d9002c17 	ldw	r4,176(sp)
 8003a30:	d8800215 	stw	r2,8(sp)
 8003a34:	d8802604 	addi	r2,sp,152
 8003a38:	d8800115 	stw	r2,4(sp)
 8003a3c:	01c000c4 	movi	r7,3
 8003a40:	980d883a 	mov	r6,r19
 8003a44:	da003d15 	stw	r8,244(sp)
 8003a48:	80040e80 	call	80040e8 <_dtoa_r>
 8003a4c:	d8c02917 	ldw	r3,164(sp)
 8003a50:	da003d17 	ldw	r8,244(sp)
 8003a54:	1021883a 	mov	r16,r2
 8003a58:	00801184 	movi	r2,70
 8003a5c:	80f9883a 	add	fp,r16,r3
 8003a60:	88bfd926 	beq	r17,r2,80039c8 <__alt_data_end+0xf80039c8>
 8003a64:	003de806 	br	8003208 <__alt_data_end+0xf8003208>
 8003a68:	d9002917 	ldw	r4,164(sp)
 8003a6c:	00c04d0e 	bge	zero,r3,8003ba4 <___vfprintf_internal_r+0x20e0>
 8003a70:	2000441e 	bne	r4,zero,8003b84 <___vfprintf_internal_r+0x20c0>
 8003a74:	9480004c 	andi	r18,r18,1
 8003a78:	9000421e 	bne	r18,zero,8003b84 <___vfprintf_internal_r+0x20c0>
 8003a7c:	1805883a 	mov	r2,r3
 8003a80:	18007016 	blt	r3,zero,8003c44 <___vfprintf_internal_r+0x2180>
 8003a84:	d8c03217 	ldw	r3,200(sp)
 8003a88:	d8c02e15 	stw	r3,184(sp)
 8003a8c:	003e0206 	br	8003298 <__alt_data_end+0xf8003298>
 8003a90:	df0022c4 	addi	fp,sp,139
 8003a94:	dc002915 	stw	r16,164(sp)
 8003a98:	4027883a 	mov	r19,r8
 8003a9c:	e021883a 	mov	r16,fp
 8003aa0:	b009883a 	mov	r4,r22
 8003aa4:	01400284 	movi	r5,10
 8003aa8:	800ba740 	call	800ba74 <__modsi3>
 8003aac:	10800c04 	addi	r2,r2,48
 8003ab0:	843fffc4 	addi	r16,r16,-1
 8003ab4:	b009883a 	mov	r4,r22
 8003ab8:	01400284 	movi	r5,10
 8003abc:	80800005 	stb	r2,0(r16)
 8003ac0:	800b9f00 	call	800b9f0 <__divsi3>
 8003ac4:	102d883a 	mov	r22,r2
 8003ac8:	00800244 	movi	r2,9
 8003acc:	15bff416 	blt	r2,r22,8003aa0 <__alt_data_end+0xf8003aa0>
 8003ad0:	9811883a 	mov	r8,r19
 8003ad4:	b0800c04 	addi	r2,r22,48
 8003ad8:	8027883a 	mov	r19,r16
 8003adc:	997fffc4 	addi	r5,r19,-1
 8003ae0:	98bfffc5 	stb	r2,-1(r19)
 8003ae4:	dc002917 	ldw	r16,164(sp)
 8003ae8:	2f006a2e 	bgeu	r5,fp,8003c94 <___vfprintf_internal_r+0x21d0>
 8003aec:	d9c02384 	addi	r7,sp,142
 8003af0:	3ccfc83a 	sub	r7,r7,r19
 8003af4:	d9002344 	addi	r4,sp,141
 8003af8:	e1cf883a 	add	r7,fp,r7
 8003afc:	00000106 	br	8003b04 <___vfprintf_internal_r+0x2040>
 8003b00:	28800003 	ldbu	r2,0(r5)
 8003b04:	20800005 	stb	r2,0(r4)
 8003b08:	21000044 	addi	r4,r4,1
 8003b0c:	29400044 	addi	r5,r5,1
 8003b10:	393ffb1e 	bne	r7,r4,8003b00 <__alt_data_end+0xf8003b00>
 8003b14:	d8802304 	addi	r2,sp,140
 8003b18:	14c5c83a 	sub	r2,r2,r19
 8003b1c:	d8c02344 	addi	r3,sp,141
 8003b20:	1885883a 	add	r2,r3,r2
 8003b24:	003f7006 	br	80038e8 <__alt_data_end+0xf80038e8>
 8003b28:	0005883a 	mov	r2,zero
 8003b2c:	003f0f06 	br	800376c <__alt_data_end+0xf800376c>
 8003b30:	d8c03217 	ldw	r3,200(sp)
 8003b34:	18c00044 	addi	r3,r3,1
 8003b38:	d8c02e15 	stw	r3,184(sp)
 8003b3c:	1805883a 	mov	r2,r3
 8003b40:	183fb20e 	bge	r3,zero,8003a0c <__alt_data_end+0xf8003a0c>
 8003b44:	0005883a 	mov	r2,zero
 8003b48:	003fb006 	br	8003a0c <__alt_data_end+0xf8003a0c>
 8003b4c:	d9003617 	ldw	r4,216(sp)
 8003b50:	000d883a 	mov	r6,zero
 8003b54:	000f883a 	mov	r7,zero
 8003b58:	980b883a 	mov	r5,r19
 8003b5c:	d8c03c15 	stw	r3,240(sp)
 8003b60:	da003d15 	stw	r8,244(sp)
 8003b64:	800cd380 	call	800cd38 <__eqdf2>
 8003b68:	d8c03c17 	ldw	r3,240(sp)
 8003b6c:	da003d17 	ldw	r8,244(sp)
 8003b70:	103f9826 	beq	r2,zero,80039d4 <__alt_data_end+0xf80039d4>
 8003b74:	00800044 	movi	r2,1
 8003b78:	10c7c83a 	sub	r3,r2,r3
 8003b7c:	d8c02615 	stw	r3,152(sp)
 8003b80:	003f9506 	br	80039d8 <__alt_data_end+0xf80039d8>
 8003b84:	d9002917 	ldw	r4,164(sp)
 8003b88:	d8c03217 	ldw	r3,200(sp)
 8003b8c:	20800044 	addi	r2,r4,1
 8003b90:	1885883a 	add	r2,r3,r2
 8003b94:	d8802e15 	stw	r2,184(sp)
 8003b98:	103dbf0e 	bge	r2,zero,8003298 <__alt_data_end+0xf8003298>
 8003b9c:	0005883a 	mov	r2,zero
 8003ba0:	003dbd06 	br	8003298 <__alt_data_end+0xf8003298>
 8003ba4:	2000211e 	bne	r4,zero,8003c2c <___vfprintf_internal_r+0x2168>
 8003ba8:	9480004c 	andi	r18,r18,1
 8003bac:	90001f1e 	bne	r18,zero,8003c2c <___vfprintf_internal_r+0x2168>
 8003bb0:	00800044 	movi	r2,1
 8003bb4:	d8802e15 	stw	r2,184(sp)
 8003bb8:	003db706 	br	8003298 <__alt_data_end+0xf8003298>
 8003bbc:	00800b44 	movi	r2,45
 8003bc0:	05adc83a 	sub	r22,zero,r22
 8003bc4:	d8802305 	stb	r2,140(sp)
 8003bc8:	003f3f06 	br	80038c8 <__alt_data_end+0xf80038c8>
 8003bcc:	0005883a 	mov	r2,zero
 8003bd0:	003f5206 	br	800391c <__alt_data_end+0xf800391c>
 8003bd4:	90a4703a 	and	r18,r18,r2
 8003bd8:	903f4e26 	beq	r18,zero,8003914 <__alt_data_end+0xf8003914>
 8003bdc:	003f4a06 	br	8003908 <__alt_data_end+0xf8003908>
 8003be0:	00800084 	movi	r2,2
 8003be4:	10c5c83a 	sub	r2,r2,r3
 8003be8:	003f8406 	br	80039fc <__alt_data_end+0xf80039fc>
 8003bec:	d8802d17 	ldw	r2,180(sp)
 8003bf0:	d9002d17 	ldw	r4,180(sp)
 8003bf4:	ac400043 	ldbu	r17,1(r21)
 8003bf8:	10800017 	ldw	r2,0(r2)
 8003bfc:	582b883a 	mov	r21,r11
 8003c00:	d8802915 	stw	r2,164(sp)
 8003c04:	20800104 	addi	r2,r4,4
 8003c08:	d9002917 	ldw	r4,164(sp)
 8003c0c:	d8802d15 	stw	r2,180(sp)
 8003c10:	203e7a0e 	bge	r4,zero,80035fc <__alt_data_end+0xf80035fc>
 8003c14:	8c403fcc 	andi	r17,r17,255
 8003c18:	00bfffc4 	movi	r2,-1
 8003c1c:	8c40201c 	xori	r17,r17,128
 8003c20:	d8802915 	stw	r2,164(sp)
 8003c24:	8c7fe004 	addi	r17,r17,-128
 8003c28:	00380706 	br	8001c48 <__alt_data_end+0xf8001c48>
 8003c2c:	d8c02917 	ldw	r3,164(sp)
 8003c30:	18c00084 	addi	r3,r3,2
 8003c34:	d8c02e15 	stw	r3,184(sp)
 8003c38:	1805883a 	mov	r2,r3
 8003c3c:	183d960e 	bge	r3,zero,8003298 <__alt_data_end+0xf8003298>
 8003c40:	003fd606 	br	8003b9c <__alt_data_end+0xf8003b9c>
 8003c44:	0005883a 	mov	r2,zero
 8003c48:	003f8e06 	br	8003a84 <__alt_data_end+0xf8003a84>
 8003c4c:	9080004c 	andi	r2,r18,1
 8003c50:	103f811e 	bne	r2,zero,8003a58 <__alt_data_end+0xf8003a58>
 8003c54:	d8802117 	ldw	r2,132(sp)
 8003c58:	1405c83a 	sub	r2,r2,r16
 8003c5c:	d8803315 	stw	r2,204(sp)
 8003c60:	b47ef326 	beq	r22,r17,8003830 <__alt_data_end+0xf8003830>
 8003c64:	dd802617 	ldw	r22,152(sp)
 8003c68:	003f1106 	br	80038b0 <__alt_data_end+0xf80038b0>
 8003c6c:	d9c02785 	stb	r7,158(sp)
 8003c70:	00390406 	br	8002084 <__alt_data_end+0xf8002084>
 8003c74:	d9c02785 	stb	r7,158(sp)
 8003c78:	0038d306 	br	8001fc8 <__alt_data_end+0xf8001fc8>
 8003c7c:	d9c02785 	stb	r7,158(sp)
 8003c80:	003a6106 	br	8002608 <__alt_data_end+0xf8002608>
 8003c84:	d9c02785 	stb	r7,158(sp)
 8003c88:	003af806 	br	800286c <__alt_data_end+0xf800286c>
 8003c8c:	0005883a 	mov	r2,zero
 8003c90:	003d7e06 	br	800328c <__alt_data_end+0xf800328c>
 8003c94:	d8802344 	addi	r2,sp,141
 8003c98:	003f1306 	br	80038e8 <__alt_data_end+0xf80038e8>
 8003c9c:	d9c02785 	stb	r7,158(sp)
 8003ca0:	00392306 	br	8002130 <__alt_data_end+0xf8002130>
 8003ca4:	d9c02785 	stb	r7,158(sp)
 8003ca8:	003aa906 	br	8002750 <__alt_data_end+0xf8002750>
 8003cac:	d9c02785 	stb	r7,158(sp)
 8003cb0:	003a3d06 	br	80025a8 <__alt_data_end+0xf80025a8>
 8003cb4:	d9c02785 	stb	r7,158(sp)
 8003cb8:	003aca06 	br	80027e4 <__alt_data_end+0xf80027e4>

08003cbc <__vfprintf_internal>:
 8003cbc:	008200b4 	movhi	r2,2050
 8003cc0:	10b0a104 	addi	r2,r2,-15740
 8003cc4:	300f883a 	mov	r7,r6
 8003cc8:	280d883a 	mov	r6,r5
 8003ccc:	200b883a 	mov	r5,r4
 8003cd0:	11000017 	ldw	r4,0(r2)
 8003cd4:	8001ac41 	jmpi	8001ac4 <___vfprintf_internal_r>

08003cd8 <__sbprintf>:
 8003cd8:	2880030b 	ldhu	r2,12(r5)
 8003cdc:	2ac01917 	ldw	r11,100(r5)
 8003ce0:	2a80038b 	ldhu	r10,14(r5)
 8003ce4:	2a400717 	ldw	r9,28(r5)
 8003ce8:	2a000917 	ldw	r8,36(r5)
 8003cec:	defee204 	addi	sp,sp,-1144
 8003cf0:	00c10004 	movi	r3,1024
 8003cf4:	dc011a15 	stw	r16,1128(sp)
 8003cf8:	10bfff4c 	andi	r2,r2,65533
 8003cfc:	2821883a 	mov	r16,r5
 8003d00:	d8cb883a 	add	r5,sp,r3
 8003d04:	dc811c15 	stw	r18,1136(sp)
 8003d08:	dc411b15 	stw	r17,1132(sp)
 8003d0c:	dfc11d15 	stw	ra,1140(sp)
 8003d10:	2025883a 	mov	r18,r4
 8003d14:	d881030d 	sth	r2,1036(sp)
 8003d18:	dac11915 	stw	r11,1124(sp)
 8003d1c:	da81038d 	sth	r10,1038(sp)
 8003d20:	da410715 	stw	r9,1052(sp)
 8003d24:	da010915 	stw	r8,1060(sp)
 8003d28:	dec10015 	stw	sp,1024(sp)
 8003d2c:	dec10415 	stw	sp,1040(sp)
 8003d30:	d8c10215 	stw	r3,1032(sp)
 8003d34:	d8c10515 	stw	r3,1044(sp)
 8003d38:	d8010615 	stw	zero,1048(sp)
 8003d3c:	8001ac40 	call	8001ac4 <___vfprintf_internal_r>
 8003d40:	1023883a 	mov	r17,r2
 8003d44:	10000416 	blt	r2,zero,8003d58 <__sbprintf+0x80>
 8003d48:	d9410004 	addi	r5,sp,1024
 8003d4c:	9009883a 	mov	r4,r18
 8003d50:	800598c0 	call	800598c <_fflush_r>
 8003d54:	10000d1e 	bne	r2,zero,8003d8c <__sbprintf+0xb4>
 8003d58:	d881030b 	ldhu	r2,1036(sp)
 8003d5c:	1080100c 	andi	r2,r2,64
 8003d60:	10000326 	beq	r2,zero,8003d70 <__sbprintf+0x98>
 8003d64:	8080030b 	ldhu	r2,12(r16)
 8003d68:	10801014 	ori	r2,r2,64
 8003d6c:	8080030d 	sth	r2,12(r16)
 8003d70:	8805883a 	mov	r2,r17
 8003d74:	dfc11d17 	ldw	ra,1140(sp)
 8003d78:	dc811c17 	ldw	r18,1136(sp)
 8003d7c:	dc411b17 	ldw	r17,1132(sp)
 8003d80:	dc011a17 	ldw	r16,1128(sp)
 8003d84:	dec11e04 	addi	sp,sp,1144
 8003d88:	f800283a 	ret
 8003d8c:	047fffc4 	movi	r17,-1
 8003d90:	003ff106 	br	8003d58 <__alt_data_end+0xf8003d58>

08003d94 <__swsetup_r>:
 8003d94:	008200b4 	movhi	r2,2050
 8003d98:	defffd04 	addi	sp,sp,-12
 8003d9c:	10b0a104 	addi	r2,r2,-15740
 8003da0:	dc400115 	stw	r17,4(sp)
 8003da4:	2023883a 	mov	r17,r4
 8003da8:	11000017 	ldw	r4,0(r2)
 8003dac:	dc000015 	stw	r16,0(sp)
 8003db0:	dfc00215 	stw	ra,8(sp)
 8003db4:	2821883a 	mov	r16,r5
 8003db8:	20000226 	beq	r4,zero,8003dc4 <__swsetup_r+0x30>
 8003dbc:	20800e17 	ldw	r2,56(r4)
 8003dc0:	10003126 	beq	r2,zero,8003e88 <__swsetup_r+0xf4>
 8003dc4:	8080030b 	ldhu	r2,12(r16)
 8003dc8:	10c0020c 	andi	r3,r2,8
 8003dcc:	1009883a 	mov	r4,r2
 8003dd0:	18000f26 	beq	r3,zero,8003e10 <__swsetup_r+0x7c>
 8003dd4:	80c00417 	ldw	r3,16(r16)
 8003dd8:	18001526 	beq	r3,zero,8003e30 <__swsetup_r+0x9c>
 8003ddc:	1100004c 	andi	r4,r2,1
 8003de0:	20001c1e 	bne	r4,zero,8003e54 <__swsetup_r+0xc0>
 8003de4:	1080008c 	andi	r2,r2,2
 8003de8:	1000291e 	bne	r2,zero,8003e90 <__swsetup_r+0xfc>
 8003dec:	80800517 	ldw	r2,20(r16)
 8003df0:	80800215 	stw	r2,8(r16)
 8003df4:	18001c26 	beq	r3,zero,8003e68 <__swsetup_r+0xd4>
 8003df8:	0005883a 	mov	r2,zero
 8003dfc:	dfc00217 	ldw	ra,8(sp)
 8003e00:	dc400117 	ldw	r17,4(sp)
 8003e04:	dc000017 	ldw	r16,0(sp)
 8003e08:	dec00304 	addi	sp,sp,12
 8003e0c:	f800283a 	ret
 8003e10:	2080040c 	andi	r2,r4,16
 8003e14:	10002e26 	beq	r2,zero,8003ed0 <__swsetup_r+0x13c>
 8003e18:	2080010c 	andi	r2,r4,4
 8003e1c:	10001e1e 	bne	r2,zero,8003e98 <__swsetup_r+0x104>
 8003e20:	80c00417 	ldw	r3,16(r16)
 8003e24:	20800214 	ori	r2,r4,8
 8003e28:	8080030d 	sth	r2,12(r16)
 8003e2c:	183feb1e 	bne	r3,zero,8003ddc <__alt_data_end+0xf8003ddc>
 8003e30:	1100a00c 	andi	r4,r2,640
 8003e34:	01408004 	movi	r5,512
 8003e38:	217fe826 	beq	r4,r5,8003ddc <__alt_data_end+0xf8003ddc>
 8003e3c:	800b883a 	mov	r5,r16
 8003e40:	8809883a 	mov	r4,r17
 8003e44:	800690c0 	call	800690c <__smakebuf_r>
 8003e48:	8080030b 	ldhu	r2,12(r16)
 8003e4c:	80c00417 	ldw	r3,16(r16)
 8003e50:	003fe206 	br	8003ddc <__alt_data_end+0xf8003ddc>
 8003e54:	80800517 	ldw	r2,20(r16)
 8003e58:	80000215 	stw	zero,8(r16)
 8003e5c:	0085c83a 	sub	r2,zero,r2
 8003e60:	80800615 	stw	r2,24(r16)
 8003e64:	183fe41e 	bne	r3,zero,8003df8 <__alt_data_end+0xf8003df8>
 8003e68:	80c0030b 	ldhu	r3,12(r16)
 8003e6c:	0005883a 	mov	r2,zero
 8003e70:	1900200c 	andi	r4,r3,128
 8003e74:	203fe126 	beq	r4,zero,8003dfc <__alt_data_end+0xf8003dfc>
 8003e78:	18c01014 	ori	r3,r3,64
 8003e7c:	80c0030d 	sth	r3,12(r16)
 8003e80:	00bfffc4 	movi	r2,-1
 8003e84:	003fdd06 	br	8003dfc <__alt_data_end+0xf8003dfc>
 8003e88:	8005d680 	call	8005d68 <__sinit>
 8003e8c:	003fcd06 	br	8003dc4 <__alt_data_end+0xf8003dc4>
 8003e90:	0005883a 	mov	r2,zero
 8003e94:	003fd606 	br	8003df0 <__alt_data_end+0xf8003df0>
 8003e98:	81400c17 	ldw	r5,48(r16)
 8003e9c:	28000626 	beq	r5,zero,8003eb8 <__swsetup_r+0x124>
 8003ea0:	80801004 	addi	r2,r16,64
 8003ea4:	28800326 	beq	r5,r2,8003eb4 <__swsetup_r+0x120>
 8003ea8:	8809883a 	mov	r4,r17
 8003eac:	8005edc0 	call	8005edc <_free_r>
 8003eb0:	8100030b 	ldhu	r4,12(r16)
 8003eb4:	80000c15 	stw	zero,48(r16)
 8003eb8:	80c00417 	ldw	r3,16(r16)
 8003ebc:	00bff6c4 	movi	r2,-37
 8003ec0:	1108703a 	and	r4,r2,r4
 8003ec4:	80000115 	stw	zero,4(r16)
 8003ec8:	80c00015 	stw	r3,0(r16)
 8003ecc:	003fd506 	br	8003e24 <__alt_data_end+0xf8003e24>
 8003ed0:	00800244 	movi	r2,9
 8003ed4:	88800015 	stw	r2,0(r17)
 8003ed8:	20801014 	ori	r2,r4,64
 8003edc:	8080030d 	sth	r2,12(r16)
 8003ee0:	00bfffc4 	movi	r2,-1
 8003ee4:	003fc506 	br	8003dfc <__alt_data_end+0xf8003dfc>

08003ee8 <quorem>:
 8003ee8:	defff704 	addi	sp,sp,-36
 8003eec:	dc800215 	stw	r18,8(sp)
 8003ef0:	20800417 	ldw	r2,16(r4)
 8003ef4:	2c800417 	ldw	r18,16(r5)
 8003ef8:	dfc00815 	stw	ra,32(sp)
 8003efc:	ddc00715 	stw	r23,28(sp)
 8003f00:	dd800615 	stw	r22,24(sp)
 8003f04:	dd400515 	stw	r21,20(sp)
 8003f08:	dd000415 	stw	r20,16(sp)
 8003f0c:	dcc00315 	stw	r19,12(sp)
 8003f10:	dc400115 	stw	r17,4(sp)
 8003f14:	dc000015 	stw	r16,0(sp)
 8003f18:	14807116 	blt	r2,r18,80040e0 <quorem+0x1f8>
 8003f1c:	94bfffc4 	addi	r18,r18,-1
 8003f20:	94ad883a 	add	r22,r18,r18
 8003f24:	b5ad883a 	add	r22,r22,r22
 8003f28:	2c400504 	addi	r17,r5,20
 8003f2c:	8da9883a 	add	r20,r17,r22
 8003f30:	25400504 	addi	r21,r4,20
 8003f34:	282f883a 	mov	r23,r5
 8003f38:	adad883a 	add	r22,r21,r22
 8003f3c:	a1400017 	ldw	r5,0(r20)
 8003f40:	2021883a 	mov	r16,r4
 8003f44:	b1000017 	ldw	r4,0(r22)
 8003f48:	29400044 	addi	r5,r5,1
 8003f4c:	800bae80 	call	800bae8 <__udivsi3>
 8003f50:	1027883a 	mov	r19,r2
 8003f54:	10002c26 	beq	r2,zero,8004008 <quorem+0x120>
 8003f58:	a813883a 	mov	r9,r21
 8003f5c:	880b883a 	mov	r5,r17
 8003f60:	0009883a 	mov	r4,zero
 8003f64:	000d883a 	mov	r6,zero
 8003f68:	2a000017 	ldw	r8,0(r5)
 8003f6c:	49c00017 	ldw	r7,0(r9)
 8003f70:	29400104 	addi	r5,r5,4
 8003f74:	40bfffcc 	andi	r2,r8,65535
 8003f78:	14c5383a 	mul	r2,r2,r19
 8003f7c:	4010d43a 	srli	r8,r8,16
 8003f80:	38ffffcc 	andi	r3,r7,65535
 8003f84:	1105883a 	add	r2,r2,r4
 8003f88:	1008d43a 	srli	r4,r2,16
 8003f8c:	44d1383a 	mul	r8,r8,r19
 8003f90:	198d883a 	add	r6,r3,r6
 8003f94:	10ffffcc 	andi	r3,r2,65535
 8003f98:	30c7c83a 	sub	r3,r6,r3
 8003f9c:	380ed43a 	srli	r7,r7,16
 8003fa0:	4105883a 	add	r2,r8,r4
 8003fa4:	180dd43a 	srai	r6,r3,16
 8003fa8:	113fffcc 	andi	r4,r2,65535
 8003fac:	390fc83a 	sub	r7,r7,r4
 8003fb0:	398d883a 	add	r6,r7,r6
 8003fb4:	300e943a 	slli	r7,r6,16
 8003fb8:	18ffffcc 	andi	r3,r3,65535
 8003fbc:	1008d43a 	srli	r4,r2,16
 8003fc0:	38ceb03a 	or	r7,r7,r3
 8003fc4:	49c00015 	stw	r7,0(r9)
 8003fc8:	300dd43a 	srai	r6,r6,16
 8003fcc:	4a400104 	addi	r9,r9,4
 8003fd0:	a17fe52e 	bgeu	r20,r5,8003f68 <__alt_data_end+0xf8003f68>
 8003fd4:	b0800017 	ldw	r2,0(r22)
 8003fd8:	10000b1e 	bne	r2,zero,8004008 <quorem+0x120>
 8003fdc:	b0bfff04 	addi	r2,r22,-4
 8003fe0:	a880082e 	bgeu	r21,r2,8004004 <quorem+0x11c>
 8003fe4:	b0ffff17 	ldw	r3,-4(r22)
 8003fe8:	18000326 	beq	r3,zero,8003ff8 <quorem+0x110>
 8003fec:	00000506 	br	8004004 <quorem+0x11c>
 8003ff0:	10c00017 	ldw	r3,0(r2)
 8003ff4:	1800031e 	bne	r3,zero,8004004 <quorem+0x11c>
 8003ff8:	10bfff04 	addi	r2,r2,-4
 8003ffc:	94bfffc4 	addi	r18,r18,-1
 8004000:	a8bffb36 	bltu	r21,r2,8003ff0 <__alt_data_end+0xf8003ff0>
 8004004:	84800415 	stw	r18,16(r16)
 8004008:	b80b883a 	mov	r5,r23
 800400c:	8009883a 	mov	r4,r16
 8004010:	800804c0 	call	800804c <__mcmp>
 8004014:	10002616 	blt	r2,zero,80040b0 <quorem+0x1c8>
 8004018:	9cc00044 	addi	r19,r19,1
 800401c:	a805883a 	mov	r2,r21
 8004020:	000b883a 	mov	r5,zero
 8004024:	11000017 	ldw	r4,0(r2)
 8004028:	89800017 	ldw	r6,0(r17)
 800402c:	10800104 	addi	r2,r2,4
 8004030:	20ffffcc 	andi	r3,r4,65535
 8004034:	194b883a 	add	r5,r3,r5
 8004038:	30ffffcc 	andi	r3,r6,65535
 800403c:	28c7c83a 	sub	r3,r5,r3
 8004040:	300cd43a 	srli	r6,r6,16
 8004044:	2008d43a 	srli	r4,r4,16
 8004048:	180bd43a 	srai	r5,r3,16
 800404c:	18ffffcc 	andi	r3,r3,65535
 8004050:	2189c83a 	sub	r4,r4,r6
 8004054:	2149883a 	add	r4,r4,r5
 8004058:	200c943a 	slli	r6,r4,16
 800405c:	8c400104 	addi	r17,r17,4
 8004060:	200bd43a 	srai	r5,r4,16
 8004064:	30c6b03a 	or	r3,r6,r3
 8004068:	10ffff15 	stw	r3,-4(r2)
 800406c:	a47fed2e 	bgeu	r20,r17,8004024 <__alt_data_end+0xf8004024>
 8004070:	9485883a 	add	r2,r18,r18
 8004074:	1085883a 	add	r2,r2,r2
 8004078:	a887883a 	add	r3,r21,r2
 800407c:	18800017 	ldw	r2,0(r3)
 8004080:	10000b1e 	bne	r2,zero,80040b0 <quorem+0x1c8>
 8004084:	18bfff04 	addi	r2,r3,-4
 8004088:	a880082e 	bgeu	r21,r2,80040ac <quorem+0x1c4>
 800408c:	18ffff17 	ldw	r3,-4(r3)
 8004090:	18000326 	beq	r3,zero,80040a0 <quorem+0x1b8>
 8004094:	00000506 	br	80040ac <quorem+0x1c4>
 8004098:	10c00017 	ldw	r3,0(r2)
 800409c:	1800031e 	bne	r3,zero,80040ac <quorem+0x1c4>
 80040a0:	10bfff04 	addi	r2,r2,-4
 80040a4:	94bfffc4 	addi	r18,r18,-1
 80040a8:	a8bffb36 	bltu	r21,r2,8004098 <__alt_data_end+0xf8004098>
 80040ac:	84800415 	stw	r18,16(r16)
 80040b0:	9805883a 	mov	r2,r19
 80040b4:	dfc00817 	ldw	ra,32(sp)
 80040b8:	ddc00717 	ldw	r23,28(sp)
 80040bc:	dd800617 	ldw	r22,24(sp)
 80040c0:	dd400517 	ldw	r21,20(sp)
 80040c4:	dd000417 	ldw	r20,16(sp)
 80040c8:	dcc00317 	ldw	r19,12(sp)
 80040cc:	dc800217 	ldw	r18,8(sp)
 80040d0:	dc400117 	ldw	r17,4(sp)
 80040d4:	dc000017 	ldw	r16,0(sp)
 80040d8:	dec00904 	addi	sp,sp,36
 80040dc:	f800283a 	ret
 80040e0:	0005883a 	mov	r2,zero
 80040e4:	003ff306 	br	80040b4 <__alt_data_end+0xf80040b4>

080040e8 <_dtoa_r>:
 80040e8:	20801017 	ldw	r2,64(r4)
 80040ec:	deffde04 	addi	sp,sp,-136
 80040f0:	df002015 	stw	fp,128(sp)
 80040f4:	dcc01b15 	stw	r19,108(sp)
 80040f8:	dc801a15 	stw	r18,104(sp)
 80040fc:	dc401915 	stw	r17,100(sp)
 8004100:	dc001815 	stw	r16,96(sp)
 8004104:	dfc02115 	stw	ra,132(sp)
 8004108:	ddc01f15 	stw	r23,124(sp)
 800410c:	dd801e15 	stw	r22,120(sp)
 8004110:	dd401d15 	stw	r21,116(sp)
 8004114:	dd001c15 	stw	r20,112(sp)
 8004118:	d9c00315 	stw	r7,12(sp)
 800411c:	2039883a 	mov	fp,r4
 8004120:	3023883a 	mov	r17,r6
 8004124:	2825883a 	mov	r18,r5
 8004128:	dc002417 	ldw	r16,144(sp)
 800412c:	3027883a 	mov	r19,r6
 8004130:	10000826 	beq	r2,zero,8004154 <_dtoa_r+0x6c>
 8004134:	21801117 	ldw	r6,68(r4)
 8004138:	00c00044 	movi	r3,1
 800413c:	100b883a 	mov	r5,r2
 8004140:	1986983a 	sll	r3,r3,r6
 8004144:	11800115 	stw	r6,4(r2)
 8004148:	10c00215 	stw	r3,8(r2)
 800414c:	800782c0 	call	800782c <_Bfree>
 8004150:	e0001015 	stw	zero,64(fp)
 8004154:	88002e16 	blt	r17,zero,8004210 <_dtoa_r+0x128>
 8004158:	80000015 	stw	zero,0(r16)
 800415c:	889ffc2c 	andhi	r2,r17,32752
 8004160:	00dffc34 	movhi	r3,32752
 8004164:	10c01c26 	beq	r2,r3,80041d8 <_dtoa_r+0xf0>
 8004168:	000d883a 	mov	r6,zero
 800416c:	000f883a 	mov	r7,zero
 8004170:	9009883a 	mov	r4,r18
 8004174:	980b883a 	mov	r5,r19
 8004178:	800cd380 	call	800cd38 <__eqdf2>
 800417c:	10002b1e 	bne	r2,zero,800422c <_dtoa_r+0x144>
 8004180:	d9c02317 	ldw	r7,140(sp)
 8004184:	00800044 	movi	r2,1
 8004188:	38800015 	stw	r2,0(r7)
 800418c:	d8802517 	ldw	r2,148(sp)
 8004190:	10019e26 	beq	r2,zero,800480c <_dtoa_r+0x724>
 8004194:	d8c02517 	ldw	r3,148(sp)
 8004198:	008200b4 	movhi	r2,2050
 800419c:	10a89f44 	addi	r2,r2,-23939
 80041a0:	18800015 	stw	r2,0(r3)
 80041a4:	10bfffc4 	addi	r2,r2,-1
 80041a8:	dfc02117 	ldw	ra,132(sp)
 80041ac:	df002017 	ldw	fp,128(sp)
 80041b0:	ddc01f17 	ldw	r23,124(sp)
 80041b4:	dd801e17 	ldw	r22,120(sp)
 80041b8:	dd401d17 	ldw	r21,116(sp)
 80041bc:	dd001c17 	ldw	r20,112(sp)
 80041c0:	dcc01b17 	ldw	r19,108(sp)
 80041c4:	dc801a17 	ldw	r18,104(sp)
 80041c8:	dc401917 	ldw	r17,100(sp)
 80041cc:	dc001817 	ldw	r16,96(sp)
 80041d0:	dec02204 	addi	sp,sp,136
 80041d4:	f800283a 	ret
 80041d8:	d8c02317 	ldw	r3,140(sp)
 80041dc:	0089c3c4 	movi	r2,9999
 80041e0:	18800015 	stw	r2,0(r3)
 80041e4:	90017726 	beq	r18,zero,80047c4 <_dtoa_r+0x6dc>
 80041e8:	008200b4 	movhi	r2,2050
 80041ec:	10a8ab04 	addi	r2,r2,-23892
 80041f0:	d9002517 	ldw	r4,148(sp)
 80041f4:	203fec26 	beq	r4,zero,80041a8 <__alt_data_end+0xf80041a8>
 80041f8:	10c000c7 	ldb	r3,3(r2)
 80041fc:	1801781e 	bne	r3,zero,80047e0 <_dtoa_r+0x6f8>
 8004200:	10c000c4 	addi	r3,r2,3
 8004204:	d9802517 	ldw	r6,148(sp)
 8004208:	30c00015 	stw	r3,0(r6)
 800420c:	003fe606 	br	80041a8 <__alt_data_end+0xf80041a8>
 8004210:	04e00034 	movhi	r19,32768
 8004214:	9cffffc4 	addi	r19,r19,-1
 8004218:	00800044 	movi	r2,1
 800421c:	8ce6703a 	and	r19,r17,r19
 8004220:	80800015 	stw	r2,0(r16)
 8004224:	9823883a 	mov	r17,r19
 8004228:	003fcc06 	br	800415c <__alt_data_end+0xf800415c>
 800422c:	d8800204 	addi	r2,sp,8
 8004230:	d8800015 	stw	r2,0(sp)
 8004234:	d9c00104 	addi	r7,sp,4
 8004238:	900b883a 	mov	r5,r18
 800423c:	980d883a 	mov	r6,r19
 8004240:	e009883a 	mov	r4,fp
 8004244:	8820d53a 	srli	r16,r17,20
 8004248:	80084180 	call	8008418 <__d2b>
 800424c:	d8800915 	stw	r2,36(sp)
 8004250:	8001651e 	bne	r16,zero,80047e8 <_dtoa_r+0x700>
 8004254:	dd800217 	ldw	r22,8(sp)
 8004258:	dc000117 	ldw	r16,4(sp)
 800425c:	00800804 	movi	r2,32
 8004260:	b421883a 	add	r16,r22,r16
 8004264:	80c10c84 	addi	r3,r16,1074
 8004268:	10c2d10e 	bge	r2,r3,8004db0 <_dtoa_r+0xcc8>
 800426c:	00801004 	movi	r2,64
 8004270:	81010484 	addi	r4,r16,1042
 8004274:	10c7c83a 	sub	r3,r2,r3
 8004278:	9108d83a 	srl	r4,r18,r4
 800427c:	88e2983a 	sll	r17,r17,r3
 8004280:	2448b03a 	or	r4,r4,r17
 8004284:	800e1000 	call	800e100 <__floatunsidf>
 8004288:	017f8434 	movhi	r5,65040
 800428c:	01800044 	movi	r6,1
 8004290:	1009883a 	mov	r4,r2
 8004294:	194b883a 	add	r5,r3,r5
 8004298:	843fffc4 	addi	r16,r16,-1
 800429c:	d9801115 	stw	r6,68(sp)
 80042a0:	000d883a 	mov	r6,zero
 80042a4:	01cffe34 	movhi	r7,16376
 80042a8:	800d6a80 	call	800d6a8 <__subdf3>
 80042ac:	0198dbf4 	movhi	r6,25455
 80042b0:	01cff4f4 	movhi	r7,16339
 80042b4:	3190d844 	addi	r6,r6,17249
 80042b8:	39e1e9c4 	addi	r7,r7,-30809
 80042bc:	1009883a 	mov	r4,r2
 80042c0:	180b883a 	mov	r5,r3
 80042c4:	800cf900 	call	800cf90 <__muldf3>
 80042c8:	01a2d874 	movhi	r6,35681
 80042cc:	01cff1f4 	movhi	r7,16327
 80042d0:	31b22cc4 	addi	r6,r6,-14157
 80042d4:	39e28a04 	addi	r7,r7,-30168
 80042d8:	180b883a 	mov	r5,r3
 80042dc:	1009883a 	mov	r4,r2
 80042e0:	800bba40 	call	800bba4 <__adddf3>
 80042e4:	8009883a 	mov	r4,r16
 80042e8:	1029883a 	mov	r20,r2
 80042ec:	1823883a 	mov	r17,r3
 80042f0:	800e0240 	call	800e024 <__floatsidf>
 80042f4:	019427f4 	movhi	r6,20639
 80042f8:	01cff4f4 	movhi	r7,16339
 80042fc:	319e7ec4 	addi	r6,r6,31227
 8004300:	39d104c4 	addi	r7,r7,17427
 8004304:	1009883a 	mov	r4,r2
 8004308:	180b883a 	mov	r5,r3
 800430c:	800cf900 	call	800cf90 <__muldf3>
 8004310:	100d883a 	mov	r6,r2
 8004314:	180f883a 	mov	r7,r3
 8004318:	a009883a 	mov	r4,r20
 800431c:	880b883a 	mov	r5,r17
 8004320:	800bba40 	call	800bba4 <__adddf3>
 8004324:	1009883a 	mov	r4,r2
 8004328:	180b883a 	mov	r5,r3
 800432c:	1029883a 	mov	r20,r2
 8004330:	1823883a 	mov	r17,r3
 8004334:	800dfa40 	call	800dfa4 <__fixdfsi>
 8004338:	000d883a 	mov	r6,zero
 800433c:	000f883a 	mov	r7,zero
 8004340:	a009883a 	mov	r4,r20
 8004344:	880b883a 	mov	r5,r17
 8004348:	d8800515 	stw	r2,20(sp)
 800434c:	800ce9c0 	call	800ce9c <__ledf2>
 8004350:	10028716 	blt	r2,zero,8004d70 <_dtoa_r+0xc88>
 8004354:	d8c00517 	ldw	r3,20(sp)
 8004358:	00800584 	movi	r2,22
 800435c:	10c27536 	bltu	r2,r3,8004d34 <_dtoa_r+0xc4c>
 8004360:	180490fa 	slli	r2,r3,3
 8004364:	00c200b4 	movhi	r3,2050
 8004368:	18e8c704 	addi	r3,r3,-23780
 800436c:	1885883a 	add	r2,r3,r2
 8004370:	11000017 	ldw	r4,0(r2)
 8004374:	11400117 	ldw	r5,4(r2)
 8004378:	900d883a 	mov	r6,r18
 800437c:	980f883a 	mov	r7,r19
 8004380:	800cdc00 	call	800cdc0 <__gedf2>
 8004384:	00828d0e 	bge	zero,r2,8004dbc <_dtoa_r+0xcd4>
 8004388:	d9000517 	ldw	r4,20(sp)
 800438c:	d8000e15 	stw	zero,56(sp)
 8004390:	213fffc4 	addi	r4,r4,-1
 8004394:	d9000515 	stw	r4,20(sp)
 8004398:	b42dc83a 	sub	r22,r22,r16
 800439c:	b5bfffc4 	addi	r22,r22,-1
 80043a0:	b0026f16 	blt	r22,zero,8004d60 <_dtoa_r+0xc78>
 80043a4:	d8000815 	stw	zero,32(sp)
 80043a8:	d9c00517 	ldw	r7,20(sp)
 80043ac:	38026416 	blt	r7,zero,8004d40 <_dtoa_r+0xc58>
 80043b0:	b1ed883a 	add	r22,r22,r7
 80043b4:	d9c00d15 	stw	r7,52(sp)
 80043b8:	d8000a15 	stw	zero,40(sp)
 80043bc:	d9800317 	ldw	r6,12(sp)
 80043c0:	00800244 	movi	r2,9
 80043c4:	11811436 	bltu	r2,r6,8004818 <_dtoa_r+0x730>
 80043c8:	00800144 	movi	r2,5
 80043cc:	1184e10e 	bge	r2,r6,8005754 <_dtoa_r+0x166c>
 80043d0:	31bfff04 	addi	r6,r6,-4
 80043d4:	d9800315 	stw	r6,12(sp)
 80043d8:	0023883a 	mov	r17,zero
 80043dc:	d9800317 	ldw	r6,12(sp)
 80043e0:	008000c4 	movi	r2,3
 80043e4:	30836726 	beq	r6,r2,8005184 <_dtoa_r+0x109c>
 80043e8:	1183410e 	bge	r2,r6,80050f0 <_dtoa_r+0x1008>
 80043ec:	d9c00317 	ldw	r7,12(sp)
 80043f0:	00800104 	movi	r2,4
 80043f4:	38827c26 	beq	r7,r2,8004de8 <_dtoa_r+0xd00>
 80043f8:	00800144 	movi	r2,5
 80043fc:	3884c41e 	bne	r7,r2,8005710 <_dtoa_r+0x1628>
 8004400:	00800044 	movi	r2,1
 8004404:	d8800b15 	stw	r2,44(sp)
 8004408:	d8c00517 	ldw	r3,20(sp)
 800440c:	d9002217 	ldw	r4,136(sp)
 8004410:	1907883a 	add	r3,r3,r4
 8004414:	19800044 	addi	r6,r3,1
 8004418:	d8c00c15 	stw	r3,48(sp)
 800441c:	d9800615 	stw	r6,24(sp)
 8004420:	0183a40e 	bge	zero,r6,80052b4 <_dtoa_r+0x11cc>
 8004424:	d9800617 	ldw	r6,24(sp)
 8004428:	3021883a 	mov	r16,r6
 800442c:	e0001115 	stw	zero,68(fp)
 8004430:	008005c4 	movi	r2,23
 8004434:	1184c92e 	bgeu	r2,r6,800575c <_dtoa_r+0x1674>
 8004438:	00c00044 	movi	r3,1
 800443c:	00800104 	movi	r2,4
 8004440:	1085883a 	add	r2,r2,r2
 8004444:	11000504 	addi	r4,r2,20
 8004448:	180b883a 	mov	r5,r3
 800444c:	18c00044 	addi	r3,r3,1
 8004450:	313ffb2e 	bgeu	r6,r4,8004440 <__alt_data_end+0xf8004440>
 8004454:	e1401115 	stw	r5,68(fp)
 8004458:	e009883a 	mov	r4,fp
 800445c:	80077840 	call	8007784 <_Balloc>
 8004460:	d8800715 	stw	r2,28(sp)
 8004464:	e0801015 	stw	r2,64(fp)
 8004468:	00800384 	movi	r2,14
 800446c:	1400f736 	bltu	r2,r16,800484c <_dtoa_r+0x764>
 8004470:	8800f626 	beq	r17,zero,800484c <_dtoa_r+0x764>
 8004474:	d9c00517 	ldw	r7,20(sp)
 8004478:	01c39a0e 	bge	zero,r7,80052e4 <_dtoa_r+0x11fc>
 800447c:	388003cc 	andi	r2,r7,15
 8004480:	100490fa 	slli	r2,r2,3
 8004484:	382bd13a 	srai	r21,r7,4
 8004488:	00c200b4 	movhi	r3,2050
 800448c:	18e8c704 	addi	r3,r3,-23780
 8004490:	1885883a 	add	r2,r3,r2
 8004494:	a8c0040c 	andi	r3,r21,16
 8004498:	12400017 	ldw	r9,0(r2)
 800449c:	12000117 	ldw	r8,4(r2)
 80044a0:	18037926 	beq	r3,zero,8005288 <_dtoa_r+0x11a0>
 80044a4:	008200b4 	movhi	r2,2050
 80044a8:	10a8bd04 	addi	r2,r2,-23820
 80044ac:	11800817 	ldw	r6,32(r2)
 80044b0:	11c00917 	ldw	r7,36(r2)
 80044b4:	9009883a 	mov	r4,r18
 80044b8:	980b883a 	mov	r5,r19
 80044bc:	da001715 	stw	r8,92(sp)
 80044c0:	da401615 	stw	r9,88(sp)
 80044c4:	800c4500 	call	800c450 <__divdf3>
 80044c8:	da001717 	ldw	r8,92(sp)
 80044cc:	da401617 	ldw	r9,88(sp)
 80044d0:	ad4003cc 	andi	r21,r21,15
 80044d4:	040000c4 	movi	r16,3
 80044d8:	1023883a 	mov	r17,r2
 80044dc:	1829883a 	mov	r20,r3
 80044e0:	a8001126 	beq	r21,zero,8004528 <_dtoa_r+0x440>
 80044e4:	05c200b4 	movhi	r23,2050
 80044e8:	bde8bd04 	addi	r23,r23,-23820
 80044ec:	4805883a 	mov	r2,r9
 80044f0:	4007883a 	mov	r3,r8
 80044f4:	a980004c 	andi	r6,r21,1
 80044f8:	1009883a 	mov	r4,r2
 80044fc:	a82bd07a 	srai	r21,r21,1
 8004500:	180b883a 	mov	r5,r3
 8004504:	30000426 	beq	r6,zero,8004518 <_dtoa_r+0x430>
 8004508:	b9800017 	ldw	r6,0(r23)
 800450c:	b9c00117 	ldw	r7,4(r23)
 8004510:	84000044 	addi	r16,r16,1
 8004514:	800cf900 	call	800cf90 <__muldf3>
 8004518:	bdc00204 	addi	r23,r23,8
 800451c:	a83ff51e 	bne	r21,zero,80044f4 <__alt_data_end+0xf80044f4>
 8004520:	1013883a 	mov	r9,r2
 8004524:	1811883a 	mov	r8,r3
 8004528:	480d883a 	mov	r6,r9
 800452c:	400f883a 	mov	r7,r8
 8004530:	8809883a 	mov	r4,r17
 8004534:	a00b883a 	mov	r5,r20
 8004538:	800c4500 	call	800c450 <__divdf3>
 800453c:	d8800f15 	stw	r2,60(sp)
 8004540:	d8c01015 	stw	r3,64(sp)
 8004544:	d8c00e17 	ldw	r3,56(sp)
 8004548:	18000626 	beq	r3,zero,8004564 <_dtoa_r+0x47c>
 800454c:	d9000f17 	ldw	r4,60(sp)
 8004550:	d9401017 	ldw	r5,64(sp)
 8004554:	000d883a 	mov	r6,zero
 8004558:	01cffc34 	movhi	r7,16368
 800455c:	800ce9c0 	call	800ce9c <__ledf2>
 8004560:	10040b16 	blt	r2,zero,8005590 <_dtoa_r+0x14a8>
 8004564:	8009883a 	mov	r4,r16
 8004568:	800e0240 	call	800e024 <__floatsidf>
 800456c:	d9800f17 	ldw	r6,60(sp)
 8004570:	d9c01017 	ldw	r7,64(sp)
 8004574:	1009883a 	mov	r4,r2
 8004578:	180b883a 	mov	r5,r3
 800457c:	800cf900 	call	800cf90 <__muldf3>
 8004580:	000d883a 	mov	r6,zero
 8004584:	01d00734 	movhi	r7,16412
 8004588:	1009883a 	mov	r4,r2
 800458c:	180b883a 	mov	r5,r3
 8004590:	800bba40 	call	800bba4 <__adddf3>
 8004594:	1021883a 	mov	r16,r2
 8004598:	d8800617 	ldw	r2,24(sp)
 800459c:	047f3034 	movhi	r17,64704
 80045a0:	1c63883a 	add	r17,r3,r17
 80045a4:	10031826 	beq	r2,zero,8005208 <_dtoa_r+0x1120>
 80045a8:	d8c00517 	ldw	r3,20(sp)
 80045ac:	db000617 	ldw	r12,24(sp)
 80045b0:	d8c01315 	stw	r3,76(sp)
 80045b4:	d9000b17 	ldw	r4,44(sp)
 80045b8:	20038f26 	beq	r4,zero,80053f8 <_dtoa_r+0x1310>
 80045bc:	60bfffc4 	addi	r2,r12,-1
 80045c0:	100490fa 	slli	r2,r2,3
 80045c4:	00c200b4 	movhi	r3,2050
 80045c8:	18e8c704 	addi	r3,r3,-23780
 80045cc:	1885883a 	add	r2,r3,r2
 80045d0:	11800017 	ldw	r6,0(r2)
 80045d4:	11c00117 	ldw	r7,4(r2)
 80045d8:	d8800717 	ldw	r2,28(sp)
 80045dc:	0009883a 	mov	r4,zero
 80045e0:	014ff834 	movhi	r5,16352
 80045e4:	db001615 	stw	r12,88(sp)
 80045e8:	15c00044 	addi	r23,r2,1
 80045ec:	800c4500 	call	800c450 <__divdf3>
 80045f0:	800d883a 	mov	r6,r16
 80045f4:	880f883a 	mov	r7,r17
 80045f8:	1009883a 	mov	r4,r2
 80045fc:	180b883a 	mov	r5,r3
 8004600:	800d6a80 	call	800d6a8 <__subdf3>
 8004604:	d9401017 	ldw	r5,64(sp)
 8004608:	d9000f17 	ldw	r4,60(sp)
 800460c:	102b883a 	mov	r21,r2
 8004610:	d8c01215 	stw	r3,72(sp)
 8004614:	800dfa40 	call	800dfa4 <__fixdfsi>
 8004618:	1009883a 	mov	r4,r2
 800461c:	1029883a 	mov	r20,r2
 8004620:	800e0240 	call	800e024 <__floatsidf>
 8004624:	d9000f17 	ldw	r4,60(sp)
 8004628:	d9401017 	ldw	r5,64(sp)
 800462c:	100d883a 	mov	r6,r2
 8004630:	180f883a 	mov	r7,r3
 8004634:	800d6a80 	call	800d6a8 <__subdf3>
 8004638:	1823883a 	mov	r17,r3
 800463c:	d8c00717 	ldw	r3,28(sp)
 8004640:	d9401217 	ldw	r5,72(sp)
 8004644:	a2000c04 	addi	r8,r20,48
 8004648:	1021883a 	mov	r16,r2
 800464c:	1a000005 	stb	r8,0(r3)
 8004650:	800d883a 	mov	r6,r16
 8004654:	880f883a 	mov	r7,r17
 8004658:	a809883a 	mov	r4,r21
 800465c:	4029883a 	mov	r20,r8
 8004660:	800cdc00 	call	800cdc0 <__gedf2>
 8004664:	00841d16 	blt	zero,r2,80056dc <_dtoa_r+0x15f4>
 8004668:	800d883a 	mov	r6,r16
 800466c:	880f883a 	mov	r7,r17
 8004670:	0009883a 	mov	r4,zero
 8004674:	014ffc34 	movhi	r5,16368
 8004678:	800d6a80 	call	800d6a8 <__subdf3>
 800467c:	d9401217 	ldw	r5,72(sp)
 8004680:	100d883a 	mov	r6,r2
 8004684:	180f883a 	mov	r7,r3
 8004688:	a809883a 	mov	r4,r21
 800468c:	800cdc00 	call	800cdc0 <__gedf2>
 8004690:	db001617 	ldw	r12,88(sp)
 8004694:	00840e16 	blt	zero,r2,80056d0 <_dtoa_r+0x15e8>
 8004698:	00800044 	movi	r2,1
 800469c:	13006b0e 	bge	r2,r12,800484c <_dtoa_r+0x764>
 80046a0:	d9000717 	ldw	r4,28(sp)
 80046a4:	dd800f15 	stw	r22,60(sp)
 80046a8:	dcc01015 	stw	r19,64(sp)
 80046ac:	2319883a 	add	r12,r4,r12
 80046b0:	dcc01217 	ldw	r19,72(sp)
 80046b4:	602d883a 	mov	r22,r12
 80046b8:	dc801215 	stw	r18,72(sp)
 80046bc:	b825883a 	mov	r18,r23
 80046c0:	00000906 	br	80046e8 <_dtoa_r+0x600>
 80046c4:	800d6a80 	call	800d6a8 <__subdf3>
 80046c8:	a80d883a 	mov	r6,r21
 80046cc:	980f883a 	mov	r7,r19
 80046d0:	1009883a 	mov	r4,r2
 80046d4:	180b883a 	mov	r5,r3
 80046d8:	800ce9c0 	call	800ce9c <__ledf2>
 80046dc:	1003e816 	blt	r2,zero,8005680 <_dtoa_r+0x1598>
 80046e0:	b825883a 	mov	r18,r23
 80046e4:	bd83e926 	beq	r23,r22,800568c <_dtoa_r+0x15a4>
 80046e8:	a809883a 	mov	r4,r21
 80046ec:	980b883a 	mov	r5,r19
 80046f0:	000d883a 	mov	r6,zero
 80046f4:	01d00934 	movhi	r7,16420
 80046f8:	800cf900 	call	800cf90 <__muldf3>
 80046fc:	000d883a 	mov	r6,zero
 8004700:	01d00934 	movhi	r7,16420
 8004704:	8009883a 	mov	r4,r16
 8004708:	880b883a 	mov	r5,r17
 800470c:	102b883a 	mov	r21,r2
 8004710:	1827883a 	mov	r19,r3
 8004714:	800cf900 	call	800cf90 <__muldf3>
 8004718:	180b883a 	mov	r5,r3
 800471c:	1009883a 	mov	r4,r2
 8004720:	1821883a 	mov	r16,r3
 8004724:	1023883a 	mov	r17,r2
 8004728:	800dfa40 	call	800dfa4 <__fixdfsi>
 800472c:	1009883a 	mov	r4,r2
 8004730:	1029883a 	mov	r20,r2
 8004734:	800e0240 	call	800e024 <__floatsidf>
 8004738:	8809883a 	mov	r4,r17
 800473c:	800b883a 	mov	r5,r16
 8004740:	100d883a 	mov	r6,r2
 8004744:	180f883a 	mov	r7,r3
 8004748:	800d6a80 	call	800d6a8 <__subdf3>
 800474c:	a5000c04 	addi	r20,r20,48
 8004750:	a80d883a 	mov	r6,r21
 8004754:	980f883a 	mov	r7,r19
 8004758:	1009883a 	mov	r4,r2
 800475c:	180b883a 	mov	r5,r3
 8004760:	95000005 	stb	r20,0(r18)
 8004764:	1021883a 	mov	r16,r2
 8004768:	1823883a 	mov	r17,r3
 800476c:	800ce9c0 	call	800ce9c <__ledf2>
 8004770:	bdc00044 	addi	r23,r23,1
 8004774:	800d883a 	mov	r6,r16
 8004778:	880f883a 	mov	r7,r17
 800477c:	0009883a 	mov	r4,zero
 8004780:	014ffc34 	movhi	r5,16368
 8004784:	103fcf0e 	bge	r2,zero,80046c4 <__alt_data_end+0xf80046c4>
 8004788:	d8c01317 	ldw	r3,76(sp)
 800478c:	d8c00515 	stw	r3,20(sp)
 8004790:	d9400917 	ldw	r5,36(sp)
 8004794:	e009883a 	mov	r4,fp
 8004798:	800782c0 	call	800782c <_Bfree>
 800479c:	d9000517 	ldw	r4,20(sp)
 80047a0:	d9802317 	ldw	r6,140(sp)
 80047a4:	d9c02517 	ldw	r7,148(sp)
 80047a8:	b8000005 	stb	zero,0(r23)
 80047ac:	20800044 	addi	r2,r4,1
 80047b0:	30800015 	stw	r2,0(r6)
 80047b4:	3802aa26 	beq	r7,zero,8005260 <_dtoa_r+0x1178>
 80047b8:	3dc00015 	stw	r23,0(r7)
 80047bc:	d8800717 	ldw	r2,28(sp)
 80047c0:	003e7906 	br	80041a8 <__alt_data_end+0xf80041a8>
 80047c4:	00800434 	movhi	r2,16
 80047c8:	10bfffc4 	addi	r2,r2,-1
 80047cc:	88a2703a 	and	r17,r17,r2
 80047d0:	883e851e 	bne	r17,zero,80041e8 <__alt_data_end+0xf80041e8>
 80047d4:	008200b4 	movhi	r2,2050
 80047d8:	10a8a804 	addi	r2,r2,-23904
 80047dc:	003e8406 	br	80041f0 <__alt_data_end+0xf80041f0>
 80047e0:	10c00204 	addi	r3,r2,8
 80047e4:	003e8706 	br	8004204 <__alt_data_end+0xf8004204>
 80047e8:	01400434 	movhi	r5,16
 80047ec:	297fffc4 	addi	r5,r5,-1
 80047f0:	994a703a 	and	r5,r19,r5
 80047f4:	9009883a 	mov	r4,r18
 80047f8:	843f0044 	addi	r16,r16,-1023
 80047fc:	294ffc34 	orhi	r5,r5,16368
 8004800:	dd800217 	ldw	r22,8(sp)
 8004804:	d8001115 	stw	zero,68(sp)
 8004808:	003ea506 	br	80042a0 <__alt_data_end+0xf80042a0>
 800480c:	008200b4 	movhi	r2,2050
 8004810:	10a89f04 	addi	r2,r2,-23940
 8004814:	003e6406 	br	80041a8 <__alt_data_end+0xf80041a8>
 8004818:	e0001115 	stw	zero,68(fp)
 800481c:	000b883a 	mov	r5,zero
 8004820:	e009883a 	mov	r4,fp
 8004824:	80077840 	call	8007784 <_Balloc>
 8004828:	01bfffc4 	movi	r6,-1
 800482c:	01c00044 	movi	r7,1
 8004830:	d8800715 	stw	r2,28(sp)
 8004834:	d9800c15 	stw	r6,48(sp)
 8004838:	e0801015 	stw	r2,64(fp)
 800483c:	d8000315 	stw	zero,12(sp)
 8004840:	d9c00b15 	stw	r7,44(sp)
 8004844:	d9800615 	stw	r6,24(sp)
 8004848:	d8002215 	stw	zero,136(sp)
 800484c:	d8800117 	ldw	r2,4(sp)
 8004850:	10008916 	blt	r2,zero,8004a78 <_dtoa_r+0x990>
 8004854:	d9000517 	ldw	r4,20(sp)
 8004858:	00c00384 	movi	r3,14
 800485c:	19008616 	blt	r3,r4,8004a78 <_dtoa_r+0x990>
 8004860:	200490fa 	slli	r2,r4,3
 8004864:	00c200b4 	movhi	r3,2050
 8004868:	d9802217 	ldw	r6,136(sp)
 800486c:	18e8c704 	addi	r3,r3,-23780
 8004870:	1885883a 	add	r2,r3,r2
 8004874:	14000017 	ldw	r16,0(r2)
 8004878:	14400117 	ldw	r17,4(r2)
 800487c:	30016316 	blt	r6,zero,8004e0c <_dtoa_r+0xd24>
 8004880:	800d883a 	mov	r6,r16
 8004884:	880f883a 	mov	r7,r17
 8004888:	9009883a 	mov	r4,r18
 800488c:	980b883a 	mov	r5,r19
 8004890:	800c4500 	call	800c450 <__divdf3>
 8004894:	180b883a 	mov	r5,r3
 8004898:	1009883a 	mov	r4,r2
 800489c:	800dfa40 	call	800dfa4 <__fixdfsi>
 80048a0:	1009883a 	mov	r4,r2
 80048a4:	102b883a 	mov	r21,r2
 80048a8:	800e0240 	call	800e024 <__floatsidf>
 80048ac:	800d883a 	mov	r6,r16
 80048b0:	880f883a 	mov	r7,r17
 80048b4:	1009883a 	mov	r4,r2
 80048b8:	180b883a 	mov	r5,r3
 80048bc:	800cf900 	call	800cf90 <__muldf3>
 80048c0:	100d883a 	mov	r6,r2
 80048c4:	180f883a 	mov	r7,r3
 80048c8:	9009883a 	mov	r4,r18
 80048cc:	980b883a 	mov	r5,r19
 80048d0:	800d6a80 	call	800d6a8 <__subdf3>
 80048d4:	d9c00717 	ldw	r7,28(sp)
 80048d8:	1009883a 	mov	r4,r2
 80048dc:	a8800c04 	addi	r2,r21,48
 80048e0:	38800005 	stb	r2,0(r7)
 80048e4:	3dc00044 	addi	r23,r7,1
 80048e8:	d9c00617 	ldw	r7,24(sp)
 80048ec:	01800044 	movi	r6,1
 80048f0:	180b883a 	mov	r5,r3
 80048f4:	2005883a 	mov	r2,r4
 80048f8:	39803826 	beq	r7,r6,80049dc <_dtoa_r+0x8f4>
 80048fc:	000d883a 	mov	r6,zero
 8004900:	01d00934 	movhi	r7,16420
 8004904:	800cf900 	call	800cf90 <__muldf3>
 8004908:	000d883a 	mov	r6,zero
 800490c:	000f883a 	mov	r7,zero
 8004910:	1009883a 	mov	r4,r2
 8004914:	180b883a 	mov	r5,r3
 8004918:	1025883a 	mov	r18,r2
 800491c:	1827883a 	mov	r19,r3
 8004920:	800cd380 	call	800cd38 <__eqdf2>
 8004924:	103f9a26 	beq	r2,zero,8004790 <__alt_data_end+0xf8004790>
 8004928:	d9c00617 	ldw	r7,24(sp)
 800492c:	d8c00717 	ldw	r3,28(sp)
 8004930:	b829883a 	mov	r20,r23
 8004934:	38bfffc4 	addi	r2,r7,-1
 8004938:	18ad883a 	add	r22,r3,r2
 800493c:	00000a06 	br	8004968 <_dtoa_r+0x880>
 8004940:	800cf900 	call	800cf90 <__muldf3>
 8004944:	000d883a 	mov	r6,zero
 8004948:	000f883a 	mov	r7,zero
 800494c:	1009883a 	mov	r4,r2
 8004950:	180b883a 	mov	r5,r3
 8004954:	1025883a 	mov	r18,r2
 8004958:	1827883a 	mov	r19,r3
 800495c:	b829883a 	mov	r20,r23
 8004960:	800cd380 	call	800cd38 <__eqdf2>
 8004964:	103f8a26 	beq	r2,zero,8004790 <__alt_data_end+0xf8004790>
 8004968:	800d883a 	mov	r6,r16
 800496c:	880f883a 	mov	r7,r17
 8004970:	9009883a 	mov	r4,r18
 8004974:	980b883a 	mov	r5,r19
 8004978:	800c4500 	call	800c450 <__divdf3>
 800497c:	180b883a 	mov	r5,r3
 8004980:	1009883a 	mov	r4,r2
 8004984:	800dfa40 	call	800dfa4 <__fixdfsi>
 8004988:	1009883a 	mov	r4,r2
 800498c:	102b883a 	mov	r21,r2
 8004990:	800e0240 	call	800e024 <__floatsidf>
 8004994:	800d883a 	mov	r6,r16
 8004998:	880f883a 	mov	r7,r17
 800499c:	1009883a 	mov	r4,r2
 80049a0:	180b883a 	mov	r5,r3
 80049a4:	800cf900 	call	800cf90 <__muldf3>
 80049a8:	100d883a 	mov	r6,r2
 80049ac:	180f883a 	mov	r7,r3
 80049b0:	9009883a 	mov	r4,r18
 80049b4:	980b883a 	mov	r5,r19
 80049b8:	800d6a80 	call	800d6a8 <__subdf3>
 80049bc:	aa000c04 	addi	r8,r21,48
 80049c0:	a2000005 	stb	r8,0(r20)
 80049c4:	000d883a 	mov	r6,zero
 80049c8:	01d00934 	movhi	r7,16420
 80049cc:	1009883a 	mov	r4,r2
 80049d0:	180b883a 	mov	r5,r3
 80049d4:	a5c00044 	addi	r23,r20,1
 80049d8:	b53fd91e 	bne	r22,r20,8004940 <__alt_data_end+0xf8004940>
 80049dc:	100d883a 	mov	r6,r2
 80049e0:	180f883a 	mov	r7,r3
 80049e4:	1009883a 	mov	r4,r2
 80049e8:	180b883a 	mov	r5,r3
 80049ec:	800bba40 	call	800bba4 <__adddf3>
 80049f0:	100d883a 	mov	r6,r2
 80049f4:	180f883a 	mov	r7,r3
 80049f8:	8009883a 	mov	r4,r16
 80049fc:	880b883a 	mov	r5,r17
 8004a00:	1027883a 	mov	r19,r2
 8004a04:	1825883a 	mov	r18,r3
 8004a08:	800ce9c0 	call	800ce9c <__ledf2>
 8004a0c:	10000816 	blt	r2,zero,8004a30 <_dtoa_r+0x948>
 8004a10:	980d883a 	mov	r6,r19
 8004a14:	900f883a 	mov	r7,r18
 8004a18:	8009883a 	mov	r4,r16
 8004a1c:	880b883a 	mov	r5,r17
 8004a20:	800cd380 	call	800cd38 <__eqdf2>
 8004a24:	103f5a1e 	bne	r2,zero,8004790 <__alt_data_end+0xf8004790>
 8004a28:	ad40004c 	andi	r21,r21,1
 8004a2c:	a83f5826 	beq	r21,zero,8004790 <__alt_data_end+0xf8004790>
 8004a30:	bd3fffc3 	ldbu	r20,-1(r23)
 8004a34:	b8bfffc4 	addi	r2,r23,-1
 8004a38:	1007883a 	mov	r3,r2
 8004a3c:	01400e44 	movi	r5,57
 8004a40:	d9800717 	ldw	r6,28(sp)
 8004a44:	00000506 	br	8004a5c <_dtoa_r+0x974>
 8004a48:	18ffffc4 	addi	r3,r3,-1
 8004a4c:	11824726 	beq	r2,r6,800536c <_dtoa_r+0x1284>
 8004a50:	1d000003 	ldbu	r20,0(r3)
 8004a54:	102f883a 	mov	r23,r2
 8004a58:	10bfffc4 	addi	r2,r2,-1
 8004a5c:	a1003fcc 	andi	r4,r20,255
 8004a60:	2100201c 	xori	r4,r4,128
 8004a64:	213fe004 	addi	r4,r4,-128
 8004a68:	217ff726 	beq	r4,r5,8004a48 <__alt_data_end+0xf8004a48>
 8004a6c:	a2000044 	addi	r8,r20,1
 8004a70:	12000005 	stb	r8,0(r2)
 8004a74:	003f4606 	br	8004790 <__alt_data_end+0xf8004790>
 8004a78:	d9000b17 	ldw	r4,44(sp)
 8004a7c:	2000c826 	beq	r4,zero,8004da0 <_dtoa_r+0xcb8>
 8004a80:	d9800317 	ldw	r6,12(sp)
 8004a84:	00c00044 	movi	r3,1
